

Microchip MPLAB XC8 Assembler V2.30 build 20200825195618 
                                                                                               Sat Dec 04 20:19:27 2021

Microchip MPLAB XC8 C Compiler v2.30 (Free license) build 20200825195618 Og1 
     1                           	processor	16F887
     2                           	pagewidth 120
     3                           	opt	flic
     4                           	psect	nvBANK3,global,class=BANK3,space=1,delta=1,noexec
     5                           	psect	strings,global,class=STRING,delta=2,noexec
     6                           	psect	cinit,global,class=CODE,merge=1,delta=2
     7                           	psect	bssCOMMON,global,class=COMMON,space=1,delta=1,noexec
     8                           	psect	bssBANK1,global,class=BANK1,space=1,delta=1,noexec
     9                           	psect	bssBANK3,global,class=BANK3,space=1,delta=1,noexec
    10                           	psect	clrtext,global,class=CODE,delta=2
    11                           	psect	cstackBANK2,global,class=BANK2,space=1,delta=1,noexec
    12                           	psect	cstackBANK1,global,class=BANK1,space=1,delta=1,noexec
    13                           	psect	cstackCOMMON,global,class=COMMON,space=1,delta=1,noexec
    14                           	psect	cstackBANK0,global,class=BANK0,space=1,delta=1,noexec
    15                           	psect	maintext,global,class=CODE,split=1,delta=2
    16                           	psect	text1,local,class=CODE,merge=1,delta=2
    17                           	psect	text2,local,class=CODE,merge=1,delta=2,group=1
    18                           	psect	text3,local,class=CODE,merge=1,delta=2,group=1
    19                           	psect	text4,local,class=CODE,merge=1,delta=2,group=1
    20                           	psect	text5,local,class=CODE,merge=1,delta=2,group=1
    21                           	psect	text6,local,class=CODE,merge=1,delta=2
    22                           	psect	text7,local,class=CODE,merge=1,delta=2
    23                           	psect	text8,local,class=CODE,merge=1,delta=2
    24                           	psect	text9,local,class=CODE,merge=1,delta=2
    25                           	psect	text10,local,class=CODE,merge=1,delta=2
    26                           	psect	text11,local,class=CODE,merge=1,delta=2
    27                           	psect	text12,local,class=CODE,merge=1,delta=2
    28                           	psect	text13,local,class=CODE,merge=1,delta=2
    29                           	psect	text14,local,class=CODE,merge=1,delta=2
    30                           	psect	text15,local,class=CODE,merge=1,delta=2,group=1
    31                           	psect	text16,local,class=CODE,merge=1,delta=2,group=1
    32                           	psect	text17,local,class=CODE,merge=1,delta=2,group=1
    33                           	psect	text18,local,class=CODE,merge=1,delta=2,group=1
    34                           	psect	text19,local,class=CODE,merge=1,delta=2,group=1
    35                           	psect	text20,local,class=CODE,merge=1,delta=2
    36                           	psect	text21,local,class=CODE,merge=1,delta=2
    37                           	psect	text22,local,class=CODE,merge=1,delta=2,group=1
    38                           	psect	text23,local,class=CODE,merge=1,delta=2
    39                           	psect	text24,local,class=CODE,merge=1,delta=2,group=1
    40                           	psect	text25,local,class=CODE,merge=1,delta=2
    41                           	psect	text26,local,class=CODE,merge=1,delta=2
    42                           	psect	text27,local,class=CODE,merge=1,delta=2
    43                           	psect	text28,local,class=CODE,merge=1,delta=2
    44                           	psect	text29,local,class=CODE,merge=1,delta=2
    45                           	psect	text30,local,class=CODE,merge=1,delta=2
    46                           	psect	text31,local,class=CODE,merge=1,delta=2
    47                           	psect	intentry,global,class=CODE,delta=2
    48                           	psect	config,global,abs,ovrld,class=CONFIG,space=4,delta=2,noexec
    49                           	dabs	1,0x7E,2
    50  0000                     
    51                           ; Version 2.30
    52                           ; Generated 26/08/2020 GMT
    53                           ; 
    54                           ; Copyright © 2020, Microchip Technology Inc. and its subsidiaries ("Microchip")
    55                           ; All rights reserved.
    56                           ; 
    57                           ; This software is developed by Microchip Technology Inc. and its subsidiaries ("Microch
      +                          ip").
    58                           ; 
    59                           ; Redistribution and use in source and binary forms, with or without modification, are
    60                           ; permitted provided that the following conditions are met:
    61                           ; 
    62                           ;     1. Redistributions of source code must retain the above copyright notice, this lis
      +                          t of
    63                           ;        conditions and the following disclaimer.
    64                           ; 
    65                           ;     2. Redistributions in binary form must reproduce the above copyright notice, this 
      +                          list
    66                           ;        of conditions and the following disclaimer in the documentation and/or other
    67                           ;        materials provided with the distribution. Publication is not required when
    68                           ;        this file is used in an embedded application.
    69                           ; 
    70                           ;     3. Microchip's name may not be used to endorse or promote products derived from th
      +                          is
    71                           ;        software without specific prior written permission.
    72                           ; 
    73                           ; THIS SOFTWARE IS PROVIDED BY MICROCHIP "AS IS" AND ANY EXPRESS OR IMPLIED WARRANTIES,
    74                           ; INCLUDING, BUT NOT LIMITED TO, THE IMPLIED WARRANTIES OF MERCHANTABILITY AND FITNESS F
      +                          OR
    75                           ; PURPOSE ARE DISCLAIMED.  IN NO EVENT SHALL MICROCHIP BE LIABLE FOR ANY DIRECT, INDIREC
      +                          T,
    76                           ; INCIDENTAL, SPECIAL, EXEMPLARY, OR CONSEQUENTIAL DAMAGES (INCLUDING BUT NOT LIMITED TO
    77                           ; PROCUREMENT OF SUBSTITUTE GOODS OR SERVICES; LOSS OF USE, DATA OR PROFITS; OR BUSINESS
    78                           ; INTERRUPTION) HOWSOEVER CAUSED AND ON ANY THEORY OF LIABILITY, WHETHER IN CONTRACT, ST
      +                          RICT
    79                           ; LIABILITY, OR TORT (INCLUDING NEGLIGENCE OR OTHERWISE) ARISING IN ANY WAY OUT OF THE U
      +                          SE OF
    80                           ; THIS SOFTWARE, EVEN IF ADVISED OF THE POSSIBILITY OF SUCH DAMAGE.
    81                           ; 
    82                           ; 
    83                           ; Code-generator required, PIC16F887 Definitions
    84                           ; 
    85                           ; SFR Addresses
    86  0000                     	;# 
    87  0001                     	;# 
    88  0002                     	;# 
    89  0003                     	;# 
    90  0004                     	;# 
    91  0005                     	;# 
    92  0006                     	;# 
    93  0007                     	;# 
    94  0008                     	;# 
    95  0009                     	;# 
    96  000A                     	;# 
    97  000B                     	;# 
    98  000C                     	;# 
    99  000D                     	;# 
   100  000E                     	;# 
   101  000E                     	;# 
   102  000F                     	;# 
   103  0010                     	;# 
   104  0011                     	;# 
   105  0012                     	;# 
   106  0013                     	;# 
   107  0014                     	;# 
   108  0015                     	;# 
   109  0015                     	;# 
   110  0016                     	;# 
   111  0017                     	;# 
   112  0018                     	;# 
   113  0019                     	;# 
   114  001A                     	;# 
   115  001B                     	;# 
   116  001B                     	;# 
   117  001C                     	;# 
   118  001D                     	;# 
   119  001E                     	;# 
   120  001F                     	;# 
   121  0081                     	;# 
   122  0085                     	;# 
   123  0086                     	;# 
   124  0087                     	;# 
   125  0088                     	;# 
   126  0089                     	;# 
   127  008C                     	;# 
   128  008D                     	;# 
   129  008E                     	;# 
   130  008F                     	;# 
   131  0090                     	;# 
   132  0091                     	;# 
   133  0092                     	;# 
   134  0093                     	;# 
   135  0093                     	;# 
   136  0093                     	;# 
   137  0094                     	;# 
   138  0095                     	;# 
   139  0096                     	;# 
   140  0097                     	;# 
   141  0098                     	;# 
   142  0099                     	;# 
   143  009A                     	;# 
   144  009B                     	;# 
   145  009C                     	;# 
   146  009D                     	;# 
   147  009E                     	;# 
   148  009F                     	;# 
   149  0105                     	;# 
   150  0107                     	;# 
   151  0108                     	;# 
   152  0109                     	;# 
   153  010C                     	;# 
   154  010C                     	;# 
   155  010D                     	;# 
   156  010E                     	;# 
   157  010F                     	;# 
   158  0185                     	;# 
   159  0187                     	;# 
   160  0188                     	;# 
   161  0189                     	;# 
   162  018C                     	;# 
   163  018D                     	;# 
   164  0000                     	;# 
   165  0001                     	;# 
   166  0002                     	;# 
   167  0003                     	;# 
   168  0004                     	;# 
   169  0005                     	;# 
   170  0006                     	;# 
   171  0007                     	;# 
   172  0008                     	;# 
   173  0009                     	;# 
   174  000A                     	;# 
   175  000B                     	;# 
   176  000C                     	;# 
   177  000D                     	;# 
   178  000E                     	;# 
   179  000E                     	;# 
   180  000F                     	;# 
   181  0010                     	;# 
   182  0011                     	;# 
   183  0012                     	;# 
   184  0013                     	;# 
   185  0014                     	;# 
   186  0015                     	;# 
   187  0015                     	;# 
   188  0016                     	;# 
   189  0017                     	;# 
   190  0018                     	;# 
   191  0019                     	;# 
   192  001A                     	;# 
   193  001B                     	;# 
   194  001B                     	;# 
   195  001C                     	;# 
   196  001D                     	;# 
   197  001E                     	;# 
   198  001F                     	;# 
   199  0081                     	;# 
   200  0085                     	;# 
   201  0086                     	;# 
   202  0087                     	;# 
   203  0088                     	;# 
   204  0089                     	;# 
   205  008C                     	;# 
   206  008D                     	;# 
   207  008E                     	;# 
   208  008F                     	;# 
   209  0090                     	;# 
   210  0091                     	;# 
   211  0092                     	;# 
   212  0093                     	;# 
   213  0093                     	;# 
   214  0093                     	;# 
   215  0094                     	;# 
   216  0095                     	;# 
   217  0096                     	;# 
   218  0097                     	;# 
   219  0098                     	;# 
   220  0099                     	;# 
   221  009A                     	;# 
   222  009B                     	;# 
   223  009C                     	;# 
   224  009D                     	;# 
   225  009E                     	;# 
   226  009F                     	;# 
   227  0105                     	;# 
   228  0107                     	;# 
   229  0108                     	;# 
   230  0109                     	;# 
   231  010C                     	;# 
   232  010C                     	;# 
   233  010D                     	;# 
   234  010E                     	;# 
   235  010F                     	;# 
   236  0185                     	;# 
   237  0187                     	;# 
   238  0188                     	;# 
   239  0189                     	;# 
   240  018C                     	;# 
   241  018D                     	;# 
   242                           
   243                           	psect	nvBANK3
   244  01E2                     __pnvBANK3:
   245  01E2                     _freq:
   246  01E2                     	ds	4
   247  0007                     _PORTCbits	set	7
   248  0005                     _PORTAbits	set	5
   249  0001                     _TMR0	set	1
   250  000B                     _INTCONbits	set	11
   251  001B                     _CCPR2L	set	27
   252  0015                     _CCPR1L	set	21
   253  00EA                     _CCP2M2	set	234
   254  00EB                     _CCP2M3	set	235
   255  0092                     _TMR2ON	set	146
   256  0091                     _T2CKPS1	set	145
   257  0090                     _T2CKPS0	set	144
   258  00BA                     _CCP1M2	set	186
   259  00BB                     _CCP1M3	set	187
   260  00EC                     _CCP2Y	set	236
   261  00ED                     _CCP2X	set	237
   262  00BC                     _CCP1Y	set	188
   263  00BD                     _CCP1X	set	189
   264  0033                     _RB3	set	51
   265  0032                     _RB2	set	50
   266  0034                     _RB4	set	52
   267  0044                     _RD4	set	68
   268  0045                     _RD5	set	69
   269  0046                     _RD6	set	70
   270  0047                     _RD7	set	71
   271  0081                     _OPTION_REGbits	set	129
   272  0085                     _TRISA	set	133
   273  0086                     _TRISB	set	134
   274  0087                     _TRISC	set	135
   275  0088                     _TRISD	set	136
   276  0092                     _PR2	set	146
   277  0439                     _TRISC1	set	1081
   278  043A                     _TRISC2	set	1082
   279  0189                     _ANSELH	set	393
   280  0188                     _ANSEL	set	392
   281                           
   282                           	psect	strings
   283  1800                     __pstrings:
   284  1800                     stringtab:
   285  1800                     __stringtab:
   286  1800                     stringcode:	
   287                           ;	String table - string pointers are 1 byte each
   288                           
   289  1800                     stringdir:
   290  1800  3018               	movlw	high stringdir
   291  1801  008A               	movwf	10
   292  1802  0804               	movf	4,w
   293  1803  0A84               	incf	4,f
   294  1804  0782               	addwf	2,f
   295  1805                     __stringbase:
   296  1805  3400               	retlw	0
   297  1806                     __end_of__stringtab:
   298  1806                     STR_4:
   299  1806  3428               	retlw	40	;'('
   300  1807  3476               	retlw	118	;'v'
   301  1808  342F               	retlw	47	;'/'
   302  1809  3470               	retlw	112	;'p'
   303  180A  3429               	retlw	41	;')'
   304  180B  3420               	retlw	32	;' '
   305  180C  3420               	retlw	32	;' '
   306  180D  3400               	retlw	0
   307  180E                     STR_2:
   308  180E  3428               	retlw	40	;'('
   309  180F  3476               	retlw	118	;'v'
   310  1810  342F               	retlw	47	;'/'
   311  1811  3470               	retlw	112	;'p'
   312  1812  3429               	retlw	41	;')'
   313  1813  3420               	retlw	32	;' '
   314  1814  3400               	retlw	0
   315  1815                     STR_1:
   316  1815  3454               	retlw	84	;'T'
   317  1816  3444               	retlw	68	;'D'
   318  1817  3420               	retlw	32	;' '
   319  1818  343A               	retlw	58	;':'
   320  1819  3400               	retlw	0
   321  181A                     STR_3:
   322  181A  3444               	retlw	68	;'D'
   323  181B  3441               	retlw	65	;'A'
   324  181C  3454               	retlw	84	;'T'
   325  181D  343A               	retlw	58	;':'
   326  181E  3400               	retlw	0
   327  181F                     STR_5:
   328  181F  344F               	retlw	79	;'O'
   329  1820  344E               	retlw	78	;'N'
   330  1821  3420               	retlw	32	;' '
   331  1822  3400               	retlw	0
   332  1823                     STR_6:
   333  1823  344F               	retlw	79	;'O'
   334  1824  3446               	retlw	70	;'F'
   335  1825  3446               	retlw	70	;'F'
   336  1826  3400               	retlw	0
   337  1827                     STR_7:
   338  1827  3454               	retlw	84	;'T'
   339  1828  3420               	retlw	32	;' '
   340  1829  3400               	retlw	0
   341  1820                     
   342                           	psect	cinit
   343  000F                     start_initialization:	
   344                           ; #config settings
   345                           
   346  000F                     __initialization:
   347                           
   348                           ; Clear objects allocated to COMMON
   349  000F  01FA               	clrf	__pbssCOMMON& (0+127)
   350  0010  01FB               	clrf	(__pbssCOMMON+1)& (0+127)
   351                           
   352                           ; Clear objects allocated to BANK1
   353  0011  1383               	bcf	3,7	;select IRP bank0
   354  0012  30D4               	movlw	low __pbssBANK1
   355  0013  0084               	movwf	4
   356  0014  30DE               	movlw	low (__pbssBANK1+10)
   357  0015  120A  118A  27F8  120A  118A  	fcall	clear_ram0
   358                           
   359                           ; Clear objects allocated to BANK3
   360  001A  1783               	bsf	3,7	;select IRP bank2
   361  001B  3090               	movlw	low __pbssBANK3
   362  001C  0084               	movwf	4
   363  001D  30E2               	movlw	low (__pbssBANK3+82)
   364  001E  120A  118A  27F8  120A  118A  	fcall	clear_ram0
   365  0023                     end_of_initialization:	
   366                           ;End of C runtime variable initialization code
   367                           
   368  0023                     __end_of__initialization:
   369  0023  0183               	clrf	3
   370  0024  160A  118A  2CC3   	ljmp	_main	;jump to C main() function
   371                           
   372                           	psect	bssCOMMON
   373  007A                     __pbssCOMMON:
   374  007A                     _tt_ss:
   375  007A                     	ds	2
   376                           
   377                           	psect	bssBANK1
   378  00D4                     __pbssBANK1:
   379  00D4                     _pwmduty:
   380  00D4                     	ds	4
   381  00D8                     _tt_inv:
   382  00D8                     	ds	2
   383  00DA                     _t:
   384  00DA                     	ds	4
   385                           
   386                           	psect	bssBANK3
   387  0190                     __pbssBANK3:
   388  0190                     _duty:
   389  0190                     	ds	4
   390  0194                     _chay:
   391  0194                     	ds	4
   392  0198                     _dat:
   393  0198                     	ds	4
   394  019C                     _lastout:
   395  019C                     	ds	4
   396  01A0                     _out:
   397  01A0                     	ds	4
   398  01A4                     _ki:
   399  01A4                     	ds	4
   400  01A8                     _kp:
   401  01A8                     	ds	4
   402  01AC                     _ga:
   403  01AC                     	ds	4
   404  01B0                     _b:
   405  01B0                     	ds	4
   406  01B4                     _a:
   407  01B4                     	ds	4
   408  01B8                     _e2:
   409  01B8                     	ds	4
   410  01BC                     _e1:
   411  01BC                     	ds	4
   412  01C0                     _e:
   413  01C0                     	ds	4
   414  01C4                     _ext:
   415  01C4                     	ds	4
   416  01C8                     _dem:
   417  01C8                     	ds	4
   418  01CC                     _td:
   419  01CC                     	ds	4
   420  01D0                     _luu:
   421  01D0                     	ds	4
   422  01D4                     _xung:
   423  01D4                     	ds	4
   424  01D8                     _gt:
   425  01D8                     	ds	4
   426  01DC                     _tt:
   427  01DC                     	ds	2
   428  01DE                     _kd:
   429  01DE                     	ds	4
   430                           
   431                           	psect	clrtext
   432  07F8                     clear_ram0:	
   433                           ;	Called with FSR containing the base address, and
   434                           ;	W with the last address+1
   435                           
   436  07F8  0064               	clrwdt	;clear the watchdog before getting into this loop
   437  07F9                     clrloop0:
   438  07F9  0180               	clrf	0	;clear RAM location pointed to by FSR
   439  07FA  0A84               	incf	4,f	;increment pointer
   440  07FB  0604               	xorwf	4,w	;XOR with final address
   441  07FC  1903               	btfsc	3,2	;have we reached the end yet?
   442  07FD  3400               	retlw	0	;all done for this memory range, return
   443  07FE  0604               	xorwf	4,w	;XOR again to restore value
   444  07FF  2FF9               	goto	clrloop0	;do the next byte
   445                           
   446                           	psect	cstackBANK2
   447  0110                     __pcstackBANK2:
   448  0110                     _tinh_pid$923:
   449                           
   450                           ; 4 bytes @ 0x0
   451  0110                     	ds	4
   452  0114                     _tinh_pid$924:
   453                           
   454                           ; 4 bytes @ 0x4
   455  0114                     	ds	4
   456  0118                     _tinh_pid$921:
   457                           
   458                           ; 4 bytes @ 0x8
   459  0118                     	ds	4
   460  011C                     _tinh_pid$922:
   461                           
   462                           ; 4 bytes @ 0xC
   463  011C                     	ds	4
   464  0120                     _tinh_pid$920:
   465                           
   466                           ; 4 bytes @ 0x10
   467  0120                     	ds	4
   468                           
   469                           	psect	cstackBANK1
   470  00A0                     __pcstackBANK1:
   471  00A0                     ??___fladd:
   472                           
   473                           ; 1 bytes @ 0x0
   474  00A0                     	ds	8
   475  00A8                     ?___flsub:
   476  00A8                     ?___fldiv:	
   477                           ; 4 bytes @ 0x8
   478                           
   479  00A8                     ___flsub@a:	
   480                           ; 4 bytes @ 0x8
   481                           
   482  00A8                     ___fldiv@a:	
   483                           ; 4 bytes @ 0x8
   484                           
   485                           
   486                           ; 4 bytes @ 0x8
   487  00A8                     	ds	4
   488  00AC                     ___flsub@b:
   489  00AC                     ___fldiv@b:	
   490                           ; 4 bytes @ 0xC
   491                           
   492                           
   493                           ; 4 bytes @ 0xC
   494  00AC                     	ds	4
   495  00B0                     ??___fldiv:
   496                           
   497                           ; 1 bytes @ 0x10
   498  00B0                     	ds	5
   499  00B5                     ___fldiv@rem:
   500                           
   501                           ; 4 bytes @ 0x15
   502  00B5                     	ds	4
   503  00B9                     ___fldiv@sign:
   504                           
   505                           ; 1 bytes @ 0x19
   506  00B9                     	ds	1
   507  00BA                     ___fldiv@new_exp:
   508                           
   509                           ; 2 bytes @ 0x1A
   510  00BA                     	ds	2
   511  00BC                     ___fldiv@grs:
   512                           
   513                           ; 4 bytes @ 0x1C
   514  00BC                     	ds	4
   515  00C0                     ___fldiv@bexp:
   516                           
   517                           ; 1 bytes @ 0x20
   518  00C0                     	ds	1
   519  00C1                     ___fldiv@aexp:
   520                           
   521                           ; 1 bytes @ 0x21
   522  00C1                     	ds	1
   523  00C2                     ?___fltol:
   524  00C2                     ___fltol@f1:	
   525                           ; 4 bytes @ 0x22
   526                           
   527                           
   528                           ; 4 bytes @ 0x22
   529  00C2                     	ds	4
   530  00C6                     ??___fltol:
   531                           
   532                           ; 1 bytes @ 0x26
   533  00C6                     	ds	5
   534  00CB                     ?_PWM1_Duty:
   535  00CB                     ?_PWM2_Duty:	
   536                           ; 2 bytes @ 0x2B
   537                           
   538  00CB                     PWM1_Duty@duty:	
   539                           ; 2 bytes @ 0x2B
   540                           
   541  00CB                     PWM2_Duty@duty:	
   542                           ; 2 bytes @ 0x2B
   543                           
   544                           
   545                           ; 2 bytes @ 0x2B
   546  00CB                     	ds	2
   547  00CD                     ??_PWM1_Duty:
   548  00CD                     ??_PWM2_Duty:	
   549                           ; 1 bytes @ 0x2D
   550                           
   551                           
   552                           ; 1 bytes @ 0x2D
   553  00CD                     	ds	2
   554  00CF                     ??_nn_ss:
   555  00CF                     ??_nn_inv:	
   556                           ; 1 bytes @ 0x2F
   557                           
   558  00CF                     ??_tinh_pid:	
   559                           ; 1 bytes @ 0x2F
   560                           
   561                           
   562                           ; 1 bytes @ 0x2F
   563  00CF                     	ds	4
   564  00D3                     ??_main:
   565                           
   566                           ; 1 bytes @ 0x33
   567  00D3                     	ds	1
   568                           
   569                           	psect	cstackCOMMON
   570  0070                     __pcstackCOMMON:
   571  0070                     ?_Lcd_Port:
   572  0070                     ?_Lcd_Cmd:	
   573                           ; 1 bytes @ 0x0
   574                           
   575  0070                     ?_Lcd_Init:	
   576                           ; 1 bytes @ 0x0
   577                           
   578  0070                     ?_Lcd_Write_Char:	
   579                           ; 1 bytes @ 0x0
   580                           
   581  0070                     ?_Lcd_Write_String:	
   582                           ; 1 bytes @ 0x0
   583                           
   584  0070                     ?_ISR:	
   585                           ; 1 bytes @ 0x0
   586                           
   587  0070                     ??_ISR:	
   588                           ; 1 bytes @ 0x0
   589                           
   590  0070                     ?_nn_ss:	
   591                           ; 1 bytes @ 0x0
   592                           
   593  0070                     ?_nn_inv:	
   594                           ; 1 bytes @ 0x0
   595                           
   596  0070                     ?_nn_up:	
   597                           ; 1 bytes @ 0x0
   598                           
   599  0070                     ?_nn_dw:	
   600                           ; 1 bytes @ 0x0
   601                           
   602  0070                     ?_tinh_pid:	
   603                           ; 1 bytes @ 0x0
   604                           
   605  0070                     ?_main:	
   606                           ; 1 bytes @ 0x0
   607                           
   608  0070                     ?_PWM1_Start:	
   609                           ; 1 bytes @ 0x0
   610                           
   611  0070                     ?_PWM1_Stop:	
   612                           ; 2 bytes @ 0x0
   613                           
   614  0070                     ?_PWM2_Start:	
   615                           ; 2 bytes @ 0x0
   616                           
   617  0070                     ?_PWM2_Stop:	
   618                           ; 2 bytes @ 0x0
   619                           
   620                           
   621                           ; 2 bytes @ 0x0
   622  0070                     	ds	2
   623  0072                     ?___flge:
   624  0072                     ??_Lcd_Port:	
   625                           ; 1 bit 
   626                           
   627  0072                     ??_PWM1_Start:	
   628                           ; 1 bytes @ 0x2
   629                           
   630  0072                     ??_PWM1_Stop:	
   631                           ; 1 bytes @ 0x2
   632                           
   633  0072                     ??_PWM2_Start:	
   634                           ; 1 bytes @ 0x2
   635                           
   636  0072                     ??_PWM2_Stop:	
   637                           ; 1 bytes @ 0x2
   638                           
   639  0072                     ??_nn_up:	
   640                           ; 1 bytes @ 0x2
   641                           
   642  0072                     ??_nn_dw:	
   643                           ; 1 bytes @ 0x2
   644                           
   645  0072                     ?__Umul8_16:	
   646                           ; 1 bytes @ 0x2
   647                           
   648  0072                     ?___lmul:	
   649                           ; 2 bytes @ 0x2
   650                           
   651  0072                     Lcd_Port@a:	
   652                           ; 4 bytes @ 0x2
   653                           
   654  0072                     __Umul8_16@multiplicand:	
   655                           ; 1 bytes @ 0x2
   656                           
   657  0072                     ___lmul@multiplier:	
   658                           ; 1 bytes @ 0x2
   659                           
   660  0072                     ___flge@ff1:	
   661                           ; 4 bytes @ 0x2
   662                           
   663                           
   664                           ; 4 bytes @ 0x2
   665  0072                     	ds	1
   666  0073                     ??_Lcd_Cmd:
   667  0073                     ??_Lcd_Write_Char:	
   668                           ; 1 bytes @ 0x3
   669                           
   670                           
   671                           ; 1 bytes @ 0x3
   672  0073                     	ds	1
   673  0074                     ??__Umul8_16:
   674  0074                     Lcd_Cmd@a:	
   675                           ; 1 bytes @ 0x4
   676                           
   677  0074                     Lcd_Write_Char@temp:	
   678                           ; 1 bytes @ 0x4
   679                           
   680                           
   681                           ; 1 bytes @ 0x4
   682  0074                     	ds	1
   683  0075                     ?_Lcd_Set_Cursor:
   684  0075                     ??_Lcd_Init:	
   685                           ; 1 bytes @ 0x5
   686                           
   687  0075                     Lcd_Set_Cursor@b:	
   688                           ; 1 bytes @ 0x5
   689                           
   690  0075                     Lcd_Write_Char@y:	
   691                           ; 1 bytes @ 0x5
   692                           
   693                           
   694                           ; 1 bytes @ 0x5
   695  0075                     	ds	1
   696  0076                     ??_Lcd_Set_Cursor:
   697  0076                     Lcd_Write_Char@a:	
   698                           ; 1 bytes @ 0x6
   699                           
   700  0076                     ___lmul@multiplicand:	
   701                           ; 1 bytes @ 0x6
   702                           
   703  0076                     ___flge@ff2:	
   704                           ; 4 bytes @ 0x6
   705                           
   706                           
   707                           ; 4 bytes @ 0x6
   708  0076                     	ds	1
   709  0077                     ??_Lcd_Write_String:
   710  0077                     Lcd_Write_String@i:	
   711                           ; 1 bytes @ 0x7
   712                           
   713                           
   714                           ; 2 bytes @ 0x7
   715  0077                     	ds	2
   716  0079                     Lcd_Write_String@a:
   717                           
   718                           ; 1 bytes @ 0x9
   719  0079                     	ds	1
   720  007A                     ??___flsub:
   721                           
   722                           	psect	cstackBANK0
   723  0020                     __pcstackBANK0:	
   724                           ; 1 bytes @ 0xA
   725                           
   726  0020                     ??___lmul:
   727  0020                     ??___flge:	
   728                           ; 1 bytes @ 0x0
   729                           
   730  0020                     Lcd_Set_Cursor@a:	
   731                           ; 1 bytes @ 0x0
   732                           
   733  0020                     __Umul8_16@product:	
   734                           ; 1 bytes @ 0x0
   735                           
   736                           
   737                           ; 2 bytes @ 0x0
   738  0020                     	ds	1
   739  0021                     Lcd_Set_Cursor@z:
   740  0021                     ___lmul@product:	
   741                           ; 1 bytes @ 0x1
   742                           
   743                           
   744                           ; 4 bytes @ 0x1
   745  0021                     	ds	1
   746  0022                     Lcd_Set_Cursor@y:
   747  0022                     __Umul8_16@word_mpld:	
   748                           ; 1 bytes @ 0x2
   749                           
   750                           
   751                           ; 2 bytes @ 0x2
   752  0022                     	ds	1
   753  0023                     Lcd_Set_Cursor@temp:
   754                           
   755                           ; 1 bytes @ 0x3
   756  0023                     	ds	1
   757  0024                     __Umul8_16@multiplier:
   758                           
   759                           ; 1 bytes @ 0x4
   760  0024                     	ds	1
   761  0025                     ?___aldiv:
   762  0025                     ___aldiv@divisor:	
   763                           ; 4 bytes @ 0x5
   764                           
   765                           
   766                           ; 4 bytes @ 0x5
   767  0025                     	ds	4
   768  0029                     ___aldiv@dividend:
   769                           
   770                           ; 4 bytes @ 0x9
   771  0029                     	ds	4
   772  002D                     ??___aldiv:
   773                           
   774                           ; 1 bytes @ 0xD
   775  002D                     	ds	1
   776  002E                     ___aldiv@counter:
   777                           
   778                           ; 1 bytes @ 0xE
   779  002E                     	ds	1
   780  002F                     ___aldiv@sign:
   781                           
   782                           ; 1 bytes @ 0xF
   783  002F                     	ds	1
   784  0030                     ___aldiv@quotient:
   785                           
   786                           ; 4 bytes @ 0x10
   787  0030                     	ds	4
   788  0034                     ?_PWM_Max_Duty:
   789  0034                     ?_PWM1_Init:	
   790                           ; 2 bytes @ 0x14
   791                           
   792  0034                     ?___almod:	
   793                           ; 2 bytes @ 0x14
   794                           
   795  0034                     PWM1_Init@fre:	
   796                           ; 4 bytes @ 0x14
   797                           
   798  0034                     ___almod@divisor:	
   799                           ; 4 bytes @ 0x14
   800                           
   801                           
   802                           ; 4 bytes @ 0x14
   803  0034                     	ds	2
   804  0036                     ??_PWM_Max_Duty:
   805                           
   806                           ; 1 bytes @ 0x16
   807  0036                     	ds	2
   808  0038                     ??_PWM1_Init:
   809  0038                     ___almod@dividend:	
   810                           ; 1 bytes @ 0x18
   811                           
   812                           
   813                           ; 4 bytes @ 0x18
   814  0038                     	ds	2
   815  003A                     ?___xxtofl:
   816  003A                     ___xxtofl@val:	
   817                           ; 4 bytes @ 0x1A
   818                           
   819                           
   820                           ; 4 bytes @ 0x1A
   821  003A                     	ds	2
   822  003C                     ??___almod:
   823                           
   824                           ; 1 bytes @ 0x1C
   825  003C                     	ds	1
   826  003D                     ___almod@counter:
   827                           
   828                           ; 1 bytes @ 0x1D
   829  003D                     	ds	1
   830  003E                     ??___xxtofl:
   831  003E                     ___almod@sign:	
   832                           ; 1 bytes @ 0x1E
   833                           
   834                           
   835                           ; 1 bytes @ 0x1E
   836  003E                     	ds	4
   837  0042                     ___xxtofl@sign:
   838                           
   839                           ; 1 bytes @ 0x22
   840  0042                     	ds	1
   841  0043                     ___xxtofl@exp:
   842                           
   843                           ; 1 bytes @ 0x23
   844  0043                     	ds	1
   845  0044                     ___xxtofl@arg:
   846                           
   847                           ; 4 bytes @ 0x24
   848  0044                     	ds	4
   849  0048                     ?___flmul:
   850  0048                     ___flmul@b:	
   851                           ; 4 bytes @ 0x28
   852                           
   853                           
   854                           ; 4 bytes @ 0x28
   855  0048                     	ds	4
   856  004C                     ___flmul@a:
   857                           
   858                           ; 4 bytes @ 0x2C
   859  004C                     	ds	4
   860  0050                     ??___flmul:
   861                           
   862                           ; 1 bytes @ 0x30
   863  0050                     	ds	5
   864  0055                     ___flmul@sign:
   865                           
   866                           ; 1 bytes @ 0x35
   867  0055                     	ds	1
   868  0056                     ___flmul@aexp:
   869                           
   870                           ; 1 bytes @ 0x36
   871  0056                     	ds	1
   872  0057                     ___flmul@grs:
   873                           
   874                           ; 4 bytes @ 0x37
   875  0057                     	ds	4
   876  005B                     ___flmul@bexp:
   877                           
   878                           ; 1 bytes @ 0x3B
   879  005B                     	ds	1
   880  005C                     ___flmul@prod:
   881                           
   882                           ; 4 bytes @ 0x3C
   883  005C                     	ds	4
   884  0060                     ___flmul@temp:
   885                           
   886                           ; 2 bytes @ 0x40
   887  0060                     	ds	2
   888  0062                     ?___fladd:
   889  0062                     ___fladd@b:	
   890                           ; 4 bytes @ 0x42
   891                           
   892                           
   893                           ; 4 bytes @ 0x42
   894  0062                     	ds	4
   895  0066                     ___fladd@a:
   896                           
   897                           ; 4 bytes @ 0x46
   898  0066                     	ds	4
   899  006A                     ___fladd@signs:
   900                           
   901                           ; 1 bytes @ 0x4A
   902  006A                     	ds	1
   903  006B                     ___fladd@aexp:
   904                           
   905                           ; 1 bytes @ 0x4B
   906  006B                     	ds	1
   907  006C                     ___fladd@bexp:
   908                           
   909                           ; 1 bytes @ 0x4C
   910  006C                     	ds	1
   911  006D                     ___fladd@grs:
   912                           
   913                           ; 1 bytes @ 0x4D
   914  006D                     	ds	1
   915  006E                     ___fltol@sign1:
   916                           
   917                           ; 1 bytes @ 0x4E
   918  006E                     	ds	1
   919  006F                     ___fltol@exp1:
   920                           
   921                           ; 1 bytes @ 0x4F
   922  006F                     	ds	1
   923                           
   924                           	psect	maintext
   925  14C3                     __pmaintext:	
   926 ;;
   927 ;;Main: autosize = 0, tempsize = 1, incstack = 0, save=0
   928 ;;
   929 ;; *************** function _main *****************
   930 ;; Defined at:
   931 ;;		line 191 in file "Mach_encoder_4NN_LCD_PID_Pic16F887_MPlab.c"
   932 ;; Parameters:    Size  Location     Type
   933 ;;		None
   934 ;; Auto vars:     Size  Location     Type
   935 ;;		None
   936 ;; Return value:  Size  Location     Type
   937 ;;                  1    wreg      void 
   938 ;; Registers used:
   939 ;;		wreg, fsr0l, fsr0h, status,2, status,0, btemp+1, pclath, cstack
   940 ;; Tracked objects:
   941 ;;		On entry : B00/0
   942 ;;		On exit  : 0/0
   943 ;;		Unchanged: 0/0
   944 ;; Data sizes:     COMMON   BANK0   BANK1   BANK3   BANK2
   945 ;;      Params:         0       0       0       0       0
   946 ;;      Locals:         0       0       0       0       0
   947 ;;      Temps:          0       0       1       0       0
   948 ;;      Totals:         0       0       1       0       0
   949 ;;Total ram usage:        1 bytes
   950 ;; Hardware stack levels required when called:    5
   951 ;; This function calls:
   952 ;;		_Lcd_Init
   953 ;;		_Lcd_Set_Cursor
   954 ;;		_Lcd_Write_Char
   955 ;;		_Lcd_Write_String
   956 ;;		_PWM1_Duty
   957 ;;		_PWM1_Init
   958 ;;		_PWM1_Start
   959 ;;		_PWM1_Stop
   960 ;;		_PWM2_Duty
   961 ;;		_PWM2_Start
   962 ;;		_PWM2_Stop
   963 ;;		___aldiv
   964 ;;		___almod
   965 ;;		_nn_dw
   966 ;;		_nn_inv
   967 ;;		_nn_ss
   968 ;;		_nn_up
   969 ;;		_tinh_pid
   970 ;; This function is called by:
   971 ;;		Startup code after reset
   972 ;; This function uses a non-reentrant model
   973 ;;
   974                           
   975                           
   976                           ;psect for function _main
   977  14C3                     _main:
   978  14C3                     l3976:	
   979                           ;incstack = 0
   980                           ; Regs used in _main: [wreg-fsr0h+status,2+status,0+btemp+1+pclath+cstack]
   981                           
   982                           
   983                           ;Mach_encoder_4NN_LCD_PID_Pic16F887_MPlab.c: 193:     TRISD=0;
   984  14C3  1683               	bsf	3,5	;RP0=1, select bank1
   985  14C4  1303               	bcf	3,6	;RP1=0, select bank1
   986  14C5  0188               	clrf	8	;volatile
   987                           
   988                           ;Mach_encoder_4NN_LCD_PID_Pic16F887_MPlab.c: 194:     TRISC=0;
   989  14C6  0187               	clrf	7	;volatile
   990  14C7                     l3978:
   991                           
   992                           ;Mach_encoder_4NN_LCD_PID_Pic16F887_MPlab.c: 195:     TRISB=0x01;
   993  14C7  3001               	movlw	1
   994  14C8  0086               	movwf	6	;volatile
   995  14C9                     l3980:
   996                           
   997                           ;Mach_encoder_4NN_LCD_PID_Pic16F887_MPlab.c: 196:     TRISA=0xFF;
   998  14C9  30FF               	movlw	255
   999  14CA  0085               	movwf	5	;volatile
  1000                           
  1001                           ;Mach_encoder_4NN_LCD_PID_Pic16F887_MPlab.c: 198:     ANSEL = 0x00;
  1002  14CB  1683               	bsf	3,5	;RP0=1, select bank3
  1003  14CC  1703               	bsf	3,6	;RP1=1, select bank3
  1004  14CD  0188               	clrf	8	;volatile
  1005                           
  1006                           ;Mach_encoder_4NN_LCD_PID_Pic16F887_MPlab.c: 199:     ANSELH = 0x00;
  1007  14CE  0189               	clrf	9	;volatile
  1008  14CF                     l3982:
  1009                           
  1010                           ;Mach_encoder_4NN_LCD_PID_Pic16F887_MPlab.c: 201:     PWM1_Init(1250);
  1011  14CF  3000               	movlw	0
  1012  14D0  1283               	bcf	3,5	;RP0=0, select bank0
  1013  14D1  1303               	bcf	3,6	;RP1=0, select bank0
  1014  14D2  00B7               	movwf	PWM1_Init@fre+3
  1015  14D3  3000               	movlw	0
  1016  14D4  00B6               	movwf	PWM1_Init@fre+2
  1017  14D5  3004               	movlw	4
  1018  14D6  00B5               	movwf	PWM1_Init@fre+1
  1019  14D7  30E2               	movlw	226
  1020  14D8  00B4               	movwf	PWM1_Init@fre
  1021  14D9  160A  118A  2006  160A  118A  	fcall	_PWM1_Init
  1022  14DE                     l3984:
  1023                           
  1024                           ;Mach_encoder_4NN_LCD_PID_Pic16F887_MPlab.c: 203:     INTCONbits.GIE=1;
  1025  14DE  178B               	bsf	11,7	;volatile
  1026  14DF                     l3986:
  1027                           
  1028                           ;Mach_encoder_4NN_LCD_PID_Pic16F887_MPlab.c: 204:     INTCONbits.PEIE=1;
  1029  14DF  170B               	bsf	11,6	;volatile
  1030  14E0                     l3988:
  1031                           
  1032                           ;Mach_encoder_4NN_LCD_PID_Pic16F887_MPlab.c: 205:     INTCONbits.TMR0IE=1;
  1033  14E0  168B               	bsf	11,5	;volatile
  1034  14E1                     l3990:
  1035                           
  1036                           ;Mach_encoder_4NN_LCD_PID_Pic16F887_MPlab.c: 206:     INTCONbits.TMR0IF=0;
  1037  14E1  110B               	bcf	11,2	;volatile
  1038  14E2                     l3992:
  1039                           
  1040                           ;Mach_encoder_4NN_LCD_PID_Pic16F887_MPlab.c: 208:     TMR0 = 6;
  1041  14E2  3006               	movlw	6
  1042  14E3  1283               	bcf	3,5	;RP0=0, select bank0
  1043  14E4  1303               	bcf	3,6	;RP1=0, select bank0
  1044  14E5  0081               	movwf	1	;volatile
  1045  14E6                     l3994:
  1046                           
  1047                           ;Mach_encoder_4NN_LCD_PID_Pic16F887_MPlab.c: 209:     (INTCONbits.GIE = 1);
  1048  14E6  178B               	bsf	11,7	;volatile
  1049  14E7                     l3996:
  1050                           
  1051                           ;Mach_encoder_4NN_LCD_PID_Pic16F887_MPlab.c: 210:     OPTION_REGbits.T0CS=0;
  1052  14E7  1683               	bsf	3,5	;RP0=1, select bank1
  1053  14E8  1303               	bcf	3,6	;RP1=0, select bank1
  1054  14E9  1281               	bcf	1,5	;volatile
  1055  14EA                     l3998:
  1056                           
  1057                           ;Mach_encoder_4NN_LCD_PID_Pic16F887_MPlab.c: 211:     OPTION_REGbits.T0SE=0;
  1058  14EA  1201               	bcf	1,4	;volatile
  1059  14EB                     l4000:
  1060                           
  1061                           ;Mach_encoder_4NN_LCD_PID_Pic16F887_MPlab.c: 212:     OPTION_REGbits.PSA=0;
  1062  14EB  1181               	bcf	1,3	;volatile
  1063  14EC                     l4002:
  1064                           
  1065                           ;Mach_encoder_4NN_LCD_PID_Pic16F887_MPlab.c: 217:     OPTION_REGbits.PS0=1;
  1066  14EC  1401               	bsf	1,0	;volatile
  1067  14ED                     l4004:
  1068                           
  1069                           ;Mach_encoder_4NN_LCD_PID_Pic16F887_MPlab.c: 218:     OPTION_REGbits.PS1=0;
  1070  14ED  1081               	bcf	1,1	;volatile
  1071  14EE                     l4006:
  1072                           
  1073                           ;Mach_encoder_4NN_LCD_PID_Pic16F887_MPlab.c: 219:     OPTION_REGbits.PS2=0;
  1074  14EE  1101               	bcf	1,2	;volatile
  1075  14EF                     l4008:
  1076                           
  1077                           ;Mach_encoder_4NN_LCD_PID_Pic16F887_MPlab.c: 222:     INTCONbits.INTF = 0;
  1078  14EF  108B               	bcf	11,1	;volatile
  1079  14F0                     l4010:
  1080                           
  1081                           ;Mach_encoder_4NN_LCD_PID_Pic16F887_MPlab.c: 223:     OPTION_REGbits.INTEDG = 1;
  1082  14F0  1701               	bsf	1,6	;volatile
  1083  14F1                     l4012:
  1084                           
  1085                           ;Mach_encoder_4NN_LCD_PID_Pic16F887_MPlab.c: 224:     INTCONbits.INTE = 1;
  1086  14F1  160B               	bsf	11,4	;volatile
  1087  14F2                     l4014:
  1088                           
  1089                           ;Mach_encoder_4NN_LCD_PID_Pic16F887_MPlab.c: 226:     Lcd_Init();
  1090  14F2  120A  158A  2016  160A  118A  	fcall	_Lcd_Init
  1091  14F7                     l4016:
  1092                           
  1093                           ;Mach_encoder_4NN_LCD_PID_Pic16F887_MPlab.c: 227:     tt_ss=0;
  1094  14F7  01FA               	clrf	_tt_ss
  1095  14F8  01FB               	clrf	_tt_ss+1
  1096                           
  1097                           ;Mach_encoder_4NN_LCD_PID_Pic16F887_MPlab.c: 228:     tt_inv=1;
  1098  14F9  3001               	movlw	1
  1099  14FA  1683               	bsf	3,5	;RP0=1, select bank1
  1100  14FB  1303               	bcf	3,6	;RP1=0, select bank1
  1101  14FC  00D8               	movwf	_tt_inv^(0+128)
  1102  14FD  3000               	movlw	0
  1103  14FE  00D9               	movwf	(_tt_inv^(0+128)+1)
  1104                           
  1105                           ;Mach_encoder_4NN_LCD_PID_Pic16F887_MPlab.c: 229:     xung=0;
  1106  14FF  3000               	movlw	0
  1107  1500  1683               	bsf	3,5	;RP0=1, select bank3
  1108  1501  1703               	bsf	3,6	;RP1=1, select bank3
  1109  1502  00D7               	movwf	(_xung+3)^(0+384)
  1110  1503  3000               	movlw	0
  1111  1504  00D6               	movwf	(_xung+2)^(0+384)
  1112  1505  3000               	movlw	0
  1113  1506  00D5               	movwf	(_xung+1)^(0+384)
  1114  1507  3000               	movlw	0
  1115  1508  00D4               	movwf	_xung^(0+384)
  1116                           
  1117                           ;Mach_encoder_4NN_LCD_PID_Pic16F887_MPlab.c: 230:     luu=0;
  1118  1509  3000               	movlw	0
  1119  150A  00D3               	movwf	(_luu+3)^(0+384)
  1120  150B  3000               	movlw	0
  1121  150C  00D2               	movwf	(_luu+2)^(0+384)
  1122  150D  3000               	movlw	0
  1123  150E  00D1               	movwf	(_luu+1)^(0+384)
  1124  150F  3000               	movlw	0
  1125  1510  00D0               	movwf	_luu^(0+384)
  1126                           
  1127                           ;Mach_encoder_4NN_LCD_PID_Pic16F887_MPlab.c: 231:     td=0;
  1128  1511  3000               	movlw	0
  1129  1512  00CF               	movwf	(_td+3)^(0+384)
  1130  1513  3000               	movlw	0
  1131  1514  00CE               	movwf	(_td+2)^(0+384)
  1132  1515  3000               	movlw	0
  1133  1516  00CD               	movwf	(_td+1)^(0+384)
  1134  1517  3000               	movlw	0
  1135  1518  00CC               	movwf	_td^(0+384)
  1136                           
  1137                           ;Mach_encoder_4NN_LCD_PID_Pic16F887_MPlab.c: 233:     e=0;
  1138  1519  3000               	movlw	0
  1139  151A  00C3               	movwf	(_e+3)^(0+384)
  1140  151B  3000               	movlw	0
  1141  151C  00C2               	movwf	(_e+2)^(0+384)
  1142  151D  3000               	movlw	0
  1143  151E  00C1               	movwf	(_e+1)^(0+384)
  1144  151F  3000               	movlw	0
  1145  1520  00C0               	movwf	_e^(0+384)
  1146                           
  1147                           ;Mach_encoder_4NN_LCD_PID_Pic16F887_MPlab.c: 234:     e1=0;
  1148  1521  3000               	movlw	0
  1149  1522  00BF               	movwf	(_e1+3)^(0+384)
  1150  1523  3000               	movlw	0
  1151  1524  00BE               	movwf	(_e1+2)^(0+384)
  1152  1525  3000               	movlw	0
  1153  1526  00BD               	movwf	(_e1+1)^(0+384)
  1154  1527  3000               	movlw	0
  1155  1528  00BC               	movwf	_e1^(0+384)
  1156                           
  1157                           ;Mach_encoder_4NN_LCD_PID_Pic16F887_MPlab.c: 235:     e2=0;
  1158  1529  3000               	movlw	0
  1159  152A  00BB               	movwf	(_e2+3)^(0+384)
  1160  152B  3000               	movlw	0
  1161  152C  00BA               	movwf	(_e2+2)^(0+384)
  1162  152D  3000               	movlw	0
  1163  152E  00B9               	movwf	(_e2+1)^(0+384)
  1164  152F  3000               	movlw	0
  1165  1530  00B8               	movwf	_e2^(0+384)
  1166                           
  1167                           ;Mach_encoder_4NN_LCD_PID_Pic16F887_MPlab.c: 236:     out=0;
  1168  1531  3000               	movlw	0
  1169  1532  00A3               	movwf	(_out+3)^(0+384)
  1170  1533  3000               	movlw	0
  1171  1534  00A2               	movwf	(_out+2)^(0+384)
  1172  1535  3000               	movlw	0
  1173  1536  00A1               	movwf	(_out+1)^(0+384)
  1174  1537  3000               	movlw	0
  1175  1538  00A0               	movwf	_out^(0+384)
  1176                           
  1177                           ;Mach_encoder_4NN_LCD_PID_Pic16F887_MPlab.c: 237:     lastout=0;
  1178  1539  3000               	movlw	0
  1179  153A  009F               	movwf	(_lastout+3)^(0+384)
  1180  153B  3000               	movlw	0
  1181  153C  009E               	movwf	(_lastout+2)^(0+384)
  1182  153D  3000               	movlw	0
  1183  153E  009D               	movwf	(_lastout+1)^(0+384)
  1184  153F  3000               	movlw	0
  1185  1540  009C               	movwf	_lastout^(0+384)
  1186                           
  1187                           ;Mach_encoder_4NN_LCD_PID_Pic16F887_MPlab.c: 238:     dat=0;
  1188  1541  3000               	movlw	0
  1189  1542  009B               	movwf	(_dat+3)^(0+384)
  1190  1543  3000               	movlw	0
  1191  1544  009A               	movwf	(_dat+2)^(0+384)
  1192  1545  3000               	movlw	0
  1193  1546  0099               	movwf	(_dat+1)^(0+384)
  1194  1547  3000               	movlw	0
  1195  1548  0098               	movwf	_dat^(0+384)
  1196                           
  1197                           ;Mach_encoder_4NN_LCD_PID_Pic16F887_MPlab.c: 239:     t=0.1;
  1198  1549  303D               	movlw	61
  1199  154A  1683               	bsf	3,5	;RP0=1, select bank1
  1200  154B  1303               	bcf	3,6	;RP1=0, select bank1
  1201  154C  00DD               	movwf	(_t+3)^(0+128)
  1202  154D  30CC               	movlw	204
  1203  154E  00DC               	movwf	(_t+2)^(0+128)
  1204  154F  30CC               	movlw	204
  1205  1550  00DB               	movwf	(_t+1)^(0+128)
  1206  1551  30CD               	movlw	205
  1207  1552  00DA               	movwf	_t^(0+128)
  1208                           
  1209                           ;Mach_encoder_4NN_LCD_PID_Pic16F887_MPlab.c: 240:     kp=6;
  1210  1553  3040               	movlw	64
  1211  1554  1683               	bsf	3,5	;RP0=1, select bank3
  1212  1555  1703               	bsf	3,6	;RP1=1, select bank3
  1213  1556  00AB               	movwf	(_kp+3)^(0+384)
  1214  1557  30C0               	movlw	192
  1215  1558  00AA               	movwf	(_kp+2)^(0+384)
  1216  1559  3000               	movlw	0
  1217  155A  00A9               	movwf	(_kp+1)^(0+384)
  1218  155B  3000               	movlw	0
  1219  155C  00A8               	movwf	_kp^(0+384)
  1220                           
  1221                           ;Mach_encoder_4NN_LCD_PID_Pic16F887_MPlab.c: 241:     kd=0.1;
  1222  155D  303D               	movlw	61
  1223  155E  00E1               	movwf	(_kd+3)^(0+384)
  1224  155F  30CC               	movlw	204
  1225  1560  00E0               	movwf	(_kd+2)^(0+384)
  1226  1561  30CC               	movlw	204
  1227  1562  00DF               	movwf	(_kd+1)^(0+384)
  1228  1563  30CD               	movlw	205
  1229  1564  00DE               	movwf	_kd^(0+384)
  1230                           
  1231                           ;Mach_encoder_4NN_LCD_PID_Pic16F887_MPlab.c: 242:     ki=2.5;
  1232  1565  3040               	movlw	64
  1233  1566  00A7               	movwf	(_ki+3)^(0+384)
  1234  1567  3020               	movlw	32
  1235  1568  00A6               	movwf	(_ki+2)^(0+384)
  1236  1569  3000               	movlw	0
  1237  156A  00A5               	movwf	(_ki+1)^(0+384)
  1238  156B  3000               	movlw	0
  1239  156C  00A4               	movwf	_ki^(0+384)
  1240                           
  1241                           ;Mach_encoder_4NN_LCD_PID_Pic16F887_MPlab.c: 244:     chay=0;
  1242  156D  3000               	movlw	0
  1243  156E  0097               	movwf	(_chay+3)^(0+384)
  1244  156F  3000               	movlw	0
  1245  1570  0096               	movwf	(_chay+2)^(0+384)
  1246  1571  3000               	movlw	0
  1247  1572  0095               	movwf	(_chay+1)^(0+384)
  1248  1573  3000               	movlw	0
  1249  1574  0094               	movwf	_chay^(0+384)
  1250  1575                     l4018:
  1251                           
  1252                           ;Mach_encoder_4NN_LCD_PID_Pic16F887_MPlab.c: 246:     {;Mach_encoder_4NN_LCD_PID_Pic16F8
      +                          87_MPlab.c: 247:         tinh_pid();
  1253  1575  120A  118A  2027  160A  118A  	fcall	_tinh_pid
  1254  157A                     l4020:
  1255                           
  1256                           ;Mach_encoder_4NN_LCD_PID_Pic16F887_MPlab.c: 248:         if(tt_ss==1)
  1257  157A  037A               	decf	_tt_ss,w
  1258  157B  047B               	iorwf	_tt_ss+1,w
  1259  157C  1D03               	btfss	3,2
  1260  157D  2D7F               	goto	u6511
  1261  157E  2D80               	goto	u6510
  1262  157F                     u6511:
  1263  157F  2DBA               	goto	l4040
  1264  1580                     u6510:
  1265  1580                     l4022:
  1266                           
  1267                           ;Mach_encoder_4NN_LCD_PID_Pic16F887_MPlab.c: 249:          {;Mach_encoder_4NN_LCD_PID_Pi
      +                          c16F887_MPlab.c: 250:             if(tt_inv==1)
  1268  1580  1683               	bsf	3,5	;RP0=1, select bank1
  1269  1581  1303               	bcf	3,6	;RP1=0, select bank1
  1270  1582  0358               	decf	_tt_inv^(0+128),w
  1271  1583  0459               	iorwf	(_tt_inv+1)^(0+128),w
  1272  1584  1D03               	btfss	3,2
  1273  1585  2D87               	goto	u6521
  1274  1586  2D88               	goto	u6520
  1275  1587                     u6521:
  1276  1587  2DA1               	goto	l4032
  1277  1588                     u6520:
  1278  1588                     l4024:
  1279                           
  1280                           ;Mach_encoder_4NN_LCD_PID_Pic16F887_MPlab.c: 251:             {;Mach_encoder_4NN_LCD_PID
      +                          _Pic16F887_MPlab.c: 252:                PWM2_Stop();
  1281  1588  160A  118A  2001  160A  118A  	fcall	_PWM2_Stop
  1282  158D                     l4026:
  1283                           
  1284                           ;Mach_encoder_4NN_LCD_PID_Pic16F887_MPlab.c: 253:                PORTCbits.RC1=0;
  1285  158D  1283               	bcf	3,5	;RP0=0, select bank0
  1286  158E  1303               	bcf	3,6	;RP1=0, select bank0
  1287  158F  1087               	bcf	7,1	;volatile
  1288  1590                     l4028:
  1289                           
  1290                           ;Mach_encoder_4NN_LCD_PID_Pic16F887_MPlab.c: 254:                PWM1_Duty(pwmduty);
  1291  1590  1683               	bsf	3,5	;RP0=1, select bank1
  1292  1591  1303               	bcf	3,6	;RP1=0, select bank1
  1293  1592  0855               	movf	(_pwmduty+1)^(0+128),w
  1294  1593  00CC               	movwf	(PWM1_Duty@duty+1)^(0+128)
  1295  1594  0854               	movf	_pwmduty^(0+128),w
  1296  1595  00CB               	movwf	PWM1_Duty@duty^(0+128)
  1297  1596  120A  158A  2077  160A  118A  	fcall	_PWM1_Duty
  1298  159B                     l4030:
  1299                           
  1300                           ;Mach_encoder_4NN_LCD_PID_Pic16F887_MPlab.c: 255:                PWM1_Start();
  1301  159B  160A  158A  2370  160A  118A  	fcall	_PWM1_Start
  1302                           
  1303                           ;Mach_encoder_4NN_LCD_PID_Pic16F887_MPlab.c: 256:             }
  1304  15A0  2DCA               	goto	l4046
  1305  15A1                     l4032:
  1306                           
  1307                           ;Mach_encoder_4NN_LCD_PID_Pic16F887_MPlab.c: 258:             {;Mach_encoder_4NN_LCD_PID
      +                          _Pic16F887_MPlab.c: 259:                PWM1_Stop();
  1308  15A1  160A  158A  236B  160A  118A  	fcall	_PWM1_Stop
  1309  15A6                     l4034:
  1310                           
  1311                           ;Mach_encoder_4NN_LCD_PID_Pic16F887_MPlab.c: 260:                PORTCbits.RC2=0;
  1312  15A6  1283               	bcf	3,5	;RP0=0, select bank0
  1313  15A7  1303               	bcf	3,6	;RP1=0, select bank0
  1314  15A8  1107               	bcf	7,2	;volatile
  1315  15A9                     l4036:
  1316                           
  1317                           ;Mach_encoder_4NN_LCD_PID_Pic16F887_MPlab.c: 261:                PWM2_Duty(pwmduty);
  1318  15A9  1683               	bsf	3,5	;RP0=1, select bank1
  1319  15AA  1303               	bcf	3,6	;RP1=0, select bank1
  1320  15AB  0855               	movf	(_pwmduty+1)^(0+128),w
  1321  15AC  00CC               	movwf	(PWM2_Duty@duty+1)^(0+128)
  1322  15AD  0854               	movf	_pwmduty^(0+128),w
  1323  15AE  00CB               	movwf	PWM2_Duty@duty^(0+128)
  1324  15AF  120A  118A  2736  160A  118A  	fcall	_PWM2_Duty
  1325  15B4                     l4038:
  1326                           
  1327                           ;Mach_encoder_4NN_LCD_PID_Pic16F887_MPlab.c: 262:                PWM2_Start();
  1328  15B4  160A  158A  237B  160A  118A  	fcall	_PWM2_Start
  1329  15B9  2DCA               	goto	l4046
  1330  15BA                     l4040:
  1331                           
  1332                           ;Mach_encoder_4NN_LCD_PID_Pic16F887_MPlab.c: 266:          {;Mach_encoder_4NN_LCD_PID_Pi
      +                          c16F887_MPlab.c: 267:             PWM1_Stop();
  1333  15BA  160A  158A  236B  160A  118A  	fcall	_PWM1_Stop
  1334  15BF                     l4042:
  1335                           
  1336                           ;Mach_encoder_4NN_LCD_PID_Pic16F887_MPlab.c: 268:             PORTCbits.RC2=0;
  1337  15BF  1283               	bcf	3,5	;RP0=0, select bank0
  1338  15C0  1303               	bcf	3,6	;RP1=0, select bank0
  1339  15C1  1107               	bcf	7,2	;volatile
  1340                           
  1341                           ;Mach_encoder_4NN_LCD_PID_Pic16F887_MPlab.c: 269:             PWM2_Stop();
  1342  15C2  160A  118A  2001  160A  118A  	fcall	_PWM2_Stop
  1343  15C7                     l4044:
  1344                           
  1345                           ;Mach_encoder_4NN_LCD_PID_Pic16F887_MPlab.c: 270:             PORTCbits.RC1=0;
  1346  15C7  1283               	bcf	3,5	;RP0=0, select bank0
  1347  15C8  1303               	bcf	3,6	;RP1=0, select bank0
  1348  15C9  1087               	bcf	7,1	;volatile
  1349  15CA                     l4046:
  1350                           
  1351                           ;Mach_encoder_4NN_LCD_PID_Pic16F887_MPlab.c: 272:         if(chay>2500)
  1352  15CA  1683               	bsf	3,5	;RP0=1, select bank3
  1353  15CB  1703               	bsf	3,6	;RP1=1, select bank3
  1354  15CC  1B97               	btfsc	(_chay+3)^(0+384),7
  1355  15CD  2DDF               	goto	u6531
  1356  15CE  0817               	movf	(_chay+3)^(0+384),w
  1357  15CF  1D03               	btfss	3,2
  1358  15D0  2DE0               	goto	u6530
  1359  15D1  0816               	movf	(_chay+2)^(0+384),w
  1360  15D2  1D03               	btfss	3,2
  1361  15D3  2DE0               	goto	u6530
  1362  15D4  3009               	movlw	9
  1363  15D5  0215               	subwf	(_chay+1)^(0+384),w
  1364  15D6  1D03               	skipz
  1365  15D7  2DDC               	goto	u6533
  1366  15D8  30C5               	movlw	197
  1367  15D9  0214               	subwf	_chay^(0+384),w
  1368  15DA  1D03               	skipz
  1369  15DB  2DDC               	goto	u6533
  1370  15DC                     u6533:
  1371  15DC  1C03               	btfss	3,0
  1372  15DD  2DDF               	goto	u6531
  1373  15DE  2DE0               	goto	u6530
  1374  15DF                     u6531:
  1375  15DF  2F8E               	goto	l4074
  1376  15E0                     u6530:
  1377  15E0                     l4048:
  1378                           
  1379                           ;Mach_encoder_4NN_LCD_PID_Pic16F887_MPlab.c: 273:         {;Mach_encoder_4NN_LCD_PID_Pic
      +                          16F887_MPlab.c: 274:             chay=0;
  1380  15E0  3000               	movlw	0
  1381  15E1  1683               	bsf	3,5	;RP0=1, select bank3
  1382  15E2  1703               	bsf	3,6	;RP1=1, select bank3
  1383  15E3  0097               	movwf	(_chay+3)^(0+384)
  1384  15E4  3000               	movlw	0
  1385  15E5  0096               	movwf	(_chay+2)^(0+384)
  1386  15E6  3000               	movlw	0
  1387  15E7  0095               	movwf	(_chay+1)^(0+384)
  1388  15E8  3000               	movlw	0
  1389  15E9  0094               	movwf	_chay^(0+384)
  1390  15EA                     l4050:
  1391                           
  1392                           ;Mach_encoder_4NN_LCD_PID_Pic16F887_MPlab.c: 275:             Lcd_Set_Cursor(1,1);
  1393  15EA  01F5               	clrf	Lcd_Set_Cursor@b
  1394  15EB  0AF5               	incf	Lcd_Set_Cursor@b,f
  1395  15EC  3001               	movlw	1
  1396  15ED  160A  158A  2550  160A  118A  	fcall	_Lcd_Set_Cursor
  1397  15F2                     l4052:
  1398                           
  1399                           ;Mach_encoder_4NN_LCD_PID_Pic16F887_MPlab.c: 276:             Lcd_Write_String("TD :");
  1400  15F2  3010               	movlw	(low ((STR_1-__stringbase)| (0+32768)))& (0+255)
  1401  15F3  160A  158A  23A8  160A  118A  	fcall	_Lcd_Write_String
  1402  15F8                     l4054:
  1403                           
  1404                           ;Mach_encoder_4NN_LCD_PID_Pic16F887_MPlab.c: 277:             Lcd_Write_Char(td/100%10+0
      +                          x30);
  1405  15F8  3000               	movlw	0
  1406  15F9  1283               	bcf	3,5	;RP0=0, select bank0
  1407  15FA  1303               	bcf	3,6	;RP1=0, select bank0
  1408  15FB  00B7               	movwf	___almod@divisor+3
  1409  15FC  3000               	movlw	0
  1410  15FD  00B6               	movwf	___almod@divisor+2
  1411  15FE  3000               	movlw	0
  1412  15FF  00B5               	movwf	___almod@divisor+1
  1413  1600  300A               	movlw	10
  1414  1601  00B4               	movwf	___almod@divisor
  1415  1602  3000               	movlw	0
  1416  1603  00A8               	movwf	___aldiv@divisor+3
  1417  1604  3000               	movlw	0
  1418  1605  00A7               	movwf	___aldiv@divisor+2
  1419  1606  3000               	movlw	0
  1420  1607  00A6               	movwf	___aldiv@divisor+1
  1421  1608  3064               	movlw	100
  1422  1609  00A5               	movwf	___aldiv@divisor
  1423  160A  1683               	bsf	3,5	;RP0=1, select bank3
  1424  160B  1703               	bsf	3,6	;RP1=1, select bank3
  1425  160C  084F               	movf	(_td+3)^(0+384),w
  1426  160D  1283               	bcf	3,5	;RP0=0, select bank0
  1427  160E  1303               	bcf	3,6	;RP1=0, select bank0
  1428  160F  00AC               	movwf	___aldiv@dividend+3
  1429  1610  1683               	bsf	3,5	;RP0=1, select bank3
  1430  1611  1703               	bsf	3,6	;RP1=1, select bank3
  1431  1612  084E               	movf	(_td+2)^(0+384),w
  1432  1613  1283               	bcf	3,5	;RP0=0, select bank0
  1433  1614  1303               	bcf	3,6	;RP1=0, select bank0
  1434  1615  00AB               	movwf	___aldiv@dividend+2
  1435  1616  1683               	bsf	3,5	;RP0=1, select bank3
  1436  1617  1703               	bsf	3,6	;RP1=1, select bank3
  1437  1618  084D               	movf	(_td+1)^(0+384),w
  1438  1619  1283               	bcf	3,5	;RP0=0, select bank0
  1439  161A  1303               	bcf	3,6	;RP1=0, select bank0
  1440  161B  00AA               	movwf	___aldiv@dividend+1
  1441  161C  1683               	bsf	3,5	;RP0=1, select bank3
  1442  161D  1703               	bsf	3,6	;RP1=1, select bank3
  1443  161E  084C               	movf	_td^(0+384),w
  1444  161F  1283               	bcf	3,5	;RP0=0, select bank0
  1445  1620  1303               	bcf	3,6	;RP1=0, select bank0
  1446  1621  00A9               	movwf	___aldiv@dividend
  1447  1622  160A  118A  20E9  160A  118A  	fcall	___aldiv
  1448  1627  1283               	bcf	3,5	;RP0=0, select bank0
  1449  1628  1303               	bcf	3,6	;RP1=0, select bank0
  1450  1629  0828               	movf	?___aldiv+3,w
  1451  162A  00BB               	movwf	___almod@dividend+3
  1452  162B  0827               	movf	?___aldiv+2,w
  1453  162C  00BA               	movwf	___almod@dividend+2
  1454  162D  0826               	movf	?___aldiv+1,w
  1455  162E  00B9               	movwf	___almod@dividend+1
  1456  162F  0825               	movf	?___aldiv,w
  1457  1630  00B8               	movwf	___almod@dividend
  1458  1631  160A  158A  2779  160A  118A  	fcall	___almod
  1459  1636  1283               	bcf	3,5	;RP0=0, select bank0
  1460  1637  1303               	bcf	3,6	;RP1=0, select bank0
  1461  1638  0834               	movf	?___almod,w
  1462  1639  3E30               	addlw	48
  1463  163A  160A  158A  23F6  160A  118A  	fcall	_Lcd_Write_Char
  1464  163F                     l4056:
  1465                           
  1466                           ;Mach_encoder_4NN_LCD_PID_Pic16F887_MPlab.c: 278:             Lcd_Write_Char(td/10%10+0x
      +                          30);
  1467  163F  3000               	movlw	0
  1468  1640  1283               	bcf	3,5	;RP0=0, select bank0
  1469  1641  1303               	bcf	3,6	;RP1=0, select bank0
  1470  1642  00B7               	movwf	___almod@divisor+3
  1471  1643  3000               	movlw	0
  1472  1644  00B6               	movwf	___almod@divisor+2
  1473  1645  3000               	movlw	0
  1474  1646  00B5               	movwf	___almod@divisor+1
  1475  1647  300A               	movlw	10
  1476  1648  00B4               	movwf	___almod@divisor
  1477  1649  3000               	movlw	0
  1478  164A  00A8               	movwf	___aldiv@divisor+3
  1479  164B  3000               	movlw	0
  1480  164C  00A7               	movwf	___aldiv@divisor+2
  1481  164D  3000               	movlw	0
  1482  164E  00A6               	movwf	___aldiv@divisor+1
  1483  164F  300A               	movlw	10
  1484  1650  00A5               	movwf	___aldiv@divisor
  1485  1651  1683               	bsf	3,5	;RP0=1, select bank3
  1486  1652  1703               	bsf	3,6	;RP1=1, select bank3
  1487  1653  084F               	movf	(_td+3)^(0+384),w
  1488  1654  1283               	bcf	3,5	;RP0=0, select bank0
  1489  1655  1303               	bcf	3,6	;RP1=0, select bank0
  1490  1656  00AC               	movwf	___aldiv@dividend+3
  1491  1657  1683               	bsf	3,5	;RP0=1, select bank3
  1492  1658  1703               	bsf	3,6	;RP1=1, select bank3
  1493  1659  084E               	movf	(_td+2)^(0+384),w
  1494  165A  1283               	bcf	3,5	;RP0=0, select bank0
  1495  165B  1303               	bcf	3,6	;RP1=0, select bank0
  1496  165C  00AB               	movwf	___aldiv@dividend+2
  1497  165D  1683               	bsf	3,5	;RP0=1, select bank3
  1498  165E  1703               	bsf	3,6	;RP1=1, select bank3
  1499  165F  084D               	movf	(_td+1)^(0+384),w
  1500  1660  1283               	bcf	3,5	;RP0=0, select bank0
  1501  1661  1303               	bcf	3,6	;RP1=0, select bank0
  1502  1662  00AA               	movwf	___aldiv@dividend+1
  1503  1663  1683               	bsf	3,5	;RP0=1, select bank3
  1504  1664  1703               	bsf	3,6	;RP1=1, select bank3
  1505  1665  084C               	movf	_td^(0+384),w
  1506  1666  1283               	bcf	3,5	;RP0=0, select bank0
  1507  1667  1303               	bcf	3,6	;RP1=0, select bank0
  1508  1668  00A9               	movwf	___aldiv@dividend
  1509  1669  160A  118A  20E9  160A  118A  	fcall	___aldiv
  1510  166E  1283               	bcf	3,5	;RP0=0, select bank0
  1511  166F  1303               	bcf	3,6	;RP1=0, select bank0
  1512  1670  0828               	movf	?___aldiv+3,w
  1513  1671  00BB               	movwf	___almod@dividend+3
  1514  1672  0827               	movf	?___aldiv+2,w
  1515  1673  00BA               	movwf	___almod@dividend+2
  1516  1674  0826               	movf	?___aldiv+1,w
  1517  1675  00B9               	movwf	___almod@dividend+1
  1518  1676  0825               	movf	?___aldiv,w
  1519  1677  00B8               	movwf	___almod@dividend
  1520  1678  160A  158A  2779  160A  118A  	fcall	___almod
  1521  167D  1283               	bcf	3,5	;RP0=0, select bank0
  1522  167E  1303               	bcf	3,6	;RP1=0, select bank0
  1523  167F  0834               	movf	?___almod,w
  1524  1680  3E30               	addlw	48
  1525  1681  160A  158A  23F6  160A  118A  	fcall	_Lcd_Write_Char
  1526  1686                     l4058:
  1527                           
  1528                           ;Mach_encoder_4NN_LCD_PID_Pic16F887_MPlab.c: 279:             Lcd_Write_Char(td%10+0x30)
      +                          ;
  1529  1686  3000               	movlw	0
  1530  1687  1283               	bcf	3,5	;RP0=0, select bank0
  1531  1688  1303               	bcf	3,6	;RP1=0, select bank0
  1532  1689  00B7               	movwf	___almod@divisor+3
  1533  168A  3000               	movlw	0
  1534  168B  00B6               	movwf	___almod@divisor+2
  1535  168C  3000               	movlw	0
  1536  168D  00B5               	movwf	___almod@divisor+1
  1537  168E  300A               	movlw	10
  1538  168F  00B4               	movwf	___almod@divisor
  1539  1690  1683               	bsf	3,5	;RP0=1, select bank3
  1540  1691  1703               	bsf	3,6	;RP1=1, select bank3
  1541  1692  084F               	movf	(_td+3)^(0+384),w
  1542  1693  1283               	bcf	3,5	;RP0=0, select bank0
  1543  1694  1303               	bcf	3,6	;RP1=0, select bank0
  1544  1695  00BB               	movwf	___almod@dividend+3
  1545  1696  1683               	bsf	3,5	;RP0=1, select bank3
  1546  1697  1703               	bsf	3,6	;RP1=1, select bank3
  1547  1698  084E               	movf	(_td+2)^(0+384),w
  1548  1699  1283               	bcf	3,5	;RP0=0, select bank0
  1549  169A  1303               	bcf	3,6	;RP1=0, select bank0
  1550  169B  00BA               	movwf	___almod@dividend+2
  1551  169C  1683               	bsf	3,5	;RP0=1, select bank3
  1552  169D  1703               	bsf	3,6	;RP1=1, select bank3
  1553  169E  084D               	movf	(_td+1)^(0+384),w
  1554  169F  1283               	bcf	3,5	;RP0=0, select bank0
  1555  16A0  1303               	bcf	3,6	;RP1=0, select bank0
  1556  16A1  00B9               	movwf	___almod@dividend+1
  1557  16A2  1683               	bsf	3,5	;RP0=1, select bank3
  1558  16A3  1703               	bsf	3,6	;RP1=1, select bank3
  1559  16A4  084C               	movf	_td^(0+384),w
  1560  16A5  1283               	bcf	3,5	;RP0=0, select bank0
  1561  16A6  1303               	bcf	3,6	;RP1=0, select bank0
  1562  16A7  00B8               	movwf	___almod@dividend
  1563  16A8  160A  158A  2779  160A  118A  	fcall	___almod
  1564  16AD  1283               	bcf	3,5	;RP0=0, select bank0
  1565  16AE  1303               	bcf	3,6	;RP1=0, select bank0
  1566  16AF  0834               	movf	?___almod,w
  1567  16B0  3E30               	addlw	48
  1568  16B1  160A  158A  23F6  160A  118A  	fcall	_Lcd_Write_Char
  1569  16B6                     l4060:
  1570                           
  1571                           ;Mach_encoder_4NN_LCD_PID_Pic16F887_MPlab.c: 280:             Lcd_Write_String("(v/p) ")
      +                          ;
  1572  16B6  3009               	movlw	(low ((STR_2-__stringbase)| (0+32768)))& (0+255)
  1573  16B7  160A  158A  23A8  160A  118A  	fcall	_Lcd_Write_String
  1574  16BC                     l4062:
  1575                           
  1576                           ;Mach_encoder_4NN_LCD_PID_Pic16F887_MPlab.c: 282:             Lcd_Set_Cursor(2,1);
  1577  16BC  01F5               	clrf	Lcd_Set_Cursor@b
  1578  16BD  0AF5               	incf	Lcd_Set_Cursor@b,f
  1579  16BE  3002               	movlw	2
  1580  16BF  160A  158A  2550  160A  118A  	fcall	_Lcd_Set_Cursor
  1581  16C4                     l4064:
  1582                           
  1583                           ;Mach_encoder_4NN_LCD_PID_Pic16F887_MPlab.c: 283:             Lcd_Write_String("DAT:");
  1584  16C4  3015               	movlw	(low ((STR_3-__stringbase)| (0+32768)))& (0+255)
  1585  16C5  160A  158A  23A8  160A  118A  	fcall	_Lcd_Write_String
  1586  16CA                     l4066:
  1587                           
  1588                           ;Mach_encoder_4NN_LCD_PID_Pic16F887_MPlab.c: 284:             Lcd_Write_Char(dat/100%10+
      +                          0x30);
  1589  16CA  3000               	movlw	0
  1590  16CB  1283               	bcf	3,5	;RP0=0, select bank0
  1591  16CC  1303               	bcf	3,6	;RP1=0, select bank0
  1592  16CD  00B7               	movwf	___almod@divisor+3
  1593  16CE  3000               	movlw	0
  1594  16CF  00B6               	movwf	___almod@divisor+2
  1595  16D0  3000               	movlw	0
  1596  16D1  00B5               	movwf	___almod@divisor+1
  1597  16D2  300A               	movlw	10
  1598  16D3  00B4               	movwf	___almod@divisor
  1599  16D4  3000               	movlw	0
  1600  16D5  00A8               	movwf	___aldiv@divisor+3
  1601  16D6  3000               	movlw	0
  1602  16D7  00A7               	movwf	___aldiv@divisor+2
  1603  16D8  3000               	movlw	0
  1604  16D9  00A6               	movwf	___aldiv@divisor+1
  1605  16DA  3064               	movlw	100
  1606  16DB  00A5               	movwf	___aldiv@divisor
  1607  16DC  1683               	bsf	3,5	;RP0=1, select bank3
  1608  16DD  1703               	bsf	3,6	;RP1=1, select bank3
  1609  16DE  081B               	movf	(_dat+3)^(0+384),w
  1610  16DF  1283               	bcf	3,5	;RP0=0, select bank0
  1611  16E0  1303               	bcf	3,6	;RP1=0, select bank0
  1612  16E1  00AC               	movwf	___aldiv@dividend+3
  1613  16E2  1683               	bsf	3,5	;RP0=1, select bank3
  1614  16E3  1703               	bsf	3,6	;RP1=1, select bank3
  1615  16E4  081A               	movf	(_dat+2)^(0+384),w
  1616  16E5  1283               	bcf	3,5	;RP0=0, select bank0
  1617  16E6  1303               	bcf	3,6	;RP1=0, select bank0
  1618  16E7  00AB               	movwf	___aldiv@dividend+2
  1619  16E8  1683               	bsf	3,5	;RP0=1, select bank3
  1620  16E9  1703               	bsf	3,6	;RP1=1, select bank3
  1621  16EA  0819               	movf	(_dat+1)^(0+384),w
  1622  16EB  1283               	bcf	3,5	;RP0=0, select bank0
  1623  16EC  1303               	bcf	3,6	;RP1=0, select bank0
  1624  16ED  00AA               	movwf	___aldiv@dividend+1
  1625  16EE  1683               	bsf	3,5	;RP0=1, select bank3
  1626  16EF  1703               	bsf	3,6	;RP1=1, select bank3
  1627  16F0  0818               	movf	_dat^(0+384),w
  1628  16F1  1283               	bcf	3,5	;RP0=0, select bank0
  1629  16F2  1303               	bcf	3,6	;RP1=0, select bank0
  1630  16F3  00A9               	movwf	___aldiv@dividend
  1631  16F4  160A  118A  20E9  160A  118A  	fcall	___aldiv
  1632  16F9  1283               	bcf	3,5	;RP0=0, select bank0
  1633  16FA  1303               	bcf	3,6	;RP1=0, select bank0
  1634  16FB  0828               	movf	?___aldiv+3,w
  1635  16FC  00BB               	movwf	___almod@dividend+3
  1636  16FD  0827               	movf	?___aldiv+2,w
  1637  16FE  00BA               	movwf	___almod@dividend+2
  1638  16FF  0826               	movf	?___aldiv+1,w
  1639  1700  00B9               	movwf	___almod@dividend+1
  1640  1701  0825               	movf	?___aldiv,w
  1641  1702  00B8               	movwf	___almod@dividend
  1642  1703  160A  158A  2779  160A  118A  	fcall	___almod
  1643  1708  1283               	bcf	3,5	;RP0=0, select bank0
  1644  1709  1303               	bcf	3,6	;RP1=0, select bank0
  1645  170A  0834               	movf	?___almod,w
  1646  170B  3E30               	addlw	48
  1647  170C  160A  158A  23F6  160A  118A  	fcall	_Lcd_Write_Char
  1648  1711                     l4068:
  1649                           
  1650                           ;Mach_encoder_4NN_LCD_PID_Pic16F887_MPlab.c: 285:             Lcd_Write_Char(dat/10%10+0
      +                          x30);
  1651  1711  3000               	movlw	0
  1652  1712  1283               	bcf	3,5	;RP0=0, select bank0
  1653  1713  1303               	bcf	3,6	;RP1=0, select bank0
  1654  1714  00B7               	movwf	___almod@divisor+3
  1655  1715  3000               	movlw	0
  1656  1716  00B6               	movwf	___almod@divisor+2
  1657  1717  3000               	movlw	0
  1658  1718  00B5               	movwf	___almod@divisor+1
  1659  1719  300A               	movlw	10
  1660  171A  00B4               	movwf	___almod@divisor
  1661  171B  3000               	movlw	0
  1662  171C  00A8               	movwf	___aldiv@divisor+3
  1663  171D  3000               	movlw	0
  1664  171E  00A7               	movwf	___aldiv@divisor+2
  1665  171F  3000               	movlw	0
  1666  1720  00A6               	movwf	___aldiv@divisor+1
  1667  1721  300A               	movlw	10
  1668  1722  00A5               	movwf	___aldiv@divisor
  1669  1723  1683               	bsf	3,5	;RP0=1, select bank3
  1670  1724  1703               	bsf	3,6	;RP1=1, select bank3
  1671  1725  081B               	movf	(_dat+3)^(0+384),w
  1672  1726  1283               	bcf	3,5	;RP0=0, select bank0
  1673  1727  1303               	bcf	3,6	;RP1=0, select bank0
  1674  1728  00AC               	movwf	___aldiv@dividend+3
  1675  1729  1683               	bsf	3,5	;RP0=1, select bank3
  1676  172A  1703               	bsf	3,6	;RP1=1, select bank3
  1677  172B  081A               	movf	(_dat+2)^(0+384),w
  1678  172C  1283               	bcf	3,5	;RP0=0, select bank0
  1679  172D  1303               	bcf	3,6	;RP1=0, select bank0
  1680  172E  00AB               	movwf	___aldiv@dividend+2
  1681  172F  1683               	bsf	3,5	;RP0=1, select bank3
  1682  1730  1703               	bsf	3,6	;RP1=1, select bank3
  1683  1731  0819               	movf	(_dat+1)^(0+384),w
  1684  1732  1283               	bcf	3,5	;RP0=0, select bank0
  1685  1733  1303               	bcf	3,6	;RP1=0, select bank0
  1686  1734  00AA               	movwf	___aldiv@dividend+1
  1687  1735  1683               	bsf	3,5	;RP0=1, select bank3
  1688  1736  1703               	bsf	3,6	;RP1=1, select bank3
  1689  1737  0818               	movf	_dat^(0+384),w
  1690  1738  1283               	bcf	3,5	;RP0=0, select bank0
  1691  1739  1303               	bcf	3,6	;RP1=0, select bank0
  1692  173A  00A9               	movwf	___aldiv@dividend
  1693  173B  160A  118A  20E9  160A  118A  	fcall	___aldiv
  1694  1740  1283               	bcf	3,5	;RP0=0, select bank0
  1695  1741  1303               	bcf	3,6	;RP1=0, select bank0
  1696  1742  0828               	movf	?___aldiv+3,w
  1697  1743  00BB               	movwf	___almod@dividend+3
  1698  1744  0827               	movf	?___aldiv+2,w
  1699  1745  00BA               	movwf	___almod@dividend+2
  1700  1746  0826               	movf	?___aldiv+1,w
  1701  1747  00B9               	movwf	___almod@dividend+1
  1702  1748  0825               	movf	?___aldiv,w
  1703  1749  00B8               	movwf	___almod@dividend
  1704  174A  160A  158A  2779  160A  118A  	fcall	___almod
  1705  174F  1283               	bcf	3,5	;RP0=0, select bank0
  1706  1750  1303               	bcf	3,6	;RP1=0, select bank0
  1707  1751  0834               	movf	?___almod,w
  1708  1752  3E30               	addlw	48
  1709  1753  160A  158A  23F6  160A  118A  	fcall	_Lcd_Write_Char
  1710  1758                     l4070:
  1711                           
  1712                           ;Mach_encoder_4NN_LCD_PID_Pic16F887_MPlab.c: 286:             Lcd_Write_Char(dat%10+0x30
      +                          );
  1713  1758  3000               	movlw	0
  1714  1759  1283               	bcf	3,5	;RP0=0, select bank0
  1715  175A  1303               	bcf	3,6	;RP1=0, select bank0
  1716  175B  00B7               	movwf	___almod@divisor+3
  1717  175C  3000               	movlw	0
  1718  175D  00B6               	movwf	___almod@divisor+2
  1719  175E  3000               	movlw	0
  1720  175F  00B5               	movwf	___almod@divisor+1
  1721  1760  300A               	movlw	10
  1722  1761  00B4               	movwf	___almod@divisor
  1723  1762  1683               	bsf	3,5	;RP0=1, select bank3
  1724  1763  1703               	bsf	3,6	;RP1=1, select bank3
  1725  1764  081B               	movf	(_dat+3)^(0+384),w
  1726  1765  1283               	bcf	3,5	;RP0=0, select bank0
  1727  1766  1303               	bcf	3,6	;RP1=0, select bank0
  1728  1767  00BB               	movwf	___almod@dividend+3
  1729  1768  1683               	bsf	3,5	;RP0=1, select bank3
  1730  1769  1703               	bsf	3,6	;RP1=1, select bank3
  1731  176A  081A               	movf	(_dat+2)^(0+384),w
  1732  176B  1283               	bcf	3,5	;RP0=0, select bank0
  1733  176C  1303               	bcf	3,6	;RP1=0, select bank0
  1734  176D  00BA               	movwf	___almod@dividend+2
  1735  176E  1683               	bsf	3,5	;RP0=1, select bank3
  1736  176F  1703               	bsf	3,6	;RP1=1, select bank3
  1737  1770  0819               	movf	(_dat+1)^(0+384),w
  1738  1771  1283               	bcf	3,5	;RP0=0, select bank0
  1739  1772  1303               	bcf	3,6	;RP1=0, select bank0
  1740  1773  00B9               	movwf	___almod@dividend+1
  1741  1774  1683               	bsf	3,5	;RP0=1, select bank3
  1742  1775  1703               	bsf	3,6	;RP1=1, select bank3
  1743  1776  0818               	movf	_dat^(0+384),w
  1744  1777  1283               	bcf	3,5	;RP0=0, select bank0
  1745  1778  1303               	bcf	3,6	;RP1=0, select bank0
  1746  1779  00B8               	movwf	___almod@dividend
  1747  177A  160A  158A  2779  160A  118A  	fcall	___almod
  1748  177F  1283               	bcf	3,5	;RP0=0, select bank0
  1749  1780  1303               	bcf	3,6	;RP1=0, select bank0
  1750  1781  0834               	movf	?___almod,w
  1751  1782  3E30               	addlw	48
  1752  1783  160A  158A  23F6  160A  118A  	fcall	_Lcd_Write_Char
  1753  1788                     l4072:
  1754                           
  1755                           ;Mach_encoder_4NN_LCD_PID_Pic16F887_MPlab.c: 287:             Lcd_Write_String("(v/p)  "
      +                          );
  1756  1788  3001               	movlw	(low ((STR_4-__stringbase)| (0+32768)))& (0+255)
  1757  1789  160A  158A  23A8  160A  118A  	fcall	_Lcd_Write_String
  1758  178E                     l4074:
  1759                           
  1760                           ;Mach_encoder_4NN_LCD_PID_Pic16F887_MPlab.c: 289:         if(tt_ss==1)
  1761  178E  037A               	decf	_tt_ss,w
  1762  178F  047B               	iorwf	_tt_ss+1,w
  1763  1790  1D03               	btfss	3,2
  1764  1791  2F93               	goto	u6541
  1765  1792  2F94               	goto	u6540
  1766  1793                     u6541:
  1767  1793  2FA7               	goto	l4080
  1768  1794                     u6540:
  1769  1794                     l4076:
  1770                           
  1771                           ;Mach_encoder_4NN_LCD_PID_Pic16F887_MPlab.c: 290:         {;Mach_encoder_4NN_LCD_PID_Pic
      +                          16F887_MPlab.c: 291:            Lcd_Set_Cursor(1,14);
  1772  1794  300E               	movlw	14
  1773  1795  1683               	bsf	3,5	;RP0=1, select bank1
  1774  1796  1303               	bcf	3,6	;RP1=0, select bank1
  1775  1797  00D3               	movwf	??_main^(0+128)
  1776  1798  0853               	movf	??_main^(0+128),w
  1777  1799  00F5               	movwf	Lcd_Set_Cursor@b
  1778  179A  3001               	movlw	1
  1779  179B  160A  158A  2550  160A  118A  	fcall	_Lcd_Set_Cursor
  1780  17A0                     l4078:
  1781                           
  1782                           ;Mach_encoder_4NN_LCD_PID_Pic16F887_MPlab.c: 292:            Lcd_Write_String("ON ");
  1783  17A0  301A               	movlw	(low ((STR_5-__stringbase)| (0+32768)))& (0+255)
  1784  17A1  160A  158A  23A8  160A  118A  	fcall	_Lcd_Write_String
  1785                           
  1786                           ;Mach_encoder_4NN_LCD_PID_Pic16F887_MPlab.c: 293:         }
  1787  17A6  2FB9               	goto	l4084
  1788  17A7                     l4080:
  1789                           
  1790                           ;Mach_encoder_4NN_LCD_PID_Pic16F887_MPlab.c: 295:         {;Mach_encoder_4NN_LCD_PID_Pic
      +                          16F887_MPlab.c: 296:            Lcd_Set_Cursor(1,14);
  1791  17A7  300E               	movlw	14
  1792  17A8  1683               	bsf	3,5	;RP0=1, select bank1
  1793  17A9  1303               	bcf	3,6	;RP1=0, select bank1
  1794  17AA  00D3               	movwf	??_main^(0+128)
  1795  17AB  0853               	movf	??_main^(0+128),w
  1796  17AC  00F5               	movwf	Lcd_Set_Cursor@b
  1797  17AD  3001               	movlw	1
  1798  17AE  160A  158A  2550  160A  118A  	fcall	_Lcd_Set_Cursor
  1799  17B3                     l4082:
  1800                           
  1801                           ;Mach_encoder_4NN_LCD_PID_Pic16F887_MPlab.c: 297:            Lcd_Write_String("OFF");
  1802  17B3  301E               	movlw	(low ((STR_6-__stringbase)| (0+32768)))& (0+255)
  1803  17B4  160A  158A  23A8  160A  118A  	fcall	_Lcd_Write_String
  1804  17B9                     l4084:
  1805                           
  1806                           ;Mach_encoder_4NN_LCD_PID_Pic16F887_MPlab.c: 300:         if(tt_inv==1)
  1807  17B9  1683               	bsf	3,5	;RP0=1, select bank1
  1808  17BA  1303               	bcf	3,6	;RP1=0, select bank1
  1809  17BB  0358               	decf	_tt_inv^(0+128),w
  1810  17BC  0459               	iorwf	(_tt_inv+1)^(0+128),w
  1811  17BD  1D03               	btfss	3,2
  1812  17BE  2FC0               	goto	u6551
  1813  17BF  2FC1               	goto	u6550
  1814  17C0                     u6551:
  1815  17C0  2FD2               	goto	l4090
  1816  17C1                     u6550:
  1817  17C1                     l4086:
  1818                           
  1819                           ;Mach_encoder_4NN_LCD_PID_Pic16F887_MPlab.c: 301:         {;Mach_encoder_4NN_LCD_PID_Pic
      +                          16F887_MPlab.c: 302:            Lcd_Set_Cursor(2,15);
  1820  17C1  300F               	movlw	15
  1821  17C2  00D3               	movwf	??_main^(0+128)
  1822  17C3  0853               	movf	??_main^(0+128),w
  1823  17C4  00F5               	movwf	Lcd_Set_Cursor@b
  1824  17C5  3002               	movlw	2
  1825  17C6  160A  158A  2550  160A  118A  	fcall	_Lcd_Set_Cursor
  1826  17CB                     l4088:
  1827                           
  1828                           ;Mach_encoder_4NN_LCD_PID_Pic16F887_MPlab.c: 303:            Lcd_Write_String("T ");
  1829  17CB  3022               	movlw	(low ((STR_7-__stringbase)| (0+32768)))& (0+255)
  1830  17CC  160A  158A  23A8  160A  118A  	fcall	_Lcd_Write_String
  1831                           
  1832                           ;Mach_encoder_4NN_LCD_PID_Pic16F887_MPlab.c: 304:         }
  1833  17D1  2FE2               	goto	l4094
  1834  17D2                     l4090:
  1835                           
  1836                           ;Mach_encoder_4NN_LCD_PID_Pic16F887_MPlab.c: 306:         {;Mach_encoder_4NN_LCD_PID_Pic
      +                          16F887_MPlab.c: 307:            Lcd_Set_Cursor(2,15);
  1837  17D2  300F               	movlw	15
  1838  17D3  00D3               	movwf	??_main^(0+128)
  1839  17D4  0853               	movf	??_main^(0+128),w
  1840  17D5  00F5               	movwf	Lcd_Set_Cursor@b
  1841  17D6  3002               	movlw	2
  1842  17D7  160A  158A  2550  160A  118A  	fcall	_Lcd_Set_Cursor
  1843  17DC                     l4092:
  1844                           
  1845                           ;Mach_encoder_4NN_LCD_PID_Pic16F887_MPlab.c: 308:            Lcd_Write_String("N ");
  1846  17DC  301B               	movlw	(low (((STR_5+1)-__stringbase)| (0+32768)))& (0+255)
  1847  17DD  160A  158A  23A8  160A  118A  	fcall	_Lcd_Write_String
  1848  17E2                     l4094:
  1849                           
  1850                           ;Mach_encoder_4NN_LCD_PID_Pic16F887_MPlab.c: 310:         nn_ss();
  1851  17E2  160A  158A  26F7  160A  118A  	fcall	_nn_ss
  1852  17E7                     l4096:
  1853                           
  1854                           ;Mach_encoder_4NN_LCD_PID_Pic16F887_MPlab.c: 311:         if(tt_ss==1)
  1855  17E7  037A               	decf	_tt_ss,w
  1856  17E8  047B               	iorwf	_tt_ss+1,w
  1857  17E9  1D03               	btfss	3,2
  1858  17EA  2FEC               	goto	u6561
  1859  17EB  2FED               	goto	u6560
  1860  17EC                     u6561:
  1861  17EC  2D75               	goto	l4018
  1862  17ED                     u6560:
  1863  17ED                     l4098:
  1864                           
  1865                           ;Mach_encoder_4NN_LCD_PID_Pic16F887_MPlab.c: 312:         {;Mach_encoder_4NN_LCD_PID_Pic
      +                          16F887_MPlab.c: 313:            nn_inv();
  1866  17ED  160A  158A  2606  160A  118A  	fcall	_nn_inv
  1867  17F2                     l4100:
  1868                           
  1869                           ;Mach_encoder_4NN_LCD_PID_Pic16F887_MPlab.c: 314:            nn_up();
  1870  17F2  160A  158A  25A8  160A  118A  	fcall	_nn_up
  1871  17F7                     l4102:
  1872                           
  1873                           ;Mach_encoder_4NN_LCD_PID_Pic16F887_MPlab.c: 315:            nn_dw();
  1874  17F7  160A  158A  24B4  160A  118A  	fcall	_nn_dw
  1875  17FC  2D75               	goto	l4018
  1876  17FD  120A  118A  280C   	ljmp	start
  1877  1800                     __end_of_main:
  1878                           
  1879                           	psect	text1
  1880  0027                     __ptext1:	
  1881 ;; *************** function _tinh_pid *****************
  1882 ;; Defined at:
  1883 ;;		line 163 in file "Mach_encoder_4NN_LCD_PID_Pic16F887_MPlab.c"
  1884 ;; Parameters:    Size  Location     Type
  1885 ;;		None
  1886 ;; Auto vars:     Size  Location     Type
  1887 ;;		None
  1888 ;; Return value:  Size  Location     Type
  1889 ;;                  1    wreg      void 
  1890 ;; Registers used:
  1891 ;;		wreg, status,2, status,0, btemp+1, pclath, cstack
  1892 ;; Tracked objects:
  1893 ;;		On entry : 0/0
  1894 ;;		On exit  : 0/0
  1895 ;;		Unchanged: 0/0
  1896 ;; Data sizes:     COMMON   BANK0   BANK1   BANK3   BANK2
  1897 ;;      Params:         0       0       0       0       0
  1898 ;;      Locals:         0       0       0       0      20
  1899 ;;      Temps:          0       0       4       0       0
  1900 ;;      Totals:         0       0       4       0      20
  1901 ;;Total ram usage:       24 bytes
  1902 ;; Hardware stack levels used:    1
  1903 ;; Hardware stack levels required when called:    4
  1904 ;; This function calls:
  1905 ;;		_PWM1_Duty
  1906 ;;		_PWM2_Duty
  1907 ;;		___aldiv
  1908 ;;		___fladd
  1909 ;;		___fldiv
  1910 ;;		___flge
  1911 ;;		___flmul
  1912 ;;		___flsub
  1913 ;;		___fltol
  1914 ;;		___lmul
  1915 ;;		___xxtofl
  1916 ;; This function is called by:
  1917 ;;		_main
  1918 ;; This function uses a non-reentrant model
  1919 ;;
  1920                           
  1921                           
  1922                           ;psect for function _tinh_pid
  1923  0027                     _tinh_pid:
  1924  0027                     l3912:	
  1925                           ;incstack = 0
  1926                           ; Regs used in _tinh_pid: [wreg+status,2+status,0+btemp+1+pclath+cstack]
  1927                           
  1928                           
  1929                           ;Mach_encoder_4NN_LCD_PID_Pic16F887_MPlab.c: 165:     if(tt==1)
  1930  0027  1683               	bsf	3,5	;RP0=1, select bank3
  1931  0028  1703               	bsf	3,6	;RP1=1, select bank3
  1932  0029  035C               	decf	_tt^(0+384),w
  1933  002A  045D               	iorwf	(_tt+1)^(0+384),w
  1934  002B  1D03               	btfss	3,2
  1935  002C  282E               	goto	u6441
  1936  002D  282F               	goto	u6440
  1937  002E                     u6441:
  1938  002E  2F1B               	goto	l3964
  1939  002F                     u6440:
  1940  002F                     l3914:
  1941                           
  1942                           ;Mach_encoder_4NN_LCD_PID_Pic16F887_MPlab.c: 166:     {;Mach_encoder_4NN_LCD_PID_Pic16F8
      +                          87_MPlab.c: 167:         tt=0;
  1943  002F  01DC               	clrf	_tt^(0+384)
  1944  0030  01DD               	clrf	(_tt+1)^(0+384)
  1945  0031                     l3916:
  1946                           
  1947                           ;Mach_encoder_4NN_LCD_PID_Pic16F887_MPlab.c: 168:         td=luu*600/220;
  1948  0031  3000               	movlw	0
  1949  0032  1283               	bcf	3,5	;RP0=0, select bank0
  1950  0033  1303               	bcf	3,6	;RP1=0, select bank0
  1951  0034  00A8               	movwf	___aldiv@divisor+3
  1952  0035  3000               	movlw	0
  1953  0036  00A7               	movwf	___aldiv@divisor+2
  1954  0037  3000               	movlw	0
  1955  0038  00A6               	movwf	___aldiv@divisor+1
  1956  0039  30DC               	movlw	220
  1957  003A  00A5               	movwf	___aldiv@divisor
  1958  003B  1683               	bsf	3,5	;RP0=1, select bank3
  1959  003C  1703               	bsf	3,6	;RP1=1, select bank3
  1960  003D  0853               	movf	(_luu+3)^(0+384),w
  1961  003E  00F5               	movwf	___lmul@multiplier+3
  1962  003F  0852               	movf	(_luu+2)^(0+384),w
  1963  0040  00F4               	movwf	___lmul@multiplier+2
  1964  0041  0851               	movf	(_luu+1)^(0+384),w
  1965  0042  00F3               	movwf	___lmul@multiplier+1
  1966  0043  0850               	movf	_luu^(0+384),w
  1967  0044  00F2               	movwf	___lmul@multiplier
  1968  0045  3000               	movlw	0
  1969  0046  00F9               	movwf	___lmul@multiplicand+3
  1970  0047  3000               	movlw	0
  1971  0048  00F8               	movwf	___lmul@multiplicand+2
  1972  0049  3002               	movlw	2
  1973  004A  00F7               	movwf	___lmul@multiplicand+1
  1974  004B  3058               	movlw	88
  1975  004C  00F6               	movwf	___lmul@multiplicand
  1976  004D  160A  158A  246C  120A  118A  	fcall	___lmul
  1977  0052  0875               	movf	?___lmul+3,w
  1978  0053  1283               	bcf	3,5	;RP0=0, select bank0
  1979  0054  1303               	bcf	3,6	;RP1=0, select bank0
  1980  0055  00AC               	movwf	___aldiv@dividend+3
  1981  0056  0874               	movf	?___lmul+2,w
  1982  0057  00AB               	movwf	___aldiv@dividend+2
  1983  0058  0873               	movf	?___lmul+1,w
  1984  0059  00AA               	movwf	___aldiv@dividend+1
  1985  005A  0872               	movf	?___lmul,w
  1986  005B  00A9               	movwf	___aldiv@dividend
  1987  005C  160A  118A  20E9  120A  118A  	fcall	___aldiv
  1988  0061  1283               	bcf	3,5	;RP0=0, select bank0
  1989  0062  1303               	bcf	3,6	;RP1=0, select bank0
  1990  0063  0828               	movf	?___aldiv+3,w
  1991  0064  1683               	bsf	3,5	;RP0=1, select bank3
  1992  0065  1703               	bsf	3,6	;RP1=1, select bank3
  1993  0066  00CF               	movwf	(_td+3)^(0+384)
  1994  0067  1283               	bcf	3,5	;RP0=0, select bank0
  1995  0068  1303               	bcf	3,6	;RP1=0, select bank0
  1996  0069  0827               	movf	?___aldiv+2,w
  1997  006A  1683               	bsf	3,5	;RP0=1, select bank3
  1998  006B  1703               	bsf	3,6	;RP1=1, select bank3
  1999  006C  00CE               	movwf	(_td+2)^(0+384)
  2000  006D  1283               	bcf	3,5	;RP0=0, select bank0
  2001  006E  1303               	bcf	3,6	;RP1=0, select bank0
  2002  006F  0826               	movf	?___aldiv+1,w
  2003  0070  1683               	bsf	3,5	;RP0=1, select bank3
  2004  0071  1703               	bsf	3,6	;RP1=1, select bank3
  2005  0072  00CD               	movwf	(_td+1)^(0+384)
  2006  0073  1283               	bcf	3,5	;RP0=0, select bank0
  2007  0074  1303               	bcf	3,6	;RP1=0, select bank0
  2008  0075  0825               	movf	?___aldiv,w
  2009  0076  1683               	bsf	3,5	;RP0=1, select bank3
  2010  0077  1703               	bsf	3,6	;RP1=1, select bank3
  2011  0078  00CC               	movwf	_td^(0+384)
  2012  0079                     l3918:
  2013                           
  2014                           ;Mach_encoder_4NN_LCD_PID_Pic16F887_MPlab.c: 169:         xung=0;
  2015  0079  3000               	movlw	0
  2016  007A  00D7               	movwf	(_xung+3)^(0+384)
  2017  007B  3000               	movlw	0
  2018  007C  00D6               	movwf	(_xung+2)^(0+384)
  2019  007D  3000               	movlw	0
  2020  007E  00D5               	movwf	(_xung+1)^(0+384)
  2021  007F  3000               	movlw	0
  2022  0080  00D4               	movwf	_xung^(0+384)
  2023  0081                     l3920:
  2024                           
  2025                           ;Mach_encoder_4NN_LCD_PID_Pic16F887_MPlab.c: 170:         e=dat-td;
  2026  0081  0818               	movf	_dat^(0+384),w
  2027  0082  1683               	bsf	3,5	;RP0=1, select bank1
  2028  0083  1303               	bcf	3,6	;RP1=0, select bank1
  2029  0084  00CF               	movwf	??_tinh_pid^(0+128)
  2030  0085  1683               	bsf	3,5	;RP0=1, select bank3
  2031  0086  1703               	bsf	3,6	;RP1=1, select bank3
  2032  0087  0819               	movf	(_dat+1)^(0+384),w
  2033  0088  1683               	bsf	3,5	;RP0=1, select bank1
  2034  0089  1303               	bcf	3,6	;RP1=0, select bank1
  2035  008A  00D0               	movwf	(??_tinh_pid^(0+128)+1)
  2036  008B  1683               	bsf	3,5	;RP0=1, select bank3
  2037  008C  1703               	bsf	3,6	;RP1=1, select bank3
  2038  008D  081A               	movf	(_dat+2)^(0+384),w
  2039  008E  1683               	bsf	3,5	;RP0=1, select bank1
  2040  008F  1303               	bcf	3,6	;RP1=0, select bank1
  2041  0090  00D1               	movwf	(??_tinh_pid^(0+128)+2)
  2042  0091  1683               	bsf	3,5	;RP0=1, select bank3
  2043  0092  1703               	bsf	3,6	;RP1=1, select bank3
  2044  0093  081B               	movf	(_dat+3)^(0+384),w
  2045  0094  1683               	bsf	3,5	;RP0=1, select bank1
  2046  0095  1303               	bcf	3,6	;RP1=0, select bank1
  2047  0096  00D2               	movwf	(??_tinh_pid^(0+128)+3)
  2048  0097  1683               	bsf	3,5	;RP0=1, select bank3
  2049  0098  1703               	bsf	3,6	;RP1=1, select bank3
  2050  0099  084C               	movf	_td^(0+384),w
  2051  009A  1683               	bsf	3,5	;RP0=1, select bank1
  2052  009B  1303               	bcf	3,6	;RP1=0, select bank1
  2053  009C  02CF               	subwf	??_tinh_pid^(0+128),f
  2054  009D  1683               	bsf	3,5	;RP0=1, select bank3
  2055  009E  1703               	bsf	3,6	;RP1=1, select bank3
  2056  009F  084D               	movf	(_td+1)^(0+384),w
  2057  00A0  1C03               	skipc
  2058  00A1  0F4D               	incfsz	(_td+1)^(0+384),w
  2059  00A2  28A4               	goto	u6451
  2060  00A3  28A7               	goto	u6452
  2061  00A4                     u6451:
  2062  00A4  1683               	bsf	3,5	;RP0=1, select bank1
  2063  00A5  1303               	bcf	3,6	;RP1=0, select bank1
  2064  00A6  02D0               	subwf	(??_tinh_pid^(0+128)+1),f
  2065  00A7                     u6452:
  2066  00A7  1683               	bsf	3,5	;RP0=1, select bank3
  2067  00A8  1703               	bsf	3,6	;RP1=1, select bank3
  2068  00A9  084E               	movf	(_td+2)^(0+384),w
  2069  00AA  1C03               	skipc
  2070  00AB  0F4E               	incfsz	(_td+2)^(0+384),w
  2071  00AC  28AE               	goto	u6453
  2072  00AD  28B1               	goto	u6454
  2073  00AE                     u6453:
  2074  00AE  1683               	bsf	3,5	;RP0=1, select bank1
  2075  00AF  1303               	bcf	3,6	;RP1=0, select bank1
  2076  00B0  02D1               	subwf	(??_tinh_pid^(0+128)+2),f
  2077  00B1                     u6454:
  2078  00B1  1683               	bsf	3,5	;RP0=1, select bank3
  2079  00B2  1703               	bsf	3,6	;RP1=1, select bank3
  2080  00B3  084F               	movf	(_td+3)^(0+384),w
  2081  00B4  1C03               	skipc
  2082  00B5  0F4F               	incfsz	(_td+3)^(0+384),w
  2083  00B6  28B8               	goto	u6455
  2084  00B7  28BB               	goto	u6456
  2085  00B8                     u6455:
  2086  00B8  1683               	bsf	3,5	;RP0=1, select bank1
  2087  00B9  1303               	bcf	3,6	;RP1=0, select bank1
  2088  00BA  02D2               	subwf	(??_tinh_pid^(0+128)+3),f
  2089  00BB                     u6456:
  2090  00BB  1683               	bsf	3,5	;RP0=1, select bank3
  2091  00BC  1703               	bsf	3,6	;RP1=1, select bank3
  2092  00BD  1683               	bsf	3,5	;RP0=1, select bank1
  2093  00BE  1303               	bcf	3,6	;RP1=0, select bank1
  2094  00BF  0852               	movf	(??_tinh_pid+3)^(0+128),w
  2095  00C0  1283               	bcf	3,5	;RP0=0, select bank0
  2096  00C1  1303               	bcf	3,6	;RP1=0, select bank0
  2097  00C2  00BD               	movwf	___xxtofl@val+3
  2098  00C3  1683               	bsf	3,5	;RP0=1, select bank1
  2099  00C4  1303               	bcf	3,6	;RP1=0, select bank1
  2100  00C5  0851               	movf	(??_tinh_pid+2)^(0+128),w
  2101  00C6  1283               	bcf	3,5	;RP0=0, select bank0
  2102  00C7  1303               	bcf	3,6	;RP1=0, select bank0
  2103  00C8  00BC               	movwf	___xxtofl@val+2
  2104  00C9  1683               	bsf	3,5	;RP0=1, select bank1
  2105  00CA  1303               	bcf	3,6	;RP1=0, select bank1
  2106  00CB  0850               	movf	(??_tinh_pid+1)^(0+128),w
  2107  00CC  1283               	bcf	3,5	;RP0=0, select bank0
  2108  00CD  1303               	bcf	3,6	;RP1=0, select bank0
  2109  00CE  00BB               	movwf	___xxtofl@val+1
  2110  00CF  1683               	bsf	3,5	;RP0=1, select bank1
  2111  00D0  1303               	bcf	3,6	;RP1=0, select bank1
  2112  00D1  084F               	movf	??_tinh_pid^(0+128),w
  2113  00D2  1283               	bcf	3,5	;RP0=0, select bank0
  2114  00D3  1303               	bcf	3,6	;RP1=0, select bank0
  2115  00D4  00BA               	movwf	___xxtofl@val
  2116  00D5  3001               	movlw	1
  2117  00D6  160A  118A  222A  120A  118A  	fcall	___xxtofl
  2118  00DB  1283               	bcf	3,5	;RP0=0, select bank0
  2119  00DC  1303               	bcf	3,6	;RP1=0, select bank0
  2120  00DD  083D               	movf	?___xxtofl+3,w
  2121  00DE  1683               	bsf	3,5	;RP0=1, select bank3
  2122  00DF  1703               	bsf	3,6	;RP1=1, select bank3
  2123  00E0  00C3               	movwf	(_e+3)^(0+384)
  2124  00E1  1283               	bcf	3,5	;RP0=0, select bank0
  2125  00E2  1303               	bcf	3,6	;RP1=0, select bank0
  2126  00E3  083C               	movf	?___xxtofl+2,w
  2127  00E4  1683               	bsf	3,5	;RP0=1, select bank3
  2128  00E5  1703               	bsf	3,6	;RP1=1, select bank3
  2129  00E6  00C2               	movwf	(_e+2)^(0+384)
  2130  00E7  1283               	bcf	3,5	;RP0=0, select bank0
  2131  00E8  1303               	bcf	3,6	;RP1=0, select bank0
  2132  00E9  083B               	movf	?___xxtofl+1,w
  2133  00EA  1683               	bsf	3,5	;RP0=1, select bank3
  2134  00EB  1703               	bsf	3,6	;RP1=1, select bank3
  2135  00EC  00C1               	movwf	(_e+1)^(0+384)
  2136  00ED  1283               	bcf	3,5	;RP0=0, select bank0
  2137  00EE  1303               	bcf	3,6	;RP1=0, select bank0
  2138  00EF  083A               	movf	?___xxtofl,w
  2139  00F0  1683               	bsf	3,5	;RP0=1, select bank3
  2140  00F1  1703               	bsf	3,6	;RP1=1, select bank3
  2141  00F2  00C0               	movwf	_e^(0+384)
  2142  00F3                     l3922:
  2143                           
  2144                           ;Mach_encoder_4NN_LCD_PID_Pic16F887_MPlab.c: 171:         a=2*t*kp+ki*t*t+2*kd;
  2145  00F3  1683               	bsf	3,5	;RP0=1, select bank1
  2146  00F4  1303               	bcf	3,6	;RP1=0, select bank1
  2147  00F5  085D               	movf	(_t+3)^(0+128),w
  2148  00F6  1283               	bcf	3,5	;RP0=0, select bank0
  2149  00F7  1303               	bcf	3,6	;RP1=0, select bank0
  2150  00F8  00CB               	movwf	___flmul@b+3
  2151  00F9  1683               	bsf	3,5	;RP0=1, select bank1
  2152  00FA  1303               	bcf	3,6	;RP1=0, select bank1
  2153  00FB  085C               	movf	(_t+2)^(0+128),w
  2154  00FC  1283               	bcf	3,5	;RP0=0, select bank0
  2155  00FD  1303               	bcf	3,6	;RP1=0, select bank0
  2156  00FE  00CA               	movwf	___flmul@b+2
  2157  00FF  1683               	bsf	3,5	;RP0=1, select bank1
  2158  0100  1303               	bcf	3,6	;RP1=0, select bank1
  2159  0101  085B               	movf	(_t+1)^(0+128),w
  2160  0102  1283               	bcf	3,5	;RP0=0, select bank0
  2161  0103  1303               	bcf	3,6	;RP1=0, select bank0
  2162  0104  00C9               	movwf	___flmul@b+1
  2163  0105  1683               	bsf	3,5	;RP0=1, select bank1
  2164  0106  1303               	bcf	3,6	;RP1=0, select bank1
  2165  0107  085A               	movf	_t^(0+128),w
  2166  0108  1283               	bcf	3,5	;RP0=0, select bank0
  2167  0109  1303               	bcf	3,6	;RP1=0, select bank0
  2168  010A  00C8               	movwf	___flmul@b
  2169  010B  1683               	bsf	3,5	;RP0=1, select bank3
  2170  010C  1703               	bsf	3,6	;RP1=1, select bank3
  2171  010D  0827               	movf	(_ki+3)^(0+384),w
  2172  010E  1283               	bcf	3,5	;RP0=0, select bank0
  2173  010F  1303               	bcf	3,6	;RP1=0, select bank0
  2174  0110  00CF               	movwf	___flmul@a+3
  2175  0111  1683               	bsf	3,5	;RP0=1, select bank3
  2176  0112  1703               	bsf	3,6	;RP1=1, select bank3
  2177  0113  0826               	movf	(_ki+2)^(0+384),w
  2178  0114  1283               	bcf	3,5	;RP0=0, select bank0
  2179  0115  1303               	bcf	3,6	;RP1=0, select bank0
  2180  0116  00CE               	movwf	___flmul@a+2
  2181  0117  1683               	bsf	3,5	;RP0=1, select bank3
  2182  0118  1703               	bsf	3,6	;RP1=1, select bank3
  2183  0119  0825               	movf	(_ki+1)^(0+384),w
  2184  011A  1283               	bcf	3,5	;RP0=0, select bank0
  2185  011B  1303               	bcf	3,6	;RP1=0, select bank0
  2186  011C  00CD               	movwf	___flmul@a+1
  2187  011D  1683               	bsf	3,5	;RP0=1, select bank3
  2188  011E  1703               	bsf	3,6	;RP1=1, select bank3
  2189  011F  0824               	movf	_ki^(0+384),w
  2190  0120  1283               	bcf	3,5	;RP0=0, select bank0
  2191  0121  1303               	bcf	3,6	;RP1=0, select bank0
  2192  0122  00CC               	movwf	___flmul@a
  2193  0123  120A  158A  2139  120A  118A  	fcall	___flmul
  2194  0128  1283               	bcf	3,5	;RP0=0, select bank0
  2195  0129  1303               	bcf	3,6	;RP1=0, select bank0
  2196  012A  084B               	movf	?___flmul+3,w
  2197  012B  1283               	bcf	3,5	;RP0=0, select bank2
  2198  012C  1703               	bsf	3,6	;RP1=1, select bank2
  2199  012D  00A3               	movwf	(_tinh_pid$920+3)^(0+256)
  2200  012E  1283               	bcf	3,5	;RP0=0, select bank0
  2201  012F  1303               	bcf	3,6	;RP1=0, select bank0
  2202  0130  084A               	movf	?___flmul+2,w
  2203  0131  1283               	bcf	3,5	;RP0=0, select bank2
  2204  0132  1703               	bsf	3,6	;RP1=1, select bank2
  2205  0133  00A2               	movwf	(_tinh_pid$920+2)^(0+256)
  2206  0134  1283               	bcf	3,5	;RP0=0, select bank0
  2207  0135  1303               	bcf	3,6	;RP1=0, select bank0
  2208  0136  0849               	movf	?___flmul+1,w
  2209  0137  1283               	bcf	3,5	;RP0=0, select bank2
  2210  0138  1703               	bsf	3,6	;RP1=1, select bank2
  2211  0139  00A1               	movwf	(_tinh_pid$920+1)^(0+256)
  2212  013A  1283               	bcf	3,5	;RP0=0, select bank0
  2213  013B  1303               	bcf	3,6	;RP1=0, select bank0
  2214  013C  0848               	movf	?___flmul,w
  2215  013D  1283               	bcf	3,5	;RP0=0, select bank2
  2216  013E  1703               	bsf	3,6	;RP1=1, select bank2
  2217  013F  00A0               	movwf	_tinh_pid$920^(0+256)
  2218  0140                     l3924:
  2219                           
  2220                           ;Mach_encoder_4NN_LCD_PID_Pic16F887_MPlab.c: 171:         a=2*t*kp+ki*t*t+2*kd;
  2221  0140  3040               	movlw	64
  2222  0141  1283               	bcf	3,5	;RP0=0, select bank0
  2223  0142  1303               	bcf	3,6	;RP1=0, select bank0
  2224  0143  00CB               	movwf	___flmul@b+3
  2225  0144  3000               	movlw	0
  2226  0145  00CA               	movwf	___flmul@b+2
  2227  0146  3000               	movlw	0
  2228  0147  00C9               	movwf	___flmul@b+1
  2229  0148  3000               	movlw	0
  2230  0149  00C8               	movwf	___flmul@b
  2231  014A  1683               	bsf	3,5	;RP0=1, select bank1
  2232  014B  1303               	bcf	3,6	;RP1=0, select bank1
  2233  014C  085D               	movf	(_t+3)^(0+128),w
  2234  014D  1283               	bcf	3,5	;RP0=0, select bank0
  2235  014E  1303               	bcf	3,6	;RP1=0, select bank0
  2236  014F  00CF               	movwf	___flmul@a+3
  2237  0150  1683               	bsf	3,5	;RP0=1, select bank1
  2238  0151  1303               	bcf	3,6	;RP1=0, select bank1
  2239  0152  085C               	movf	(_t+2)^(0+128),w
  2240  0153  1283               	bcf	3,5	;RP0=0, select bank0
  2241  0154  1303               	bcf	3,6	;RP1=0, select bank0
  2242  0155  00CE               	movwf	___flmul@a+2
  2243  0156  1683               	bsf	3,5	;RP0=1, select bank1
  2244  0157  1303               	bcf	3,6	;RP1=0, select bank1
  2245  0158  085B               	movf	(_t+1)^(0+128),w
  2246  0159  1283               	bcf	3,5	;RP0=0, select bank0
  2247  015A  1303               	bcf	3,6	;RP1=0, select bank0
  2248  015B  00CD               	movwf	___flmul@a+1
  2249  015C  1683               	bsf	3,5	;RP0=1, select bank1
  2250  015D  1303               	bcf	3,6	;RP1=0, select bank1
  2251  015E  085A               	movf	_t^(0+128),w
  2252  015F  1283               	bcf	3,5	;RP0=0, select bank0
  2253  0160  1303               	bcf	3,6	;RP1=0, select bank0
  2254  0161  00CC               	movwf	___flmul@a
  2255  0162  120A  158A  2139  120A  118A  	fcall	___flmul
  2256  0167  1283               	bcf	3,5	;RP0=0, select bank0
  2257  0168  1303               	bcf	3,6	;RP1=0, select bank0
  2258  0169  084B               	movf	?___flmul+3,w
  2259  016A  1283               	bcf	3,5	;RP0=0, select bank2
  2260  016B  1703               	bsf	3,6	;RP1=1, select bank2
  2261  016C  009B               	movwf	(_tinh_pid$921+3)^(0+256)
  2262  016D  1283               	bcf	3,5	;RP0=0, select bank0
  2263  016E  1303               	bcf	3,6	;RP1=0, select bank0
  2264  016F  084A               	movf	?___flmul+2,w
  2265  0170  1283               	bcf	3,5	;RP0=0, select bank2
  2266  0171  1703               	bsf	3,6	;RP1=1, select bank2
  2267  0172  009A               	movwf	(_tinh_pid$921+2)^(0+256)
  2268  0173  1283               	bcf	3,5	;RP0=0, select bank0
  2269  0174  1303               	bcf	3,6	;RP1=0, select bank0
  2270  0175  0849               	movf	?___flmul+1,w
  2271  0176  1283               	bcf	3,5	;RP0=0, select bank2
  2272  0177  1703               	bsf	3,6	;RP1=1, select bank2
  2273  0178  0099               	movwf	(_tinh_pid$921+1)^(0+256)
  2274  0179  1283               	bcf	3,5	;RP0=0, select bank0
  2275  017A  1303               	bcf	3,6	;RP1=0, select bank0
  2276  017B  0848               	movf	?___flmul,w
  2277  017C  1283               	bcf	3,5	;RP0=0, select bank2
  2278  017D  1703               	bsf	3,6	;RP1=1, select bank2
  2279  017E  0098               	movwf	_tinh_pid$921^(0+256)
  2280  017F                     l3926:
  2281                           
  2282                           ;Mach_encoder_4NN_LCD_PID_Pic16F887_MPlab.c: 171:         a=2*t*kp+ki*t*t+2*kd;
  2283  017F  1683               	bsf	3,5	;RP0=1, select bank1
  2284  0180  1303               	bcf	3,6	;RP1=0, select bank1
  2285  0181  085D               	movf	(_t+3)^(0+128),w
  2286  0182  1283               	bcf	3,5	;RP0=0, select bank0
  2287  0183  1303               	bcf	3,6	;RP1=0, select bank0
  2288  0184  00CB               	movwf	___flmul@b+3
  2289  0185  1683               	bsf	3,5	;RP0=1, select bank1
  2290  0186  1303               	bcf	3,6	;RP1=0, select bank1
  2291  0187  085C               	movf	(_t+2)^(0+128),w
  2292  0188  1283               	bcf	3,5	;RP0=0, select bank0
  2293  0189  1303               	bcf	3,6	;RP1=0, select bank0
  2294  018A  00CA               	movwf	___flmul@b+2
  2295  018B  1683               	bsf	3,5	;RP0=1, select bank1
  2296  018C  1303               	bcf	3,6	;RP1=0, select bank1
  2297  018D  085B               	movf	(_t+1)^(0+128),w
  2298  018E  1283               	bcf	3,5	;RP0=0, select bank0
  2299  018F  1303               	bcf	3,6	;RP1=0, select bank0
  2300  0190  00C9               	movwf	___flmul@b+1
  2301  0191  1683               	bsf	3,5	;RP0=1, select bank1
  2302  0192  1303               	bcf	3,6	;RP1=0, select bank1
  2303  0193  085A               	movf	_t^(0+128),w
  2304  0194  1283               	bcf	3,5	;RP0=0, select bank0
  2305  0195  1303               	bcf	3,6	;RP1=0, select bank0
  2306  0196  00C8               	movwf	___flmul@b
  2307  0197  1283               	bcf	3,5	;RP0=0, select bank2
  2308  0198  1703               	bsf	3,6	;RP1=1, select bank2
  2309  0199  0823               	movf	(_tinh_pid$920+3)^(0+256),w
  2310  019A  1283               	bcf	3,5	;RP0=0, select bank0
  2311  019B  1303               	bcf	3,6	;RP1=0, select bank0
  2312  019C  00CF               	movwf	___flmul@a+3
  2313  019D  1283               	bcf	3,5	;RP0=0, select bank2
  2314  019E  1703               	bsf	3,6	;RP1=1, select bank2
  2315  019F  0822               	movf	(_tinh_pid$920+2)^(0+256),w
  2316  01A0  1283               	bcf	3,5	;RP0=0, select bank0
  2317  01A1  1303               	bcf	3,6	;RP1=0, select bank0
  2318  01A2  00CE               	movwf	___flmul@a+2
  2319  01A3  1283               	bcf	3,5	;RP0=0, select bank2
  2320  01A4  1703               	bsf	3,6	;RP1=1, select bank2
  2321  01A5  0821               	movf	(_tinh_pid$920+1)^(0+256),w
  2322  01A6  1283               	bcf	3,5	;RP0=0, select bank0
  2323  01A7  1303               	bcf	3,6	;RP1=0, select bank0
  2324  01A8  00CD               	movwf	___flmul@a+1
  2325  01A9  1283               	bcf	3,5	;RP0=0, select bank2
  2326  01AA  1703               	bsf	3,6	;RP1=1, select bank2
  2327  01AB  0820               	movf	_tinh_pid$920^(0+256),w
  2328  01AC  1283               	bcf	3,5	;RP0=0, select bank0
  2329  01AD  1303               	bcf	3,6	;RP1=0, select bank0
  2330  01AE  00CC               	movwf	___flmul@a
  2331  01AF  120A  158A  2139  120A  118A  	fcall	___flmul
  2332  01B4  1283               	bcf	3,5	;RP0=0, select bank0
  2333  01B5  1303               	bcf	3,6	;RP1=0, select bank0
  2334  01B6  084B               	movf	?___flmul+3,w
  2335  01B7  00E5               	movwf	___fladd@b+3
  2336  01B8  084A               	movf	?___flmul+2,w
  2337  01B9  00E4               	movwf	___fladd@b+2
  2338  01BA  0849               	movf	?___flmul+1,w
  2339  01BB  00E3               	movwf	___fladd@b+1
  2340  01BC  0848               	movf	?___flmul,w
  2341  01BD  00E2               	movwf	___fladd@b
  2342  01BE  1683               	bsf	3,5	;RP0=1, select bank3
  2343  01BF  1703               	bsf	3,6	;RP1=1, select bank3
  2344  01C0  082B               	movf	(_kp+3)^(0+384),w
  2345  01C1  1283               	bcf	3,5	;RP0=0, select bank0
  2346  01C2  1303               	bcf	3,6	;RP1=0, select bank0
  2347  01C3  00CB               	movwf	___flmul@b+3
  2348  01C4  1683               	bsf	3,5	;RP0=1, select bank3
  2349  01C5  1703               	bsf	3,6	;RP1=1, select bank3
  2350  01C6  082A               	movf	(_kp+2)^(0+384),w
  2351  01C7  1283               	bcf	3,5	;RP0=0, select bank0
  2352  01C8  1303               	bcf	3,6	;RP1=0, select bank0
  2353  01C9  00CA               	movwf	___flmul@b+2
  2354  01CA  1683               	bsf	3,5	;RP0=1, select bank3
  2355  01CB  1703               	bsf	3,6	;RP1=1, select bank3
  2356  01CC  0829               	movf	(_kp+1)^(0+384),w
  2357  01CD  1283               	bcf	3,5	;RP0=0, select bank0
  2358  01CE  1303               	bcf	3,6	;RP1=0, select bank0
  2359  01CF  00C9               	movwf	___flmul@b+1
  2360  01D0  1683               	bsf	3,5	;RP0=1, select bank3
  2361  01D1  1703               	bsf	3,6	;RP1=1, select bank3
  2362  01D2  0828               	movf	_kp^(0+384),w
  2363  01D3  1283               	bcf	3,5	;RP0=0, select bank0
  2364  01D4  1303               	bcf	3,6	;RP1=0, select bank0
  2365  01D5  00C8               	movwf	___flmul@b
  2366  01D6  1283               	bcf	3,5	;RP0=0, select bank2
  2367  01D7  1703               	bsf	3,6	;RP1=1, select bank2
  2368  01D8  081B               	movf	(_tinh_pid$921+3)^(0+256),w
  2369  01D9  1283               	bcf	3,5	;RP0=0, select bank0
  2370  01DA  1303               	bcf	3,6	;RP1=0, select bank0
  2371  01DB  00CF               	movwf	___flmul@a+3
  2372  01DC  1283               	bcf	3,5	;RP0=0, select bank2
  2373  01DD  1703               	bsf	3,6	;RP1=1, select bank2
  2374  01DE  081A               	movf	(_tinh_pid$921+2)^(0+256),w
  2375  01DF  1283               	bcf	3,5	;RP0=0, select bank0
  2376  01E0  1303               	bcf	3,6	;RP1=0, select bank0
  2377  01E1  00CE               	movwf	___flmul@a+2
  2378  01E2  1283               	bcf	3,5	;RP0=0, select bank2
  2379  01E3  1703               	bsf	3,6	;RP1=1, select bank2
  2380  01E4  0819               	movf	(_tinh_pid$921+1)^(0+256),w
  2381  01E5  1283               	bcf	3,5	;RP0=0, select bank0
  2382  01E6  1303               	bcf	3,6	;RP1=0, select bank0
  2383  01E7  00CD               	movwf	___flmul@a+1
  2384  01E8  1283               	bcf	3,5	;RP0=0, select bank2
  2385  01E9  1703               	bsf	3,6	;RP1=1, select bank2
  2386  01EA  0818               	movf	_tinh_pid$921^(0+256),w
  2387  01EB  1283               	bcf	3,5	;RP0=0, select bank0
  2388  01EC  1303               	bcf	3,6	;RP1=0, select bank0
  2389  01ED  00CC               	movwf	___flmul@a
  2390  01EE  120A  158A  2139  120A  118A  	fcall	___flmul
  2391  01F3  1283               	bcf	3,5	;RP0=0, select bank0
  2392  01F4  1303               	bcf	3,6	;RP1=0, select bank0
  2393  01F5  084B               	movf	?___flmul+3,w
  2394  01F6  00E9               	movwf	___fladd@a+3
  2395  01F7  084A               	movf	?___flmul+2,w
  2396  01F8  00E8               	movwf	___fladd@a+2
  2397  01F9  0849               	movf	?___flmul+1,w
  2398  01FA  00E7               	movwf	___fladd@a+1
  2399  01FB  0848               	movf	?___flmul,w
  2400  01FC  00E6               	movwf	___fladd@a
  2401  01FD  120A  158A  249A  120A  118A  	fcall	___fladd
  2402  0202  1283               	bcf	3,5	;RP0=0, select bank0
  2403  0203  1303               	bcf	3,6	;RP1=0, select bank0
  2404  0204  0865               	movf	?___fladd+3,w
  2405  0205  1283               	bcf	3,5	;RP0=0, select bank2
  2406  0206  1703               	bsf	3,6	;RP1=1, select bank2
  2407  0207  009F               	movwf	(_tinh_pid$922+3)^(0+256)
  2408  0208  1283               	bcf	3,5	;RP0=0, select bank0
  2409  0209  1303               	bcf	3,6	;RP1=0, select bank0
  2410  020A  0864               	movf	?___fladd+2,w
  2411  020B  1283               	bcf	3,5	;RP0=0, select bank2
  2412  020C  1703               	bsf	3,6	;RP1=1, select bank2
  2413  020D  009E               	movwf	(_tinh_pid$922+2)^(0+256)
  2414  020E  1283               	bcf	3,5	;RP0=0, select bank0
  2415  020F  1303               	bcf	3,6	;RP1=0, select bank0
  2416  0210  0863               	movf	?___fladd+1,w
  2417  0211  1283               	bcf	3,5	;RP0=0, select bank2
  2418  0212  1703               	bsf	3,6	;RP1=1, select bank2
  2419  0213  009D               	movwf	(_tinh_pid$922+1)^(0+256)
  2420  0214  1283               	bcf	3,5	;RP0=0, select bank0
  2421  0215  1303               	bcf	3,6	;RP1=0, select bank0
  2422  0216  0862               	movf	?___fladd,w
  2423  0217  1283               	bcf	3,5	;RP0=0, select bank2
  2424  0218  1703               	bsf	3,6	;RP1=1, select bank2
  2425  0219  009C               	movwf	_tinh_pid$922^(0+256)
  2426  021A                     l3928:
  2427                           
  2428                           ;Mach_encoder_4NN_LCD_PID_Pic16F887_MPlab.c: 171:         a=2*t*kp+ki*t*t+2*kd;
  2429  021A  3040               	movlw	64
  2430  021B  1283               	bcf	3,5	;RP0=0, select bank0
  2431  021C  1303               	bcf	3,6	;RP1=0, select bank0
  2432  021D  00CB               	movwf	___flmul@b+3
  2433  021E  3000               	movlw	0
  2434  021F  00CA               	movwf	___flmul@b+2
  2435  0220  3000               	movlw	0
  2436  0221  00C9               	movwf	___flmul@b+1
  2437  0222  3000               	movlw	0
  2438  0223  00C8               	movwf	___flmul@b
  2439  0224  1683               	bsf	3,5	;RP0=1, select bank3
  2440  0225  1703               	bsf	3,6	;RP1=1, select bank3
  2441  0226  0861               	movf	(_kd+3)^(0+384),w
  2442  0227  1283               	bcf	3,5	;RP0=0, select bank0
  2443  0228  1303               	bcf	3,6	;RP1=0, select bank0
  2444  0229  00CF               	movwf	___flmul@a+3
  2445  022A  1683               	bsf	3,5	;RP0=1, select bank3
  2446  022B  1703               	bsf	3,6	;RP1=1, select bank3
  2447  022C  0860               	movf	(_kd+2)^(0+384),w
  2448  022D  1283               	bcf	3,5	;RP0=0, select bank0
  2449  022E  1303               	bcf	3,6	;RP1=0, select bank0
  2450  022F  00CE               	movwf	___flmul@a+2
  2451  0230  1683               	bsf	3,5	;RP0=1, select bank3
  2452  0231  1703               	bsf	3,6	;RP1=1, select bank3
  2453  0232  085F               	movf	(_kd+1)^(0+384),w
  2454  0233  1283               	bcf	3,5	;RP0=0, select bank0
  2455  0234  1303               	bcf	3,6	;RP1=0, select bank0
  2456  0235  00CD               	movwf	___flmul@a+1
  2457  0236  1683               	bsf	3,5	;RP0=1, select bank3
  2458  0237  1703               	bsf	3,6	;RP1=1, select bank3
  2459  0238  085E               	movf	_kd^(0+384),w
  2460  0239  1283               	bcf	3,5	;RP0=0, select bank0
  2461  023A  1303               	bcf	3,6	;RP1=0, select bank0
  2462  023B  00CC               	movwf	___flmul@a
  2463  023C  120A  158A  2139  120A  118A  	fcall	___flmul
  2464  0241  1283               	bcf	3,5	;RP0=0, select bank0
  2465  0242  1303               	bcf	3,6	;RP1=0, select bank0
  2466  0243  084B               	movf	?___flmul+3,w
  2467  0244  00E5               	movwf	___fladd@b+3
  2468  0245  084A               	movf	?___flmul+2,w
  2469  0246  00E4               	movwf	___fladd@b+2
  2470  0247  0849               	movf	?___flmul+1,w
  2471  0248  00E3               	movwf	___fladd@b+1
  2472  0249  0848               	movf	?___flmul,w
  2473  024A  00E2               	movwf	___fladd@b
  2474  024B  1283               	bcf	3,5	;RP0=0, select bank2
  2475  024C  1703               	bsf	3,6	;RP1=1, select bank2
  2476  024D  081F               	movf	(_tinh_pid$922+3)^(0+256),w
  2477  024E  1283               	bcf	3,5	;RP0=0, select bank0
  2478  024F  1303               	bcf	3,6	;RP1=0, select bank0
  2479  0250  00E9               	movwf	___fladd@a+3
  2480  0251  1283               	bcf	3,5	;RP0=0, select bank2
  2481  0252  1703               	bsf	3,6	;RP1=1, select bank2
  2482  0253  081E               	movf	(_tinh_pid$922+2)^(0+256),w
  2483  0254  1283               	bcf	3,5	;RP0=0, select bank0
  2484  0255  1303               	bcf	3,6	;RP1=0, select bank0
  2485  0256  00E8               	movwf	___fladd@a+2
  2486  0257  1283               	bcf	3,5	;RP0=0, select bank2
  2487  0258  1703               	bsf	3,6	;RP1=1, select bank2
  2488  0259  081D               	movf	(_tinh_pid$922+1)^(0+256),w
  2489  025A  1283               	bcf	3,5	;RP0=0, select bank0
  2490  025B  1303               	bcf	3,6	;RP1=0, select bank0
  2491  025C  00E7               	movwf	___fladd@a+1
  2492  025D  1283               	bcf	3,5	;RP0=0, select bank2
  2493  025E  1703               	bsf	3,6	;RP1=1, select bank2
  2494  025F  081C               	movf	_tinh_pid$922^(0+256),w
  2495  0260  1283               	bcf	3,5	;RP0=0, select bank0
  2496  0261  1303               	bcf	3,6	;RP1=0, select bank0
  2497  0262  00E6               	movwf	___fladd@a
  2498  0263  120A  158A  249A  120A  118A  	fcall	___fladd
  2499  0268  1283               	bcf	3,5	;RP0=0, select bank0
  2500  0269  1303               	bcf	3,6	;RP1=0, select bank0
  2501  026A  0865               	movf	?___fladd+3,w
  2502  026B  1683               	bsf	3,5	;RP0=1, select bank3
  2503  026C  1703               	bsf	3,6	;RP1=1, select bank3
  2504  026D  00B7               	movwf	(_a+3)^(0+384)
  2505  026E  1283               	bcf	3,5	;RP0=0, select bank0
  2506  026F  1303               	bcf	3,6	;RP1=0, select bank0
  2507  0270  0864               	movf	?___fladd+2,w
  2508  0271  1683               	bsf	3,5	;RP0=1, select bank3
  2509  0272  1703               	bsf	3,6	;RP1=1, select bank3
  2510  0273  00B6               	movwf	(_a+2)^(0+384)
  2511  0274  1283               	bcf	3,5	;RP0=0, select bank0
  2512  0275  1303               	bcf	3,6	;RP1=0, select bank0
  2513  0276  0863               	movf	?___fladd+1,w
  2514  0277  1683               	bsf	3,5	;RP0=1, select bank3
  2515  0278  1703               	bsf	3,6	;RP1=1, select bank3
  2516  0279  00B5               	movwf	(_a+1)^(0+384)
  2517  027A  1283               	bcf	3,5	;RP0=0, select bank0
  2518  027B  1303               	bcf	3,6	;RP1=0, select bank0
  2519  027C  0862               	movf	?___fladd,w
  2520  027D  1683               	bsf	3,5	;RP0=1, select bank3
  2521  027E  1703               	bsf	3,6	;RP1=1, select bank3
  2522  027F  00B4               	movwf	_a^(0+384)
  2523  0280                     l3930:
  2524                           
  2525                           ;Mach_encoder_4NN_LCD_PID_Pic16F887_MPlab.c: 172:         b=t*t*ki-4*kd-2*t*kp;
  2526  0280  3040               	movlw	64
  2527  0281  1283               	bcf	3,5	;RP0=0, select bank0
  2528  0282  1303               	bcf	3,6	;RP1=0, select bank0
  2529  0283  00CB               	movwf	___flmul@b+3
  2530  0284  3000               	movlw	0
  2531  0285  00CA               	movwf	___flmul@b+2
  2532  0286  3000               	movlw	0
  2533  0287  00C9               	movwf	___flmul@b+1
  2534  0288  3000               	movlw	0
  2535  0289  00C8               	movwf	___flmul@b
  2536  028A  1683               	bsf	3,5	;RP0=1, select bank1
  2537  028B  1303               	bcf	3,6	;RP1=0, select bank1
  2538  028C  085D               	movf	(_t+3)^(0+128),w
  2539  028D  1283               	bcf	3,5	;RP0=0, select bank0
  2540  028E  1303               	bcf	3,6	;RP1=0, select bank0
  2541  028F  00CF               	movwf	___flmul@a+3
  2542  0290  1683               	bsf	3,5	;RP0=1, select bank1
  2543  0291  1303               	bcf	3,6	;RP1=0, select bank1
  2544  0292  085C               	movf	(_t+2)^(0+128),w
  2545  0293  1283               	bcf	3,5	;RP0=0, select bank0
  2546  0294  1303               	bcf	3,6	;RP1=0, select bank0
  2547  0295  00CE               	movwf	___flmul@a+2
  2548  0296  1683               	bsf	3,5	;RP0=1, select bank1
  2549  0297  1303               	bcf	3,6	;RP1=0, select bank1
  2550  0298  085B               	movf	(_t+1)^(0+128),w
  2551  0299  1283               	bcf	3,5	;RP0=0, select bank0
  2552  029A  1303               	bcf	3,6	;RP1=0, select bank0
  2553  029B  00CD               	movwf	___flmul@a+1
  2554  029C  1683               	bsf	3,5	;RP0=1, select bank1
  2555  029D  1303               	bcf	3,6	;RP1=0, select bank1
  2556  029E  085A               	movf	_t^(0+128),w
  2557  029F  1283               	bcf	3,5	;RP0=0, select bank0
  2558  02A0  1303               	bcf	3,6	;RP1=0, select bank0
  2559  02A1  00CC               	movwf	___flmul@a
  2560  02A2  120A  158A  2139  120A  118A  	fcall	___flmul
  2561  02A7  1283               	bcf	3,5	;RP0=0, select bank0
  2562  02A8  1303               	bcf	3,6	;RP1=0, select bank0
  2563  02A9  084B               	movf	?___flmul+3,w
  2564  02AA  1283               	bcf	3,5	;RP0=0, select bank2
  2565  02AB  1703               	bsf	3,6	;RP1=1, select bank2
  2566  02AC  00A3               	movwf	(_tinh_pid$920+3)^(0+256)
  2567  02AD  1283               	bcf	3,5	;RP0=0, select bank0
  2568  02AE  1303               	bcf	3,6	;RP1=0, select bank0
  2569  02AF  084A               	movf	?___flmul+2,w
  2570  02B0  1283               	bcf	3,5	;RP0=0, select bank2
  2571  02B1  1703               	bsf	3,6	;RP1=1, select bank2
  2572  02B2  00A2               	movwf	(_tinh_pid$920+2)^(0+256)
  2573  02B3  1283               	bcf	3,5	;RP0=0, select bank0
  2574  02B4  1303               	bcf	3,6	;RP1=0, select bank0
  2575  02B5  0849               	movf	?___flmul+1,w
  2576  02B6  1283               	bcf	3,5	;RP0=0, select bank2
  2577  02B7  1703               	bsf	3,6	;RP1=1, select bank2
  2578  02B8  00A1               	movwf	(_tinh_pid$920+1)^(0+256)
  2579  02B9  1283               	bcf	3,5	;RP0=0, select bank0
  2580  02BA  1303               	bcf	3,6	;RP1=0, select bank0
  2581  02BB  0848               	movf	?___flmul,w
  2582  02BC  1283               	bcf	3,5	;RP0=0, select bank2
  2583  02BD  1703               	bsf	3,6	;RP1=1, select bank2
  2584  02BE  00A0               	movwf	_tinh_pid$920^(0+256)
  2585  02BF                     l3932:
  2586                           
  2587                           ;Mach_encoder_4NN_LCD_PID_Pic16F887_MPlab.c: 172:         b=t*t*ki-4*kd-2*t*kp;
  2588  02BF  1683               	bsf	3,5	;RP0=1, select bank1
  2589  02C0  1303               	bcf	3,6	;RP1=0, select bank1
  2590  02C1  085D               	movf	(_t+3)^(0+128),w
  2591  02C2  1283               	bcf	3,5	;RP0=0, select bank0
  2592  02C3  1303               	bcf	3,6	;RP1=0, select bank0
  2593  02C4  00CB               	movwf	___flmul@b+3
  2594  02C5  1683               	bsf	3,5	;RP0=1, select bank1
  2595  02C6  1303               	bcf	3,6	;RP1=0, select bank1
  2596  02C7  085C               	movf	(_t+2)^(0+128),w
  2597  02C8  1283               	bcf	3,5	;RP0=0, select bank0
  2598  02C9  1303               	bcf	3,6	;RP1=0, select bank0
  2599  02CA  00CA               	movwf	___flmul@b+2
  2600  02CB  1683               	bsf	3,5	;RP0=1, select bank1
  2601  02CC  1303               	bcf	3,6	;RP1=0, select bank1
  2602  02CD  085B               	movf	(_t+1)^(0+128),w
  2603  02CE  1283               	bcf	3,5	;RP0=0, select bank0
  2604  02CF  1303               	bcf	3,6	;RP1=0, select bank0
  2605  02D0  00C9               	movwf	___flmul@b+1
  2606  02D1  1683               	bsf	3,5	;RP0=1, select bank1
  2607  02D2  1303               	bcf	3,6	;RP1=0, select bank1
  2608  02D3  085A               	movf	_t^(0+128),w
  2609  02D4  1283               	bcf	3,5	;RP0=0, select bank0
  2610  02D5  1303               	bcf	3,6	;RP1=0, select bank0
  2611  02D6  00C8               	movwf	___flmul@b
  2612  02D7  1683               	bsf	3,5	;RP0=1, select bank1
  2613  02D8  1303               	bcf	3,6	;RP1=0, select bank1
  2614  02D9  085D               	movf	(_t+3)^(0+128),w
  2615  02DA  1283               	bcf	3,5	;RP0=0, select bank0
  2616  02DB  1303               	bcf	3,6	;RP1=0, select bank0
  2617  02DC  00CF               	movwf	___flmul@a+3
  2618  02DD  1683               	bsf	3,5	;RP0=1, select bank1
  2619  02DE  1303               	bcf	3,6	;RP1=0, select bank1
  2620  02DF  085C               	movf	(_t+2)^(0+128),w
  2621  02E0  1283               	bcf	3,5	;RP0=0, select bank0
  2622  02E1  1303               	bcf	3,6	;RP1=0, select bank0
  2623  02E2  00CE               	movwf	___flmul@a+2
  2624  02E3  1683               	bsf	3,5	;RP0=1, select bank1
  2625  02E4  1303               	bcf	3,6	;RP1=0, select bank1
  2626  02E5  085B               	movf	(_t+1)^(0+128),w
  2627  02E6  1283               	bcf	3,5	;RP0=0, select bank0
  2628  02E7  1303               	bcf	3,6	;RP1=0, select bank0
  2629  02E8  00CD               	movwf	___flmul@a+1
  2630  02E9  1683               	bsf	3,5	;RP0=1, select bank1
  2631  02EA  1303               	bcf	3,6	;RP1=0, select bank1
  2632  02EB  085A               	movf	_t^(0+128),w
  2633  02EC  1283               	bcf	3,5	;RP0=0, select bank0
  2634  02ED  1303               	bcf	3,6	;RP1=0, select bank0
  2635  02EE  00CC               	movwf	___flmul@a
  2636  02EF  120A  158A  2139  120A  118A  	fcall	___flmul
  2637  02F4  1283               	bcf	3,5	;RP0=0, select bank0
  2638  02F5  1303               	bcf	3,6	;RP1=0, select bank0
  2639  02F6  084B               	movf	?___flmul+3,w
  2640  02F7  1283               	bcf	3,5	;RP0=0, select bank2
  2641  02F8  1703               	bsf	3,6	;RP1=1, select bank2
  2642  02F9  009B               	movwf	(_tinh_pid$921+3)^(0+256)
  2643  02FA  1283               	bcf	3,5	;RP0=0, select bank0
  2644  02FB  1303               	bcf	3,6	;RP1=0, select bank0
  2645  02FC  084A               	movf	?___flmul+2,w
  2646  02FD  1283               	bcf	3,5	;RP0=0, select bank2
  2647  02FE  1703               	bsf	3,6	;RP1=1, select bank2
  2648  02FF  009A               	movwf	(_tinh_pid$921+2)^(0+256)
  2649  0300  1283               	bcf	3,5	;RP0=0, select bank0
  2650  0301  1303               	bcf	3,6	;RP1=0, select bank0
  2651  0302  0849               	movf	?___flmul+1,w
  2652  0303  1283               	bcf	3,5	;RP0=0, select bank2
  2653  0304  1703               	bsf	3,6	;RP1=1, select bank2
  2654  0305  0099               	movwf	(_tinh_pid$921+1)^(0+256)
  2655  0306  1283               	bcf	3,5	;RP0=0, select bank0
  2656  0307  1303               	bcf	3,6	;RP1=0, select bank0
  2657  0308  0848               	movf	?___flmul,w
  2658  0309  1283               	bcf	3,5	;RP0=0, select bank2
  2659  030A  1703               	bsf	3,6	;RP1=1, select bank2
  2660  030B  0098               	movwf	_tinh_pid$921^(0+256)
  2661  030C                     l3934:
  2662                           
  2663                           ;Mach_encoder_4NN_LCD_PID_Pic16F887_MPlab.c: 172:         b=t*t*ki-4*kd-2*t*kp;
  2664  030C  3040               	movlw	64
  2665  030D  1283               	bcf	3,5	;RP0=0, select bank0
  2666  030E  1303               	bcf	3,6	;RP1=0, select bank0
  2667  030F  00CB               	movwf	___flmul@b+3
  2668  0310  3080               	movlw	128
  2669  0311  00CA               	movwf	___flmul@b+2
  2670  0312  3000               	movlw	0
  2671  0313  00C9               	movwf	___flmul@b+1
  2672  0314  3000               	movlw	0
  2673  0315  00C8               	movwf	___flmul@b
  2674  0316  1683               	bsf	3,5	;RP0=1, select bank3
  2675  0317  1703               	bsf	3,6	;RP1=1, select bank3
  2676  0318  0861               	movf	(_kd+3)^(0+384),w
  2677  0319  1283               	bcf	3,5	;RP0=0, select bank0
  2678  031A  1303               	bcf	3,6	;RP1=0, select bank0
  2679  031B  00CF               	movwf	___flmul@a+3
  2680  031C  1683               	bsf	3,5	;RP0=1, select bank3
  2681  031D  1703               	bsf	3,6	;RP1=1, select bank3
  2682  031E  0860               	movf	(_kd+2)^(0+384),w
  2683  031F  1283               	bcf	3,5	;RP0=0, select bank0
  2684  0320  1303               	bcf	3,6	;RP1=0, select bank0
  2685  0321  00CE               	movwf	___flmul@a+2
  2686  0322  1683               	bsf	3,5	;RP0=1, select bank3
  2687  0323  1703               	bsf	3,6	;RP1=1, select bank3
  2688  0324  085F               	movf	(_kd+1)^(0+384),w
  2689  0325  1283               	bcf	3,5	;RP0=0, select bank0
  2690  0326  1303               	bcf	3,6	;RP1=0, select bank0
  2691  0327  00CD               	movwf	___flmul@a+1
  2692  0328  1683               	bsf	3,5	;RP0=1, select bank3
  2693  0329  1703               	bsf	3,6	;RP1=1, select bank3
  2694  032A  085E               	movf	_kd^(0+384),w
  2695  032B  1283               	bcf	3,5	;RP0=0, select bank0
  2696  032C  1303               	bcf	3,6	;RP1=0, select bank0
  2697  032D  00CC               	movwf	___flmul@a
  2698  032E  120A  158A  2139  120A  118A  	fcall	___flmul
  2699  0333  1283               	bcf	3,5	;RP0=0, select bank0
  2700  0334  1303               	bcf	3,6	;RP1=0, select bank0
  2701  0335  084B               	movf	?___flmul+3,w
  2702  0336  1683               	bsf	3,5	;RP0=1, select bank1
  2703  0337  1303               	bcf	3,6	;RP1=0, select bank1
  2704  0338  00AB               	movwf	(___flsub@a+3)^(0+128)
  2705  0339  1283               	bcf	3,5	;RP0=0, select bank0
  2706  033A  1303               	bcf	3,6	;RP1=0, select bank0
  2707  033B  084A               	movf	?___flmul+2,w
  2708  033C  1683               	bsf	3,5	;RP0=1, select bank1
  2709  033D  1303               	bcf	3,6	;RP1=0, select bank1
  2710  033E  00AA               	movwf	(___flsub@a+2)^(0+128)
  2711  033F  1283               	bcf	3,5	;RP0=0, select bank0
  2712  0340  1303               	bcf	3,6	;RP1=0, select bank0
  2713  0341  0849               	movf	?___flmul+1,w
  2714  0342  1683               	bsf	3,5	;RP0=1, select bank1
  2715  0343  1303               	bcf	3,6	;RP1=0, select bank1
  2716  0344  00A9               	movwf	(___flsub@a+1)^(0+128)
  2717  0345  1283               	bcf	3,5	;RP0=0, select bank0
  2718  0346  1303               	bcf	3,6	;RP1=0, select bank0
  2719  0347  0848               	movf	?___flmul,w
  2720  0348  1683               	bsf	3,5	;RP0=1, select bank1
  2721  0349  1303               	bcf	3,6	;RP1=0, select bank1
  2722  034A  00A8               	movwf	___flsub@a^(0+128)
  2723  034B  1683               	bsf	3,5	;RP0=1, select bank3
  2724  034C  1703               	bsf	3,6	;RP1=1, select bank3
  2725  034D  0827               	movf	(_ki+3)^(0+384),w
  2726  034E  1283               	bcf	3,5	;RP0=0, select bank0
  2727  034F  1303               	bcf	3,6	;RP1=0, select bank0
  2728  0350  00CB               	movwf	___flmul@b+3
  2729  0351  1683               	bsf	3,5	;RP0=1, select bank3
  2730  0352  1703               	bsf	3,6	;RP1=1, select bank3
  2731  0353  0826               	movf	(_ki+2)^(0+384),w
  2732  0354  1283               	bcf	3,5	;RP0=0, select bank0
  2733  0355  1303               	bcf	3,6	;RP1=0, select bank0
  2734  0356  00CA               	movwf	___flmul@b+2
  2735  0357  1683               	bsf	3,5	;RP0=1, select bank3
  2736  0358  1703               	bsf	3,6	;RP1=1, select bank3
  2737  0359  0825               	movf	(_ki+1)^(0+384),w
  2738  035A  1283               	bcf	3,5	;RP0=0, select bank0
  2739  035B  1303               	bcf	3,6	;RP1=0, select bank0
  2740  035C  00C9               	movwf	___flmul@b+1
  2741  035D  1683               	bsf	3,5	;RP0=1, select bank3
  2742  035E  1703               	bsf	3,6	;RP1=1, select bank3
  2743  035F  0824               	movf	_ki^(0+384),w
  2744  0360  1283               	bcf	3,5	;RP0=0, select bank0
  2745  0361  1303               	bcf	3,6	;RP1=0, select bank0
  2746  0362  00C8               	movwf	___flmul@b
  2747  0363  1283               	bcf	3,5	;RP0=0, select bank2
  2748  0364  1703               	bsf	3,6	;RP1=1, select bank2
  2749  0365  081B               	movf	(_tinh_pid$921+3)^(0+256),w
  2750  0366  1283               	bcf	3,5	;RP0=0, select bank0
  2751  0367  1303               	bcf	3,6	;RP1=0, select bank0
  2752  0368  00CF               	movwf	___flmul@a+3
  2753  0369  1283               	bcf	3,5	;RP0=0, select bank2
  2754  036A  1703               	bsf	3,6	;RP1=1, select bank2
  2755  036B  081A               	movf	(_tinh_pid$921+2)^(0+256),w
  2756  036C  1283               	bcf	3,5	;RP0=0, select bank0
  2757  036D  1303               	bcf	3,6	;RP1=0, select bank0
  2758  036E  00CE               	movwf	___flmul@a+2
  2759  036F  1283               	bcf	3,5	;RP0=0, select bank2
  2760  0370  1703               	bsf	3,6	;RP1=1, select bank2
  2761  0371  0819               	movf	(_tinh_pid$921+1)^(0+256),w
  2762  0372  1283               	bcf	3,5	;RP0=0, select bank0
  2763  0373  1303               	bcf	3,6	;RP1=0, select bank0
  2764  0374  00CD               	movwf	___flmul@a+1
  2765  0375  1283               	bcf	3,5	;RP0=0, select bank2
  2766  0376  1703               	bsf	3,6	;RP1=1, select bank2
  2767  0377  0818               	movf	_tinh_pid$921^(0+256),w
  2768  0378  1283               	bcf	3,5	;RP0=0, select bank0
  2769  0379  1303               	bcf	3,6	;RP1=0, select bank0
  2770  037A  00CC               	movwf	___flmul@a
  2771  037B  120A  158A  2139  120A  118A  	fcall	___flmul
  2772  0380  1283               	bcf	3,5	;RP0=0, select bank0
  2773  0381  1303               	bcf	3,6	;RP1=0, select bank0
  2774  0382  084B               	movf	?___flmul+3,w
  2775  0383  1683               	bsf	3,5	;RP0=1, select bank1
  2776  0384  1303               	bcf	3,6	;RP1=0, select bank1
  2777  0385  00AF               	movwf	(___flsub@b+3)^(0+128)
  2778  0386  1283               	bcf	3,5	;RP0=0, select bank0
  2779  0387  1303               	bcf	3,6	;RP1=0, select bank0
  2780  0388  084A               	movf	?___flmul+2,w
  2781  0389  1683               	bsf	3,5	;RP0=1, select bank1
  2782  038A  1303               	bcf	3,6	;RP1=0, select bank1
  2783  038B  00AE               	movwf	(___flsub@b+2)^(0+128)
  2784  038C  1283               	bcf	3,5	;RP0=0, select bank0
  2785  038D  1303               	bcf	3,6	;RP1=0, select bank0
  2786  038E  0849               	movf	?___flmul+1,w
  2787  038F  1683               	bsf	3,5	;RP0=1, select bank1
  2788  0390  1303               	bcf	3,6	;RP1=0, select bank1
  2789  0391  00AD               	movwf	(___flsub@b+1)^(0+128)
  2790  0392  1283               	bcf	3,5	;RP0=0, select bank0
  2791  0393  1303               	bcf	3,6	;RP1=0, select bank0
  2792  0394  0848               	movf	?___flmul,w
  2793  0395  1683               	bsf	3,5	;RP0=1, select bank1
  2794  0396  1303               	bcf	3,6	;RP1=0, select bank1
  2795  0397  00AC               	movwf	___flsub@b^(0+128)
  2796  0398  160A  158A  2500  120A  118A  	fcall	___flsub
  2797  039D  1683               	bsf	3,5	;RP0=1, select bank1
  2798  039E  1303               	bcf	3,6	;RP1=0, select bank1
  2799  039F  082B               	movf	(?___flsub+3)^(0+128),w
  2800  03A0  1283               	bcf	3,5	;RP0=0, select bank2
  2801  03A1  1703               	bsf	3,6	;RP1=1, select bank2
  2802  03A2  0093               	movwf	(_tinh_pid$923+3)^(0+256)
  2803  03A3  1683               	bsf	3,5	;RP0=1, select bank1
  2804  03A4  1303               	bcf	3,6	;RP1=0, select bank1
  2805  03A5  082A               	movf	(?___flsub+2)^(0+128),w
  2806  03A6  1283               	bcf	3,5	;RP0=0, select bank2
  2807  03A7  1703               	bsf	3,6	;RP1=1, select bank2
  2808  03A8  0092               	movwf	(_tinh_pid$923+2)^(0+256)
  2809  03A9  1683               	bsf	3,5	;RP0=1, select bank1
  2810  03AA  1303               	bcf	3,6	;RP1=0, select bank1
  2811  03AB  0829               	movf	(?___flsub+1)^(0+128),w
  2812  03AC  1283               	bcf	3,5	;RP0=0, select bank2
  2813  03AD  1703               	bsf	3,6	;RP1=1, select bank2
  2814  03AE  0091               	movwf	(_tinh_pid$923+1)^(0+256)
  2815  03AF  1683               	bsf	3,5	;RP0=1, select bank1
  2816  03B0  1303               	bcf	3,6	;RP1=0, select bank1
  2817  03B1  0828               	movf	?___flsub^(0+128),w
  2818  03B2  1283               	bcf	3,5	;RP0=0, select bank2
  2819  03B3  1703               	bsf	3,6	;RP1=1, select bank2
  2820  03B4  0090               	movwf	_tinh_pid$923^(0+256)
  2821  03B5                     l3936:
  2822                           
  2823                           ;Mach_encoder_4NN_LCD_PID_Pic16F887_MPlab.c: 172:         b=t*t*ki-4*kd-2*t*kp;
  2824  03B5  1683               	bsf	3,5	;RP0=1, select bank3
  2825  03B6  1703               	bsf	3,6	;RP1=1, select bank3
  2826  03B7  082B               	movf	(_kp+3)^(0+384),w
  2827  03B8  1283               	bcf	3,5	;RP0=0, select bank0
  2828  03B9  1303               	bcf	3,6	;RP1=0, select bank0
  2829  03BA  00CB               	movwf	___flmul@b+3
  2830  03BB  1683               	bsf	3,5	;RP0=1, select bank3
  2831  03BC  1703               	bsf	3,6	;RP1=1, select bank3
  2832  03BD  082A               	movf	(_kp+2)^(0+384),w
  2833  03BE  1283               	bcf	3,5	;RP0=0, select bank0
  2834  03BF  1303               	bcf	3,6	;RP1=0, select bank0
  2835  03C0  00CA               	movwf	___flmul@b+2
  2836  03C1  1683               	bsf	3,5	;RP0=1, select bank3
  2837  03C2  1703               	bsf	3,6	;RP1=1, select bank3
  2838  03C3  0829               	movf	(_kp+1)^(0+384),w
  2839  03C4  1283               	bcf	3,5	;RP0=0, select bank0
  2840  03C5  1303               	bcf	3,6	;RP1=0, select bank0
  2841  03C6  00C9               	movwf	___flmul@b+1
  2842  03C7  1683               	bsf	3,5	;RP0=1, select bank3
  2843  03C8  1703               	bsf	3,6	;RP1=1, select bank3
  2844  03C9  0828               	movf	_kp^(0+384),w
  2845  03CA  1283               	bcf	3,5	;RP0=0, select bank0
  2846  03CB  1303               	bcf	3,6	;RP1=0, select bank0
  2847  03CC  00C8               	movwf	___flmul@b
  2848  03CD  1283               	bcf	3,5	;RP0=0, select bank2
  2849  03CE  1703               	bsf	3,6	;RP1=1, select bank2
  2850  03CF  0823               	movf	(_tinh_pid$920+3)^(0+256),w
  2851  03D0  1283               	bcf	3,5	;RP0=0, select bank0
  2852  03D1  1303               	bcf	3,6	;RP1=0, select bank0
  2853  03D2  00CF               	movwf	___flmul@a+3
  2854  03D3  1283               	bcf	3,5	;RP0=0, select bank2
  2855  03D4  1703               	bsf	3,6	;RP1=1, select bank2
  2856  03D5  0822               	movf	(_tinh_pid$920+2)^(0+256),w
  2857  03D6  1283               	bcf	3,5	;RP0=0, select bank0
  2858  03D7  1303               	bcf	3,6	;RP1=0, select bank0
  2859  03D8  00CE               	movwf	___flmul@a+2
  2860  03D9  1283               	bcf	3,5	;RP0=0, select bank2
  2861  03DA  1703               	bsf	3,6	;RP1=1, select bank2
  2862  03DB  0821               	movf	(_tinh_pid$920+1)^(0+256),w
  2863  03DC  1283               	bcf	3,5	;RP0=0, select bank0
  2864  03DD  1303               	bcf	3,6	;RP1=0, select bank0
  2865  03DE  00CD               	movwf	___flmul@a+1
  2866  03DF  1283               	bcf	3,5	;RP0=0, select bank2
  2867  03E0  1703               	bsf	3,6	;RP1=1, select bank2
  2868  03E1  0820               	movf	_tinh_pid$920^(0+256),w
  2869  03E2  1283               	bcf	3,5	;RP0=0, select bank0
  2870  03E3  1303               	bcf	3,6	;RP1=0, select bank0
  2871  03E4  00CC               	movwf	___flmul@a
  2872  03E5  120A  158A  2139  120A  118A  	fcall	___flmul
  2873  03EA  1283               	bcf	3,5	;RP0=0, select bank0
  2874  03EB  1303               	bcf	3,6	;RP1=0, select bank0
  2875  03EC  084B               	movf	?___flmul+3,w
  2876  03ED  1683               	bsf	3,5	;RP0=1, select bank1
  2877  03EE  1303               	bcf	3,6	;RP1=0, select bank1
  2878  03EF  00AB               	movwf	(___flsub@a+3)^(0+128)
  2879  03F0  1283               	bcf	3,5	;RP0=0, select bank0
  2880  03F1  1303               	bcf	3,6	;RP1=0, select bank0
  2881  03F2  084A               	movf	?___flmul+2,w
  2882  03F3  1683               	bsf	3,5	;RP0=1, select bank1
  2883  03F4  1303               	bcf	3,6	;RP1=0, select bank1
  2884  03F5  00AA               	movwf	(___flsub@a+2)^(0+128)
  2885  03F6  1283               	bcf	3,5	;RP0=0, select bank0
  2886  03F7  1303               	bcf	3,6	;RP1=0, select bank0
  2887  03F8  0849               	movf	?___flmul+1,w
  2888  03F9  1683               	bsf	3,5	;RP0=1, select bank1
  2889  03FA  1303               	bcf	3,6	;RP1=0, select bank1
  2890  03FB  00A9               	movwf	(___flsub@a+1)^(0+128)
  2891  03FC  1283               	bcf	3,5	;RP0=0, select bank0
  2892  03FD  1303               	bcf	3,6	;RP1=0, select bank0
  2893  03FE  0848               	movf	?___flmul,w
  2894  03FF  1683               	bsf	3,5	;RP0=1, select bank1
  2895  0400  1303               	bcf	3,6	;RP1=0, select bank1
  2896  0401  00A8               	movwf	___flsub@a^(0+128)
  2897  0402  1283               	bcf	3,5	;RP0=0, select bank2
  2898  0403  1703               	bsf	3,6	;RP1=1, select bank2
  2899  0404  0813               	movf	(_tinh_pid$923+3)^(0+256),w
  2900  0405  1683               	bsf	3,5	;RP0=1, select bank1
  2901  0406  1303               	bcf	3,6	;RP1=0, select bank1
  2902  0407  00AF               	movwf	(___flsub@b+3)^(0+128)
  2903  0408  1283               	bcf	3,5	;RP0=0, select bank2
  2904  0409  1703               	bsf	3,6	;RP1=1, select bank2
  2905  040A  0812               	movf	(_tinh_pid$923+2)^(0+256),w
  2906  040B  1683               	bsf	3,5	;RP0=1, select bank1
  2907  040C  1303               	bcf	3,6	;RP1=0, select bank1
  2908  040D  00AE               	movwf	(___flsub@b+2)^(0+128)
  2909  040E  1283               	bcf	3,5	;RP0=0, select bank2
  2910  040F  1703               	bsf	3,6	;RP1=1, select bank2
  2911  0410  0811               	movf	(_tinh_pid$923+1)^(0+256),w
  2912  0411  1683               	bsf	3,5	;RP0=1, select bank1
  2913  0412  1303               	bcf	3,6	;RP1=0, select bank1
  2914  0413  00AD               	movwf	(___flsub@b+1)^(0+128)
  2915  0414  1283               	bcf	3,5	;RP0=0, select bank2
  2916  0415  1703               	bsf	3,6	;RP1=1, select bank2
  2917  0416  0810               	movf	_tinh_pid$923^(0+256),w
  2918  0417  1683               	bsf	3,5	;RP0=1, select bank1
  2919  0418  1303               	bcf	3,6	;RP1=0, select bank1
  2920  0419  00AC               	movwf	___flsub@b^(0+128)
  2921  041A  160A  158A  2500  120A  118A  	fcall	___flsub
  2922  041F  1683               	bsf	3,5	;RP0=1, select bank1
  2923  0420  1303               	bcf	3,6	;RP1=0, select bank1
  2924  0421  082B               	movf	(?___flsub+3)^(0+128),w
  2925  0422  1683               	bsf	3,5	;RP0=1, select bank3
  2926  0423  1703               	bsf	3,6	;RP1=1, select bank3
  2927  0424  00B3               	movwf	(_b+3)^(0+384)
  2928  0425  1683               	bsf	3,5	;RP0=1, select bank1
  2929  0426  1303               	bcf	3,6	;RP1=0, select bank1
  2930  0427  082A               	movf	(?___flsub+2)^(0+128),w
  2931  0428  1683               	bsf	3,5	;RP0=1, select bank3
  2932  0429  1703               	bsf	3,6	;RP1=1, select bank3
  2933  042A  00B2               	movwf	(_b+2)^(0+384)
  2934  042B  1683               	bsf	3,5	;RP0=1, select bank1
  2935  042C  1303               	bcf	3,6	;RP1=0, select bank1
  2936  042D  0829               	movf	(?___flsub+1)^(0+128),w
  2937  042E  1683               	bsf	3,5	;RP0=1, select bank3
  2938  042F  1703               	bsf	3,6	;RP1=1, select bank3
  2939  0430  00B1               	movwf	(_b+1)^(0+384)
  2940  0431  1683               	bsf	3,5	;RP0=1, select bank1
  2941  0432  1303               	bcf	3,6	;RP1=0, select bank1
  2942  0433  0828               	movf	?___flsub^(0+128),w
  2943  0434  1683               	bsf	3,5	;RP0=1, select bank3
  2944  0435  1703               	bsf	3,6	;RP1=1, select bank3
  2945  0436  00B0               	movwf	_b^(0+384)
  2946  0437                     l3938:
  2947                           
  2948                           ;Mach_encoder_4NN_LCD_PID_Pic16F887_MPlab.c: 173:         ga=2*kd;
  2949  0437  3040               	movlw	64
  2950  0438  1283               	bcf	3,5	;RP0=0, select bank0
  2951  0439  1303               	bcf	3,6	;RP1=0, select bank0
  2952  043A  00CB               	movwf	___flmul@b+3
  2953  043B  3000               	movlw	0
  2954  043C  00CA               	movwf	___flmul@b+2
  2955  043D  3000               	movlw	0
  2956  043E  00C9               	movwf	___flmul@b+1
  2957  043F  3000               	movlw	0
  2958  0440  00C8               	movwf	___flmul@b
  2959  0441  1683               	bsf	3,5	;RP0=1, select bank3
  2960  0442  1703               	bsf	3,6	;RP1=1, select bank3
  2961  0443  0861               	movf	(_kd+3)^(0+384),w
  2962  0444  1283               	bcf	3,5	;RP0=0, select bank0
  2963  0445  1303               	bcf	3,6	;RP1=0, select bank0
  2964  0446  00CF               	movwf	___flmul@a+3
  2965  0447  1683               	bsf	3,5	;RP0=1, select bank3
  2966  0448  1703               	bsf	3,6	;RP1=1, select bank3
  2967  0449  0860               	movf	(_kd+2)^(0+384),w
  2968  044A  1283               	bcf	3,5	;RP0=0, select bank0
  2969  044B  1303               	bcf	3,6	;RP1=0, select bank0
  2970  044C  00CE               	movwf	___flmul@a+2
  2971  044D  1683               	bsf	3,5	;RP0=1, select bank3
  2972  044E  1703               	bsf	3,6	;RP1=1, select bank3
  2973  044F  085F               	movf	(_kd+1)^(0+384),w
  2974  0450  1283               	bcf	3,5	;RP0=0, select bank0
  2975  0451  1303               	bcf	3,6	;RP1=0, select bank0
  2976  0452  00CD               	movwf	___flmul@a+1
  2977  0453  1683               	bsf	3,5	;RP0=1, select bank3
  2978  0454  1703               	bsf	3,6	;RP1=1, select bank3
  2979  0455  085E               	movf	_kd^(0+384),w
  2980  0456  1283               	bcf	3,5	;RP0=0, select bank0
  2981  0457  1303               	bcf	3,6	;RP1=0, select bank0
  2982  0458  00CC               	movwf	___flmul@a
  2983  0459  120A  158A  2139  120A  118A  	fcall	___flmul
  2984  045E  1283               	bcf	3,5	;RP0=0, select bank0
  2985  045F  1303               	bcf	3,6	;RP1=0, select bank0
  2986  0460  084B               	movf	?___flmul+3,w
  2987  0461  1683               	bsf	3,5	;RP0=1, select bank3
  2988  0462  1703               	bsf	3,6	;RP1=1, select bank3
  2989  0463  00AF               	movwf	(_ga+3)^(0+384)
  2990  0464  1283               	bcf	3,5	;RP0=0, select bank0
  2991  0465  1303               	bcf	3,6	;RP1=0, select bank0
  2992  0466  084A               	movf	?___flmul+2,w
  2993  0467  1683               	bsf	3,5	;RP0=1, select bank3
  2994  0468  1703               	bsf	3,6	;RP1=1, select bank3
  2995  0469  00AE               	movwf	(_ga+2)^(0+384)
  2996  046A  1283               	bcf	3,5	;RP0=0, select bank0
  2997  046B  1303               	bcf	3,6	;RP1=0, select bank0
  2998  046C  0849               	movf	?___flmul+1,w
  2999  046D  1683               	bsf	3,5	;RP0=1, select bank3
  3000  046E  1703               	bsf	3,6	;RP1=1, select bank3
  3001  046F  00AD               	movwf	(_ga+1)^(0+384)
  3002  0470  1283               	bcf	3,5	;RP0=0, select bank0
  3003  0471  1303               	bcf	3,6	;RP1=0, select bank0
  3004  0472  0848               	movf	?___flmul,w
  3005  0473  1683               	bsf	3,5	;RP0=1, select bank3
  3006  0474  1703               	bsf	3,6	;RP1=1, select bank3
  3007  0475  00AC               	movwf	_ga^(0+384)
  3008  0476                     l3940:
  3009                           
  3010                           ;Mach_encoder_4NN_LCD_PID_Pic16F887_MPlab.c: 175:         out=(a*e+b*e1+ga*e2+2*t*lastou
      +                          t)/(2*t);
  3011  0476  3040               	movlw	64
  3012  0477  1283               	bcf	3,5	;RP0=0, select bank0
  3013  0478  1303               	bcf	3,6	;RP1=0, select bank0
  3014  0479  00CB               	movwf	___flmul@b+3
  3015  047A  3000               	movlw	0
  3016  047B  00CA               	movwf	___flmul@b+2
  3017  047C  3000               	movlw	0
  3018  047D  00C9               	movwf	___flmul@b+1
  3019  047E  3000               	movlw	0
  3020  047F  00C8               	movwf	___flmul@b
  3021  0480  1683               	bsf	3,5	;RP0=1, select bank1
  3022  0481  1303               	bcf	3,6	;RP1=0, select bank1
  3023  0482  085D               	movf	(_t+3)^(0+128),w
  3024  0483  1283               	bcf	3,5	;RP0=0, select bank0
  3025  0484  1303               	bcf	3,6	;RP1=0, select bank0
  3026  0485  00CF               	movwf	___flmul@a+3
  3027  0486  1683               	bsf	3,5	;RP0=1, select bank1
  3028  0487  1303               	bcf	3,6	;RP1=0, select bank1
  3029  0488  085C               	movf	(_t+2)^(0+128),w
  3030  0489  1283               	bcf	3,5	;RP0=0, select bank0
  3031  048A  1303               	bcf	3,6	;RP1=0, select bank0
  3032  048B  00CE               	movwf	___flmul@a+2
  3033  048C  1683               	bsf	3,5	;RP0=1, select bank1
  3034  048D  1303               	bcf	3,6	;RP1=0, select bank1
  3035  048E  085B               	movf	(_t+1)^(0+128),w
  3036  048F  1283               	bcf	3,5	;RP0=0, select bank0
  3037  0490  1303               	bcf	3,6	;RP1=0, select bank0
  3038  0491  00CD               	movwf	___flmul@a+1
  3039  0492  1683               	bsf	3,5	;RP0=1, select bank1
  3040  0493  1303               	bcf	3,6	;RP1=0, select bank1
  3041  0494  085A               	movf	_t^(0+128),w
  3042  0495  1283               	bcf	3,5	;RP0=0, select bank0
  3043  0496  1303               	bcf	3,6	;RP1=0, select bank0
  3044  0497  00CC               	movwf	___flmul@a
  3045  0498  120A  158A  2139  120A  118A  	fcall	___flmul
  3046  049D  1283               	bcf	3,5	;RP0=0, select bank0
  3047  049E  1303               	bcf	3,6	;RP1=0, select bank0
  3048  049F  084B               	movf	?___flmul+3,w
  3049  04A0  1283               	bcf	3,5	;RP0=0, select bank2
  3050  04A1  1703               	bsf	3,6	;RP1=1, select bank2
  3051  04A2  00A3               	movwf	(_tinh_pid$920+3)^(0+256)
  3052  04A3  1283               	bcf	3,5	;RP0=0, select bank0
  3053  04A4  1303               	bcf	3,6	;RP1=0, select bank0
  3054  04A5  084A               	movf	?___flmul+2,w
  3055  04A6  1283               	bcf	3,5	;RP0=0, select bank2
  3056  04A7  1703               	bsf	3,6	;RP1=1, select bank2
  3057  04A8  00A2               	movwf	(_tinh_pid$920+2)^(0+256)
  3058  04A9  1283               	bcf	3,5	;RP0=0, select bank0
  3059  04AA  1303               	bcf	3,6	;RP1=0, select bank0
  3060  04AB  0849               	movf	?___flmul+1,w
  3061  04AC  1283               	bcf	3,5	;RP0=0, select bank2
  3062  04AD  1703               	bsf	3,6	;RP1=1, select bank2
  3063  04AE  00A1               	movwf	(_tinh_pid$920+1)^(0+256)
  3064  04AF  1283               	bcf	3,5	;RP0=0, select bank0
  3065  04B0  1303               	bcf	3,6	;RP1=0, select bank0
  3066  04B1  0848               	movf	?___flmul,w
  3067  04B2  1283               	bcf	3,5	;RP0=0, select bank2
  3068  04B3  1703               	bsf	3,6	;RP1=1, select bank2
  3069  04B4  00A0               	movwf	_tinh_pid$920^(0+256)
  3070  04B5                     l3942:
  3071                           
  3072                           ;Mach_encoder_4NN_LCD_PID_Pic16F887_MPlab.c: 175:         out=(a*e+b*e1+ga*e2+2*t*lastou
      +                          t)/(2*t);
  3073  04B5  1683               	bsf	3,5	;RP0=1, select bank3
  3074  04B6  1703               	bsf	3,6	;RP1=1, select bank3
  3075  04B7  083F               	movf	(_e1+3)^(0+384),w
  3076  04B8  1283               	bcf	3,5	;RP0=0, select bank0
  3077  04B9  1303               	bcf	3,6	;RP1=0, select bank0
  3078  04BA  00CB               	movwf	___flmul@b+3
  3079  04BB  1683               	bsf	3,5	;RP0=1, select bank3
  3080  04BC  1703               	bsf	3,6	;RP1=1, select bank3
  3081  04BD  083E               	movf	(_e1+2)^(0+384),w
  3082  04BE  1283               	bcf	3,5	;RP0=0, select bank0
  3083  04BF  1303               	bcf	3,6	;RP1=0, select bank0
  3084  04C0  00CA               	movwf	___flmul@b+2
  3085  04C1  1683               	bsf	3,5	;RP0=1, select bank3
  3086  04C2  1703               	bsf	3,6	;RP1=1, select bank3
  3087  04C3  083D               	movf	(_e1+1)^(0+384),w
  3088  04C4  1283               	bcf	3,5	;RP0=0, select bank0
  3089  04C5  1303               	bcf	3,6	;RP1=0, select bank0
  3090  04C6  00C9               	movwf	___flmul@b+1
  3091  04C7  1683               	bsf	3,5	;RP0=1, select bank3
  3092  04C8  1703               	bsf	3,6	;RP1=1, select bank3
  3093  04C9  083C               	movf	_e1^(0+384),w
  3094  04CA  1283               	bcf	3,5	;RP0=0, select bank0
  3095  04CB  1303               	bcf	3,6	;RP1=0, select bank0
  3096  04CC  00C8               	movwf	___flmul@b
  3097  04CD  1683               	bsf	3,5	;RP0=1, select bank3
  3098  04CE  1703               	bsf	3,6	;RP1=1, select bank3
  3099  04CF  0833               	movf	(_b+3)^(0+384),w
  3100  04D0  1283               	bcf	3,5	;RP0=0, select bank0
  3101  04D1  1303               	bcf	3,6	;RP1=0, select bank0
  3102  04D2  00CF               	movwf	___flmul@a+3
  3103  04D3  1683               	bsf	3,5	;RP0=1, select bank3
  3104  04D4  1703               	bsf	3,6	;RP1=1, select bank3
  3105  04D5  0832               	movf	(_b+2)^(0+384),w
  3106  04D6  1283               	bcf	3,5	;RP0=0, select bank0
  3107  04D7  1303               	bcf	3,6	;RP1=0, select bank0
  3108  04D8  00CE               	movwf	___flmul@a+2
  3109  04D9  1683               	bsf	3,5	;RP0=1, select bank3
  3110  04DA  1703               	bsf	3,6	;RP1=1, select bank3
  3111  04DB  0831               	movf	(_b+1)^(0+384),w
  3112  04DC  1283               	bcf	3,5	;RP0=0, select bank0
  3113  04DD  1303               	bcf	3,6	;RP1=0, select bank0
  3114  04DE  00CD               	movwf	___flmul@a+1
  3115  04DF  1683               	bsf	3,5	;RP0=1, select bank3
  3116  04E0  1703               	bsf	3,6	;RP1=1, select bank3
  3117  04E1  0830               	movf	_b^(0+384),w
  3118  04E2  1283               	bcf	3,5	;RP0=0, select bank0
  3119  04E3  1303               	bcf	3,6	;RP1=0, select bank0
  3120  04E4  00CC               	movwf	___flmul@a
  3121  04E5  120A  158A  2139  120A  118A  	fcall	___flmul
  3122  04EA  1283               	bcf	3,5	;RP0=0, select bank0
  3123  04EB  1303               	bcf	3,6	;RP1=0, select bank0
  3124  04EC  084B               	movf	?___flmul+3,w
  3125  04ED  00E5               	movwf	___fladd@b+3
  3126  04EE  084A               	movf	?___flmul+2,w
  3127  04EF  00E4               	movwf	___fladd@b+2
  3128  04F0  0849               	movf	?___flmul+1,w
  3129  04F1  00E3               	movwf	___fladd@b+1
  3130  04F2  0848               	movf	?___flmul,w
  3131  04F3  00E2               	movwf	___fladd@b
  3132  04F4  1683               	bsf	3,5	;RP0=1, select bank3
  3133  04F5  1703               	bsf	3,6	;RP1=1, select bank3
  3134  04F6  0843               	movf	(_e+3)^(0+384),w
  3135  04F7  1283               	bcf	3,5	;RP0=0, select bank0
  3136  04F8  1303               	bcf	3,6	;RP1=0, select bank0
  3137  04F9  00CB               	movwf	___flmul@b+3
  3138  04FA  1683               	bsf	3,5	;RP0=1, select bank3
  3139  04FB  1703               	bsf	3,6	;RP1=1, select bank3
  3140  04FC  0842               	movf	(_e+2)^(0+384),w
  3141  04FD  1283               	bcf	3,5	;RP0=0, select bank0
  3142  04FE  1303               	bcf	3,6	;RP1=0, select bank0
  3143  04FF  00CA               	movwf	___flmul@b+2
  3144  0500  1683               	bsf	3,5	;RP0=1, select bank3
  3145  0501  1703               	bsf	3,6	;RP1=1, select bank3
  3146  0502  0841               	movf	(_e+1)^(0+384),w
  3147  0503  1283               	bcf	3,5	;RP0=0, select bank0
  3148  0504  1303               	bcf	3,6	;RP1=0, select bank0
  3149  0505  00C9               	movwf	___flmul@b+1
  3150  0506  1683               	bsf	3,5	;RP0=1, select bank3
  3151  0507  1703               	bsf	3,6	;RP1=1, select bank3
  3152  0508  0840               	movf	_e^(0+384),w
  3153  0509  1283               	bcf	3,5	;RP0=0, select bank0
  3154  050A  1303               	bcf	3,6	;RP1=0, select bank0
  3155  050B  00C8               	movwf	___flmul@b
  3156  050C  1683               	bsf	3,5	;RP0=1, select bank3
  3157  050D  1703               	bsf	3,6	;RP1=1, select bank3
  3158  050E  0837               	movf	(_a+3)^(0+384),w
  3159  050F  1283               	bcf	3,5	;RP0=0, select bank0
  3160  0510  1303               	bcf	3,6	;RP1=0, select bank0
  3161  0511  00CF               	movwf	___flmul@a+3
  3162  0512  1683               	bsf	3,5	;RP0=1, select bank3
  3163  0513  1703               	bsf	3,6	;RP1=1, select bank3
  3164  0514  0836               	movf	(_a+2)^(0+384),w
  3165  0515  1283               	bcf	3,5	;RP0=0, select bank0
  3166  0516  1303               	bcf	3,6	;RP1=0, select bank0
  3167  0517  00CE               	movwf	___flmul@a+2
  3168  0518  1683               	bsf	3,5	;RP0=1, select bank3
  3169  0519  1703               	bsf	3,6	;RP1=1, select bank3
  3170  051A  0835               	movf	(_a+1)^(0+384),w
  3171  051B  1283               	bcf	3,5	;RP0=0, select bank0
  3172  051C  1303               	bcf	3,6	;RP1=0, select bank0
  3173  051D  00CD               	movwf	___flmul@a+1
  3174  051E  1683               	bsf	3,5	;RP0=1, select bank3
  3175  051F  1703               	bsf	3,6	;RP1=1, select bank3
  3176  0520  0834               	movf	_a^(0+384),w
  3177  0521  1283               	bcf	3,5	;RP0=0, select bank0
  3178  0522  1303               	bcf	3,6	;RP1=0, select bank0
  3179  0523  00CC               	movwf	___flmul@a
  3180  0524  120A  158A  2139  120A  118A  	fcall	___flmul
  3181  0529  1283               	bcf	3,5	;RP0=0, select bank0
  3182  052A  1303               	bcf	3,6	;RP1=0, select bank0
  3183  052B  084B               	movf	?___flmul+3,w
  3184  052C  00E9               	movwf	___fladd@a+3
  3185  052D  084A               	movf	?___flmul+2,w
  3186  052E  00E8               	movwf	___fladd@a+2
  3187  052F  0849               	movf	?___flmul+1,w
  3188  0530  00E7               	movwf	___fladd@a+1
  3189  0531  0848               	movf	?___flmul,w
  3190  0532  00E6               	movwf	___fladd@a
  3191  0533  120A  158A  249A  120A  118A  	fcall	___fladd
  3192  0538  1283               	bcf	3,5	;RP0=0, select bank0
  3193  0539  1303               	bcf	3,6	;RP1=0, select bank0
  3194  053A  0865               	movf	?___fladd+3,w
  3195  053B  1283               	bcf	3,5	;RP0=0, select bank2
  3196  053C  1703               	bsf	3,6	;RP1=1, select bank2
  3197  053D  0097               	movwf	(_tinh_pid$924+3)^(0+256)
  3198  053E  1283               	bcf	3,5	;RP0=0, select bank0
  3199  053F  1303               	bcf	3,6	;RP1=0, select bank0
  3200  0540  0864               	movf	?___fladd+2,w
  3201  0541  1283               	bcf	3,5	;RP0=0, select bank2
  3202  0542  1703               	bsf	3,6	;RP1=1, select bank2
  3203  0543  0096               	movwf	(_tinh_pid$924+2)^(0+256)
  3204  0544  1283               	bcf	3,5	;RP0=0, select bank0
  3205  0545  1303               	bcf	3,6	;RP1=0, select bank0
  3206  0546  0863               	movf	?___fladd+1,w
  3207  0547  1283               	bcf	3,5	;RP0=0, select bank2
  3208  0548  1703               	bsf	3,6	;RP1=1, select bank2
  3209  0549  0095               	movwf	(_tinh_pid$924+1)^(0+256)
  3210  054A  1283               	bcf	3,5	;RP0=0, select bank0
  3211  054B  1303               	bcf	3,6	;RP1=0, select bank0
  3212  054C  0862               	movf	?___fladd,w
  3213  054D  1283               	bcf	3,5	;RP0=0, select bank2
  3214  054E  1703               	bsf	3,6	;RP1=1, select bank2
  3215  054F  0094               	movwf	_tinh_pid$924^(0+256)
  3216  0550                     l3944:
  3217                           
  3218                           ;Mach_encoder_4NN_LCD_PID_Pic16F887_MPlab.c: 175:         out=(a*e+b*e1+ga*e2+2*t*lastou
      +                          t)/(2*t);
  3219  0550  1683               	bsf	3,5	;RP0=1, select bank3
  3220  0551  1703               	bsf	3,6	;RP1=1, select bank3
  3221  0552  083B               	movf	(_e2+3)^(0+384),w
  3222  0553  1283               	bcf	3,5	;RP0=0, select bank0
  3223  0554  1303               	bcf	3,6	;RP1=0, select bank0
  3224  0555  00CB               	movwf	___flmul@b+3
  3225  0556  1683               	bsf	3,5	;RP0=1, select bank3
  3226  0557  1703               	bsf	3,6	;RP1=1, select bank3
  3227  0558  083A               	movf	(_e2+2)^(0+384),w
  3228  0559  1283               	bcf	3,5	;RP0=0, select bank0
  3229  055A  1303               	bcf	3,6	;RP1=0, select bank0
  3230  055B  00CA               	movwf	___flmul@b+2
  3231  055C  1683               	bsf	3,5	;RP0=1, select bank3
  3232  055D  1703               	bsf	3,6	;RP1=1, select bank3
  3233  055E  0839               	movf	(_e2+1)^(0+384),w
  3234  055F  1283               	bcf	3,5	;RP0=0, select bank0
  3235  0560  1303               	bcf	3,6	;RP1=0, select bank0
  3236  0561  00C9               	movwf	___flmul@b+1
  3237  0562  1683               	bsf	3,5	;RP0=1, select bank3
  3238  0563  1703               	bsf	3,6	;RP1=1, select bank3
  3239  0564  0838               	movf	_e2^(0+384),w
  3240  0565  1283               	bcf	3,5	;RP0=0, select bank0
  3241  0566  1303               	bcf	3,6	;RP1=0, select bank0
  3242  0567  00C8               	movwf	___flmul@b
  3243  0568  1683               	bsf	3,5	;RP0=1, select bank3
  3244  0569  1703               	bsf	3,6	;RP1=1, select bank3
  3245  056A  082F               	movf	(_ga+3)^(0+384),w
  3246  056B  1283               	bcf	3,5	;RP0=0, select bank0
  3247  056C  1303               	bcf	3,6	;RP1=0, select bank0
  3248  056D  00CF               	movwf	___flmul@a+3
  3249  056E  1683               	bsf	3,5	;RP0=1, select bank3
  3250  056F  1703               	bsf	3,6	;RP1=1, select bank3
  3251  0570  082E               	movf	(_ga+2)^(0+384),w
  3252  0571  1283               	bcf	3,5	;RP0=0, select bank0
  3253  0572  1303               	bcf	3,6	;RP1=0, select bank0
  3254  0573  00CE               	movwf	___flmul@a+2
  3255  0574  1683               	bsf	3,5	;RP0=1, select bank3
  3256  0575  1703               	bsf	3,6	;RP1=1, select bank3
  3257  0576  082D               	movf	(_ga+1)^(0+384),w
  3258  0577  1283               	bcf	3,5	;RP0=0, select bank0
  3259  0578  1303               	bcf	3,6	;RP1=0, select bank0
  3260  0579  00CD               	movwf	___flmul@a+1
  3261  057A  1683               	bsf	3,5	;RP0=1, select bank3
  3262  057B  1703               	bsf	3,6	;RP1=1, select bank3
  3263  057C  082C               	movf	_ga^(0+384),w
  3264  057D  1283               	bcf	3,5	;RP0=0, select bank0
  3265  057E  1303               	bcf	3,6	;RP1=0, select bank0
  3266  057F  00CC               	movwf	___flmul@a
  3267  0580  120A  158A  2139  120A  118A  	fcall	___flmul
  3268  0585  1283               	bcf	3,5	;RP0=0, select bank0
  3269  0586  1303               	bcf	3,6	;RP1=0, select bank0
  3270  0587  084B               	movf	?___flmul+3,w
  3271  0588  00E5               	movwf	___fladd@b+3
  3272  0589  084A               	movf	?___flmul+2,w
  3273  058A  00E4               	movwf	___fladd@b+2
  3274  058B  0849               	movf	?___flmul+1,w
  3275  058C  00E3               	movwf	___fladd@b+1
  3276  058D  0848               	movf	?___flmul,w
  3277  058E  00E2               	movwf	___fladd@b
  3278  058F  1283               	bcf	3,5	;RP0=0, select bank2
  3279  0590  1703               	bsf	3,6	;RP1=1, select bank2
  3280  0591  0817               	movf	(_tinh_pid$924+3)^(0+256),w
  3281  0592  1283               	bcf	3,5	;RP0=0, select bank0
  3282  0593  1303               	bcf	3,6	;RP1=0, select bank0
  3283  0594  00E9               	movwf	___fladd@a+3
  3284  0595  1283               	bcf	3,5	;RP0=0, select bank2
  3285  0596  1703               	bsf	3,6	;RP1=1, select bank2
  3286  0597  0816               	movf	(_tinh_pid$924+2)^(0+256),w
  3287  0598  1283               	bcf	3,5	;RP0=0, select bank0
  3288  0599  1303               	bcf	3,6	;RP1=0, select bank0
  3289  059A  00E8               	movwf	___fladd@a+2
  3290  059B  1283               	bcf	3,5	;RP0=0, select bank2
  3291  059C  1703               	bsf	3,6	;RP1=1, select bank2
  3292  059D  0815               	movf	(_tinh_pid$924+1)^(0+256),w
  3293  059E  1283               	bcf	3,5	;RP0=0, select bank0
  3294  059F  1303               	bcf	3,6	;RP1=0, select bank0
  3295  05A0  00E7               	movwf	___fladd@a+1
  3296  05A1  1283               	bcf	3,5	;RP0=0, select bank2
  3297  05A2  1703               	bsf	3,6	;RP1=1, select bank2
  3298  05A3  0814               	movf	_tinh_pid$924^(0+256),w
  3299  05A4  1283               	bcf	3,5	;RP0=0, select bank0
  3300  05A5  1303               	bcf	3,6	;RP1=0, select bank0
  3301  05A6  00E6               	movwf	___fladd@a
  3302  05A7  120A  158A  249A  120A  118A  	fcall	___fladd
  3303  05AC  1283               	bcf	3,5	;RP0=0, select bank0
  3304  05AD  1303               	bcf	3,6	;RP1=0, select bank0
  3305  05AE  0865               	movf	?___fladd+3,w
  3306  05AF  1283               	bcf	3,5	;RP0=0, select bank2
  3307  05B0  1703               	bsf	3,6	;RP1=1, select bank2
  3308  05B1  009F               	movwf	(_tinh_pid$922+3)^(0+256)
  3309  05B2  1283               	bcf	3,5	;RP0=0, select bank0
  3310  05B3  1303               	bcf	3,6	;RP1=0, select bank0
  3311  05B4  0864               	movf	?___fladd+2,w
  3312  05B5  1283               	bcf	3,5	;RP0=0, select bank2
  3313  05B6  1703               	bsf	3,6	;RP1=1, select bank2
  3314  05B7  009E               	movwf	(_tinh_pid$922+2)^(0+256)
  3315  05B8  1283               	bcf	3,5	;RP0=0, select bank0
  3316  05B9  1303               	bcf	3,6	;RP1=0, select bank0
  3317  05BA  0863               	movf	?___fladd+1,w
  3318  05BB  1283               	bcf	3,5	;RP0=0, select bank2
  3319  05BC  1703               	bsf	3,6	;RP1=1, select bank2
  3320  05BD  009D               	movwf	(_tinh_pid$922+1)^(0+256)
  3321  05BE  1283               	bcf	3,5	;RP0=0, select bank0
  3322  05BF  1303               	bcf	3,6	;RP1=0, select bank0
  3323  05C0  0862               	movf	?___fladd,w
  3324  05C1  1283               	bcf	3,5	;RP0=0, select bank2
  3325  05C2  1703               	bsf	3,6	;RP1=1, select bank2
  3326  05C3  009C               	movwf	_tinh_pid$922^(0+256)
  3327  05C4                     l3946:
  3328                           
  3329                           ;Mach_encoder_4NN_LCD_PID_Pic16F887_MPlab.c: 175:         out=(a*e+b*e1+ga*e2+2*t*lastou
      +                          t)/(2*t);
  3330  05C4  3040               	movlw	64
  3331  05C5  1283               	bcf	3,5	;RP0=0, select bank0
  3332  05C6  1303               	bcf	3,6	;RP1=0, select bank0
  3333  05C7  00CB               	movwf	___flmul@b+3
  3334  05C8  3000               	movlw	0
  3335  05C9  00CA               	movwf	___flmul@b+2
  3336  05CA  3000               	movlw	0
  3337  05CB  00C9               	movwf	___flmul@b+1
  3338  05CC  3000               	movlw	0
  3339  05CD  00C8               	movwf	___flmul@b
  3340  05CE  1683               	bsf	3,5	;RP0=1, select bank1
  3341  05CF  1303               	bcf	3,6	;RP1=0, select bank1
  3342  05D0  085D               	movf	(_t+3)^(0+128),w
  3343  05D1  1283               	bcf	3,5	;RP0=0, select bank0
  3344  05D2  1303               	bcf	3,6	;RP1=0, select bank0
  3345  05D3  00CF               	movwf	___flmul@a+3
  3346  05D4  1683               	bsf	3,5	;RP0=1, select bank1
  3347  05D5  1303               	bcf	3,6	;RP1=0, select bank1
  3348  05D6  085C               	movf	(_t+2)^(0+128),w
  3349  05D7  1283               	bcf	3,5	;RP0=0, select bank0
  3350  05D8  1303               	bcf	3,6	;RP1=0, select bank0
  3351  05D9  00CE               	movwf	___flmul@a+2
  3352  05DA  1683               	bsf	3,5	;RP0=1, select bank1
  3353  05DB  1303               	bcf	3,6	;RP1=0, select bank1
  3354  05DC  085B               	movf	(_t+1)^(0+128),w
  3355  05DD  1283               	bcf	3,5	;RP0=0, select bank0
  3356  05DE  1303               	bcf	3,6	;RP1=0, select bank0
  3357  05DF  00CD               	movwf	___flmul@a+1
  3358  05E0  1683               	bsf	3,5	;RP0=1, select bank1
  3359  05E1  1303               	bcf	3,6	;RP1=0, select bank1
  3360  05E2  085A               	movf	_t^(0+128),w
  3361  05E3  1283               	bcf	3,5	;RP0=0, select bank0
  3362  05E4  1303               	bcf	3,6	;RP1=0, select bank0
  3363  05E5  00CC               	movwf	___flmul@a
  3364  05E6  120A  158A  2139  120A  118A  	fcall	___flmul
  3365  05EB  1283               	bcf	3,5	;RP0=0, select bank0
  3366  05EC  1303               	bcf	3,6	;RP1=0, select bank0
  3367  05ED  084B               	movf	?___flmul+3,w
  3368  05EE  1683               	bsf	3,5	;RP0=1, select bank1
  3369  05EF  1303               	bcf	3,6	;RP1=0, select bank1
  3370  05F0  00AB               	movwf	(___fldiv@a+3)^(0+128)
  3371  05F1  1283               	bcf	3,5	;RP0=0, select bank0
  3372  05F2  1303               	bcf	3,6	;RP1=0, select bank0
  3373  05F3  084A               	movf	?___flmul+2,w
  3374  05F4  1683               	bsf	3,5	;RP0=1, select bank1
  3375  05F5  1303               	bcf	3,6	;RP1=0, select bank1
  3376  05F6  00AA               	movwf	(___fldiv@a+2)^(0+128)
  3377  05F7  1283               	bcf	3,5	;RP0=0, select bank0
  3378  05F8  1303               	bcf	3,6	;RP1=0, select bank0
  3379  05F9  0849               	movf	?___flmul+1,w
  3380  05FA  1683               	bsf	3,5	;RP0=1, select bank1
  3381  05FB  1303               	bcf	3,6	;RP1=0, select bank1
  3382  05FC  00A9               	movwf	(___fldiv@a+1)^(0+128)
  3383  05FD  1283               	bcf	3,5	;RP0=0, select bank0
  3384  05FE  1303               	bcf	3,6	;RP1=0, select bank0
  3385  05FF  0848               	movf	?___flmul,w
  3386  0600  1683               	bsf	3,5	;RP0=1, select bank1
  3387  0601  1303               	bcf	3,6	;RP1=0, select bank1
  3388  0602  00A8               	movwf	___fldiv@a^(0+128)
  3389  0603  1683               	bsf	3,5	;RP0=1, select bank3
  3390  0604  1703               	bsf	3,6	;RP1=1, select bank3
  3391  0605  081F               	movf	(_lastout+3)^(0+384),w
  3392  0606  1283               	bcf	3,5	;RP0=0, select bank0
  3393  0607  1303               	bcf	3,6	;RP1=0, select bank0
  3394  0608  00CB               	movwf	___flmul@b+3
  3395  0609  1683               	bsf	3,5	;RP0=1, select bank3
  3396  060A  1703               	bsf	3,6	;RP1=1, select bank3
  3397  060B  081E               	movf	(_lastout+2)^(0+384),w
  3398  060C  1283               	bcf	3,5	;RP0=0, select bank0
  3399  060D  1303               	bcf	3,6	;RP1=0, select bank0
  3400  060E  00CA               	movwf	___flmul@b+2
  3401  060F  1683               	bsf	3,5	;RP0=1, select bank3
  3402  0610  1703               	bsf	3,6	;RP1=1, select bank3
  3403  0611  081D               	movf	(_lastout+1)^(0+384),w
  3404  0612  1283               	bcf	3,5	;RP0=0, select bank0
  3405  0613  1303               	bcf	3,6	;RP1=0, select bank0
  3406  0614  00C9               	movwf	___flmul@b+1
  3407  0615  1683               	bsf	3,5	;RP0=1, select bank3
  3408  0616  1703               	bsf	3,6	;RP1=1, select bank3
  3409  0617  081C               	movf	_lastout^(0+384),w
  3410  0618  1283               	bcf	3,5	;RP0=0, select bank0
  3411  0619  1303               	bcf	3,6	;RP1=0, select bank0
  3412  061A  00C8               	movwf	___flmul@b
  3413  061B  1283               	bcf	3,5	;RP0=0, select bank2
  3414  061C  1703               	bsf	3,6	;RP1=1, select bank2
  3415  061D  0823               	movf	(_tinh_pid$920+3)^(0+256),w
  3416  061E  1283               	bcf	3,5	;RP0=0, select bank0
  3417  061F  1303               	bcf	3,6	;RP1=0, select bank0
  3418  0620  00CF               	movwf	___flmul@a+3
  3419  0621  1283               	bcf	3,5	;RP0=0, select bank2
  3420  0622  1703               	bsf	3,6	;RP1=1, select bank2
  3421  0623  0822               	movf	(_tinh_pid$920+2)^(0+256),w
  3422  0624  1283               	bcf	3,5	;RP0=0, select bank0
  3423  0625  1303               	bcf	3,6	;RP1=0, select bank0
  3424  0626  00CE               	movwf	___flmul@a+2
  3425  0627  1283               	bcf	3,5	;RP0=0, select bank2
  3426  0628  1703               	bsf	3,6	;RP1=1, select bank2
  3427  0629  0821               	movf	(_tinh_pid$920+1)^(0+256),w
  3428  062A  1283               	bcf	3,5	;RP0=0, select bank0
  3429  062B  1303               	bcf	3,6	;RP1=0, select bank0
  3430  062C  00CD               	movwf	___flmul@a+1
  3431  062D  1283               	bcf	3,5	;RP0=0, select bank2
  3432  062E  1703               	bsf	3,6	;RP1=1, select bank2
  3433  062F  0820               	movf	_tinh_pid$920^(0+256),w
  3434  0630  1283               	bcf	3,5	;RP0=0, select bank0
  3435  0631  1303               	bcf	3,6	;RP1=0, select bank0
  3436  0632  00CC               	movwf	___flmul@a
  3437  0633  120A  158A  2139  120A  118A  	fcall	___flmul
  3438  0638  1283               	bcf	3,5	;RP0=0, select bank0
  3439  0639  1303               	bcf	3,6	;RP1=0, select bank0
  3440  063A  084B               	movf	?___flmul+3,w
  3441  063B  00E5               	movwf	___fladd@b+3
  3442  063C  084A               	movf	?___flmul+2,w
  3443  063D  00E4               	movwf	___fladd@b+2
  3444  063E  0849               	movf	?___flmul+1,w
  3445  063F  00E3               	movwf	___fladd@b+1
  3446  0640  0848               	movf	?___flmul,w
  3447  0641  00E2               	movwf	___fladd@b
  3448  0642  1283               	bcf	3,5	;RP0=0, select bank2
  3449  0643  1703               	bsf	3,6	;RP1=1, select bank2
  3450  0644  081F               	movf	(_tinh_pid$922+3)^(0+256),w
  3451  0645  1283               	bcf	3,5	;RP0=0, select bank0
  3452  0646  1303               	bcf	3,6	;RP1=0, select bank0
  3453  0647  00E9               	movwf	___fladd@a+3
  3454  0648  1283               	bcf	3,5	;RP0=0, select bank2
  3455  0649  1703               	bsf	3,6	;RP1=1, select bank2
  3456  064A  081E               	movf	(_tinh_pid$922+2)^(0+256),w
  3457  064B  1283               	bcf	3,5	;RP0=0, select bank0
  3458  064C  1303               	bcf	3,6	;RP1=0, select bank0
  3459  064D  00E8               	movwf	___fladd@a+2
  3460  064E  1283               	bcf	3,5	;RP0=0, select bank2
  3461  064F  1703               	bsf	3,6	;RP1=1, select bank2
  3462  0650  081D               	movf	(_tinh_pid$922+1)^(0+256),w
  3463  0651  1283               	bcf	3,5	;RP0=0, select bank0
  3464  0652  1303               	bcf	3,6	;RP1=0, select bank0
  3465  0653  00E7               	movwf	___fladd@a+1
  3466  0654  1283               	bcf	3,5	;RP0=0, select bank2
  3467  0655  1703               	bsf	3,6	;RP1=1, select bank2
  3468  0656  081C               	movf	_tinh_pid$922^(0+256),w
  3469  0657  1283               	bcf	3,5	;RP0=0, select bank0
  3470  0658  1303               	bcf	3,6	;RP1=0, select bank0
  3471  0659  00E6               	movwf	___fladd@a
  3472  065A  120A  158A  249A  120A  118A  	fcall	___fladd
  3473  065F  1283               	bcf	3,5	;RP0=0, select bank0
  3474  0660  1303               	bcf	3,6	;RP1=0, select bank0
  3475  0661  0865               	movf	?___fladd+3,w
  3476  0662  1683               	bsf	3,5	;RP0=1, select bank1
  3477  0663  1303               	bcf	3,6	;RP1=0, select bank1
  3478  0664  00AF               	movwf	(___fldiv@b+3)^(0+128)
  3479  0665  1283               	bcf	3,5	;RP0=0, select bank0
  3480  0666  1303               	bcf	3,6	;RP1=0, select bank0
  3481  0667  0864               	movf	?___fladd+2,w
  3482  0668  1683               	bsf	3,5	;RP0=1, select bank1
  3483  0669  1303               	bcf	3,6	;RP1=0, select bank1
  3484  066A  00AE               	movwf	(___fldiv@b+2)^(0+128)
  3485  066B  1283               	bcf	3,5	;RP0=0, select bank0
  3486  066C  1303               	bcf	3,6	;RP1=0, select bank0
  3487  066D  0863               	movf	?___fladd+1,w
  3488  066E  1683               	bsf	3,5	;RP0=1, select bank1
  3489  066F  1303               	bcf	3,6	;RP1=0, select bank1
  3490  0670  00AD               	movwf	(___fldiv@b+1)^(0+128)
  3491  0671  1283               	bcf	3,5	;RP0=0, select bank0
  3492  0672  1303               	bcf	3,6	;RP1=0, select bank0
  3493  0673  0862               	movf	?___fladd,w
  3494  0674  1683               	bsf	3,5	;RP0=1, select bank1
  3495  0675  1303               	bcf	3,6	;RP1=0, select bank1
  3496  0676  00AC               	movwf	___fldiv@b^(0+128)
  3497  0677  160A  118A  22E6  120A  118A  	fcall	___fldiv
  3498  067C  1683               	bsf	3,5	;RP0=1, select bank1
  3499  067D  1303               	bcf	3,6	;RP1=0, select bank1
  3500  067E  082B               	movf	(?___fldiv+3)^(0+128),w
  3501  067F  1683               	bsf	3,5	;RP0=1, select bank3
  3502  0680  1703               	bsf	3,6	;RP1=1, select bank3
  3503  0681  00A3               	movwf	(_out+3)^(0+384)
  3504  0682  1683               	bsf	3,5	;RP0=1, select bank1
  3505  0683  1303               	bcf	3,6	;RP1=0, select bank1
  3506  0684  082A               	movf	(?___fldiv+2)^(0+128),w
  3507  0685  1683               	bsf	3,5	;RP0=1, select bank3
  3508  0686  1703               	bsf	3,6	;RP1=1, select bank3
  3509  0687  00A2               	movwf	(_out+2)^(0+384)
  3510  0688  1683               	bsf	3,5	;RP0=1, select bank1
  3511  0689  1303               	bcf	3,6	;RP1=0, select bank1
  3512  068A  0829               	movf	(?___fldiv+1)^(0+128),w
  3513  068B  1683               	bsf	3,5	;RP0=1, select bank3
  3514  068C  1703               	bsf	3,6	;RP1=1, select bank3
  3515  068D  00A1               	movwf	(_out+1)^(0+384)
  3516  068E  1683               	bsf	3,5	;RP0=1, select bank1
  3517  068F  1303               	bcf	3,6	;RP1=0, select bank1
  3518  0690  0828               	movf	?___fldiv^(0+128),w
  3519  0691  1683               	bsf	3,5	;RP0=1, select bank3
  3520  0692  1703               	bsf	3,6	;RP1=1, select bank3
  3521  0693  00A0               	movwf	_out^(0+384)
  3522  0694                     l3948:
  3523                           
  3524                           ;Mach_encoder_4NN_LCD_PID_Pic16F887_MPlab.c: 177:         lastout=out;
  3525  0694  0823               	movf	(_out+3)^(0+384),w
  3526  0695  009F               	movwf	(_lastout+3)^(0+384)
  3527  0696  0822               	movf	(_out+2)^(0+384),w
  3528  0697  009E               	movwf	(_lastout+2)^(0+384)
  3529  0698  0821               	movf	(_out+1)^(0+384),w
  3530  0699  009D               	movwf	(_lastout+1)^(0+384)
  3531  069A  0820               	movf	_out^(0+384),w
  3532  069B  009C               	movwf	_lastout^(0+384)
  3533  069C                     l3950:
  3534                           
  3535                           ;Mach_encoder_4NN_LCD_PID_Pic16F887_MPlab.c: 178:         e2=e1;
  3536  069C  083F               	movf	(_e1+3)^(0+384),w
  3537  069D  00BB               	movwf	(_e2+3)^(0+384)
  3538  069E  083E               	movf	(_e1+2)^(0+384),w
  3539  069F  00BA               	movwf	(_e2+2)^(0+384)
  3540  06A0  083D               	movf	(_e1+1)^(0+384),w
  3541  06A1  00B9               	movwf	(_e2+1)^(0+384)
  3542  06A2  083C               	movf	_e1^(0+384),w
  3543  06A3  00B8               	movwf	_e2^(0+384)
  3544  06A4                     l3952:
  3545                           
  3546                           ;Mach_encoder_4NN_LCD_PID_Pic16F887_MPlab.c: 179:         e1=e;
  3547  06A4  0843               	movf	(_e+3)^(0+384),w
  3548  06A5  00BF               	movwf	(_e1+3)^(0+384)
  3549  06A6  0842               	movf	(_e+2)^(0+384),w
  3550  06A7  00BE               	movwf	(_e1+2)^(0+384)
  3551  06A8  0841               	movf	(_e+1)^(0+384),w
  3552  06A9  00BD               	movwf	(_e1+1)^(0+384)
  3553  06AA  0840               	movf	_e^(0+384),w
  3554  06AB  00BC               	movwf	_e1^(0+384)
  3555  06AC                     l3954:
  3556                           
  3557                           ;Mach_encoder_4NN_LCD_PID_Pic16F887_MPlab.c: 181:         if(out>999) out=999;
  3558  06AC  3044               	movlw	68
  3559  06AD  00F5               	movwf	___flge@ff1+3
  3560  06AE  3079               	movlw	121
  3561  06AF  00F4               	movwf	___flge@ff1+2
  3562  06B0  30C0               	movlw	192
  3563  06B1  00F3               	movwf	___flge@ff1+1
  3564  06B2  3000               	movlw	0
  3565  06B3  00F2               	movwf	___flge@ff1
  3566  06B4  0823               	movf	(_out+3)^(0+384),w
  3567  06B5  00F9               	movwf	___flge@ff2+3
  3568  06B6  0822               	movf	(_out+2)^(0+384),w
  3569  06B7  00F8               	movwf	___flge@ff2+2
  3570  06B8  0821               	movf	(_out+1)^(0+384),w
  3571  06B9  00F7               	movwf	___flge@ff2+1
  3572  06BA  0820               	movf	_out^(0+384),w
  3573  06BB  00F6               	movwf	___flge@ff2
  3574  06BC  160A  118A  2186  120A  118A  	fcall	___flge
  3575  06C1  1803               	btfsc	3,0
  3576  06C2  2EC4               	goto	u6461
  3577  06C3  2EC5               	goto	u6460
  3578  06C4                     u6461:
  3579  06C4  2ECF               	goto	l3958
  3580  06C5                     u6460:
  3581  06C5                     l3956:
  3582  06C5  3044               	movlw	68
  3583  06C6  1683               	bsf	3,5	;RP0=1, select bank3
  3584  06C7  1703               	bsf	3,6	;RP1=1, select bank3
  3585  06C8  00A3               	movwf	(_out+3)^(0+384)
  3586  06C9  3079               	movlw	121
  3587  06CA  00A2               	movwf	(_out+2)^(0+384)
  3588  06CB  30C0               	movlw	192
  3589  06CC  00A1               	movwf	(_out+1)^(0+384)
  3590  06CD  3000               	movlw	0
  3591  06CE  00A0               	movwf	_out^(0+384)
  3592  06CF                     l3958:
  3593                           
  3594                           ;Mach_encoder_4NN_LCD_PID_Pic16F887_MPlab.c: 182:         if(out<0) out=0;
  3595  06CF  1683               	bsf	3,5	;RP0=1, select bank3
  3596  06D0  1703               	bsf	3,6	;RP1=1, select bank3
  3597  06D1  0823               	movf	(_out+3)^(0+384),w
  3598  06D2  00F5               	movwf	___flge@ff1+3
  3599  06D3  0822               	movf	(_out+2)^(0+384),w
  3600  06D4  00F4               	movwf	___flge@ff1+2
  3601  06D5  0821               	movf	(_out+1)^(0+384),w
  3602  06D6  00F3               	movwf	___flge@ff1+1
  3603  06D7  0820               	movf	_out^(0+384),w
  3604  06D8  00F2               	movwf	___flge@ff1
  3605  06D9  3000               	movlw	0
  3606  06DA  00F9               	movwf	___flge@ff2+3
  3607  06DB  3000               	movlw	0
  3608  06DC  00F8               	movwf	___flge@ff2+2
  3609  06DD  3000               	movlw	0
  3610  06DE  00F7               	movwf	___flge@ff2+1
  3611  06DF  3000               	movlw	0
  3612  06E0  00F6               	movwf	___flge@ff2
  3613  06E1  160A  118A  2186  120A  118A  	fcall	___flge
  3614  06E6  1803               	btfsc	3,0
  3615  06E7  2EE9               	goto	u6471
  3616  06E8  2EEA               	goto	u6470
  3617  06E9                     u6471:
  3618  06E9  2EF4               	goto	l3962
  3619  06EA                     u6470:
  3620  06EA                     l3960:
  3621  06EA  3000               	movlw	0
  3622  06EB  1683               	bsf	3,5	;RP0=1, select bank3
  3623  06EC  1703               	bsf	3,6	;RP1=1, select bank3
  3624  06ED  00A3               	movwf	(_out+3)^(0+384)
  3625  06EE  3000               	movlw	0
  3626  06EF  00A2               	movwf	(_out+2)^(0+384)
  3627  06F0  3000               	movlw	0
  3628  06F1  00A1               	movwf	(_out+1)^(0+384)
  3629  06F2  3000               	movlw	0
  3630  06F3  00A0               	movwf	_out^(0+384)
  3631  06F4                     l3962:
  3632                           
  3633                           ;Mach_encoder_4NN_LCD_PID_Pic16F887_MPlab.c: 184:         pwmduty=out;
  3634  06F4  1683               	bsf	3,5	;RP0=1, select bank3
  3635  06F5  1703               	bsf	3,6	;RP1=1, select bank3
  3636  06F6  0823               	movf	(_out+3)^(0+384),w
  3637  06F7  1683               	bsf	3,5	;RP0=1, select bank1
  3638  06F8  1303               	bcf	3,6	;RP1=0, select bank1
  3639  06F9  00C5               	movwf	(___fltol@f1+3)^(0+128)
  3640  06FA  1683               	bsf	3,5	;RP0=1, select bank3
  3641  06FB  1703               	bsf	3,6	;RP1=1, select bank3
  3642  06FC  0822               	movf	(_out+2)^(0+384),w
  3643  06FD  1683               	bsf	3,5	;RP0=1, select bank1
  3644  06FE  1303               	bcf	3,6	;RP1=0, select bank1
  3645  06FF  00C4               	movwf	(___fltol@f1+2)^(0+128)
  3646  0700  1683               	bsf	3,5	;RP0=1, select bank3
  3647  0701  1703               	bsf	3,6	;RP1=1, select bank3
  3648  0702  0821               	movf	(_out+1)^(0+384),w
  3649  0703  1683               	bsf	3,5	;RP0=1, select bank1
  3650  0704  1303               	bcf	3,6	;RP1=0, select bank1
  3651  0705  00C3               	movwf	(___fltol@f1+1)^(0+128)
  3652  0706  1683               	bsf	3,5	;RP0=1, select bank3
  3653  0707  1703               	bsf	3,6	;RP1=1, select bank3
  3654  0708  0820               	movf	_out^(0+384),w
  3655  0709  1683               	bsf	3,5	;RP0=1, select bank1
  3656  070A  1303               	bcf	3,6	;RP1=0, select bank1
  3657  070B  00C2               	movwf	___fltol@f1^(0+128)
  3658  070C  160A  118A  2057  120A  118A  	fcall	___fltol
  3659  0711  1683               	bsf	3,5	;RP0=1, select bank1
  3660  0712  1303               	bcf	3,6	;RP1=0, select bank1
  3661  0713  0845               	movf	(?___fltol+3)^(0+128),w
  3662  0714  00D7               	movwf	(_pwmduty+3)^(0+128)
  3663  0715  0844               	movf	(?___fltol+2)^(0+128),w
  3664  0716  00D6               	movwf	(_pwmduty+2)^(0+128)
  3665  0717  0843               	movf	(?___fltol+1)^(0+128),w
  3666  0718  00D5               	movwf	(_pwmduty+1)^(0+128)
  3667  0719  0842               	movf	?___fltol^(0+128),w
  3668  071A  00D4               	movwf	_pwmduty^(0+128)
  3669  071B                     l3964:
  3670                           
  3671                           ;Mach_encoder_4NN_LCD_PID_Pic16F887_MPlab.c: 186:     if(tt_inv==1) PWM1_Duty(pwmduty);
  3672  071B  1303               	bcf	3,6	;RP1=0, select bank1
  3673  071C  0358               	decf	_tt_inv^(0+128),w
  3674  071D  0459               	iorwf	(_tt_inv+1)^(0+128),w
  3675  071E  1D03               	btfss	3,2
  3676  071F  2F21               	goto	u6481
  3677  0720  2F22               	goto	u6480
  3678  0721                     u6481:
  3679  0721  2F2C               	goto	l3968
  3680  0722                     u6480:
  3681  0722                     l3966:
  3682  0722  0855               	movf	(_pwmduty+1)^(0+128),w
  3683  0723  00CC               	movwf	(PWM1_Duty@duty+1)^(0+128)
  3684  0724  0854               	movf	_pwmduty^(0+128),w
  3685  0725  00CB               	movwf	PWM1_Duty@duty^(0+128)
  3686  0726  120A  158A  2077  120A  118A  	fcall	_PWM1_Duty
  3687  072B  2F35               	goto	l244
  3688  072C                     l3968:
  3689  072C  0855               	movf	(_pwmduty+1)^(0+128),w
  3690  072D  00CC               	movwf	(PWM2_Duty@duty+1)^(0+128)
  3691  072E  0854               	movf	_pwmduty^(0+128),w
  3692  072F  00CB               	movwf	PWM2_Duty@duty^(0+128)
  3693  0730  120A  118A  2736  120A  118A  	fcall	_PWM2_Duty
  3694  0735                     l244:
  3695  0735  0008               	return
  3696  0736                     __end_of_tinh_pid:
  3697                           
  3698                           	psect	text2
  3699  1C6C                     __ptext2:	
  3700 ;; *************** function ___lmul *****************
  3701 ;; Defined at:
  3702 ;;		line 15 in file "E:\Program Files\Microchip\xc8\v2.30\pic\sources\c90\common\Umul32.c"
  3703 ;; Parameters:    Size  Location     Type
  3704 ;;  multiplier      4    2[COMMON] unsigned long 
  3705 ;;  multiplicand    4    6[COMMON] unsigned long 
  3706 ;; Auto vars:     Size  Location     Type
  3707 ;;  product         4    1[BANK0 ] unsigned long 
  3708 ;; Return value:  Size  Location     Type
  3709 ;;                  4    2[COMMON] unsigned long 
  3710 ;; Registers used:
  3711 ;;		wreg, status,2, status,0
  3712 ;; Tracked objects:
  3713 ;;		On entry : 0/0
  3714 ;;		On exit  : 0/0
  3715 ;;		Unchanged: 0/0
  3716 ;; Data sizes:     COMMON   BANK0   BANK1   BANK3   BANK2
  3717 ;;      Params:         8       0       0       0       0
  3718 ;;      Locals:         0       4       0       0       0
  3719 ;;      Temps:          0       1       0       0       0
  3720 ;;      Totals:         8       5       0       0       0
  3721 ;;Total ram usage:       13 bytes
  3722 ;; Hardware stack levels used:    1
  3723 ;; Hardware stack levels required when called:    1
  3724 ;; This function calls:
  3725 ;;		Nothing
  3726 ;; This function is called by:
  3727 ;;		_tinh_pid
  3728 ;; This function uses a non-reentrant model
  3729 ;;
  3730                           
  3731                           
  3732                           ;psect for function ___lmul
  3733  1C6C                     ___lmul:
  3734  1C6C                     l3760:	
  3735                           ;incstack = 0
  3736                           ; Regs used in ___lmul: [wreg+status,2+status,0]
  3737                           
  3738  1C6C  3000               	movlw	0
  3739  1C6D  1283               	bcf	3,5	;RP0=0, select bank0
  3740  1C6E  1303               	bcf	3,6	;RP1=0, select bank0
  3741  1C6F  00A4               	movwf	___lmul@product+3
  3742  1C70  3000               	movlw	0
  3743  1C71  00A3               	movwf	___lmul@product+2
  3744  1C72  3000               	movlw	0
  3745  1C73  00A2               	movwf	___lmul@product+1
  3746  1C74  3000               	movlw	0
  3747  1C75  00A1               	movwf	___lmul@product
  3748  1C76                     l3762:
  3749  1C76  1C72               	btfss	___lmul@multiplier,0
  3750  1C77  2C79               	goto	u6141
  3751  1C78  2C7A               	goto	u6140
  3752  1C79                     u6141:
  3753  1C79  2C91               	goto	l3766
  3754  1C7A                     u6140:
  3755  1C7A                     l3764:
  3756  1C7A  0876               	movf	___lmul@multiplicand,w
  3757  1C7B  07A1               	addwf	___lmul@product,f
  3758  1C7C  0877               	movf	___lmul@multiplicand+1,w
  3759  1C7D  1103               	clrz
  3760  1C7E  1803               	skipnc
  3761  1C7F  3E01               	addlw	1
  3762  1C80  1903               	skipnz
  3763  1C81  2C83               	goto	u6151
  3764  1C82  07A2               	addwf	___lmul@product+1,f
  3765  1C83                     u6151:
  3766  1C83  0878               	movf	___lmul@multiplicand+2,w
  3767  1C84  1103               	clrz
  3768  1C85  1803               	skipnc
  3769  1C86  3E01               	addlw	1
  3770  1C87  1903               	skipnz
  3771  1C88  2C8A               	goto	u6152
  3772  1C89  07A3               	addwf	___lmul@product+2,f
  3773  1C8A                     u6152:
  3774  1C8A  0879               	movf	___lmul@multiplicand+3,w
  3775  1C8B  1103               	clrz
  3776  1C8C  1803               	skipnc
  3777  1C8D  3E01               	addlw	1
  3778  1C8E  1903               	skipnz
  3779  1C8F  2C91               	goto	u6153
  3780  1C90  07A4               	addwf	___lmul@product+3,f
  3781  1C91                     u6153:
  3782  1C91                     l3766:
  3783  1C91  3001               	movlw	1
  3784  1C92  00A0               	movwf	??___lmul
  3785  1C93                     u6165:
  3786  1C93  1003               	clrc
  3787  1C94  0DF6               	rlf	___lmul@multiplicand,f
  3788  1C95  0DF7               	rlf	___lmul@multiplicand+1,f
  3789  1C96  0DF8               	rlf	___lmul@multiplicand+2,f
  3790  1C97  0DF9               	rlf	___lmul@multiplicand+3,f
  3791  1C98  0BA0               	decfsz	??___lmul,f
  3792  1C99  2C93               	goto	u6165
  3793  1C9A                     l3768:
  3794  1C9A  3001               	movlw	1
  3795  1C9B                     u6175:
  3796  1C9B  1003               	clrc
  3797  1C9C  0CF5               	rrf	___lmul@multiplier+3,f
  3798  1C9D  0CF4               	rrf	___lmul@multiplier+2,f
  3799  1C9E  0CF3               	rrf	___lmul@multiplier+1,f
  3800  1C9F  0CF2               	rrf	___lmul@multiplier,f
  3801  1CA0  3EFF               	addlw	-1
  3802  1CA1  1D03               	skipz
  3803  1CA2  2C9B               	goto	u6175
  3804  1CA3  0875               	movf	___lmul@multiplier+3,w
  3805  1CA4  0474               	iorwf	___lmul@multiplier+2,w
  3806  1CA5  0473               	iorwf	___lmul@multiplier+1,w
  3807  1CA6  0472               	iorwf	___lmul@multiplier,w
  3808  1CA7  1D03               	skipz
  3809  1CA8  2CAA               	goto	u6181
  3810  1CA9  2CAB               	goto	u6180
  3811  1CAA                     u6181:
  3812  1CAA  2C76               	goto	l3762
  3813  1CAB                     u6180:
  3814  1CAB                     l3770:
  3815  1CAB  0824               	movf	___lmul@product+3,w
  3816  1CAC  00F5               	movwf	?___lmul+3
  3817  1CAD  0823               	movf	___lmul@product+2,w
  3818  1CAE  00F4               	movwf	?___lmul+2
  3819  1CAF  0822               	movf	___lmul@product+1,w
  3820  1CB0  00F3               	movwf	?___lmul+1
  3821  1CB1  0821               	movf	___lmul@product,w
  3822  1CB2  00F2               	movwf	?___lmul
  3823  1CB3                     l362:
  3824  1CB3  0008               	return
  3825  1CB4                     __end_of___lmul:
  3826                           
  3827                           	psect	text3
  3828  1D00                     __ptext3:	
  3829 ;; *************** function ___flsub *****************
  3830 ;; Defined at:
  3831 ;;		line 242 in file "E:\Program Files\Microchip\xc8\v2.30\pic\sources\c90\common\sprcadd.c"
  3832 ;; Parameters:    Size  Location     Type
  3833 ;;  a               4    8[BANK1 ] unsigned long 
  3834 ;;  b               4   12[BANK1 ] unsigned long 
  3835 ;; Auto vars:     Size  Location     Type
  3836 ;;		None
  3837 ;; Return value:  Size  Location     Type
  3838 ;;                  4    8[BANK1 ] unsigned long 
  3839 ;; Registers used:
  3840 ;;		wreg, status,2, status,0, btemp+1, pclath, cstack
  3841 ;; Tracked objects:
  3842 ;;		On entry : 0/0
  3843 ;;		On exit  : 0/0
  3844 ;;		Unchanged: 0/0
  3845 ;; Data sizes:     COMMON   BANK0   BANK1   BANK3   BANK2
  3846 ;;      Params:         0       0       8       0       0
  3847 ;;      Locals:         0       0       0       0       0
  3848 ;;      Temps:          0       0       0       0       0
  3849 ;;      Totals:         0       0       8       0       0
  3850 ;;Total ram usage:        8 bytes
  3851 ;; Hardware stack levels used:    1
  3852 ;; Hardware stack levels required when called:    2
  3853 ;; This function calls:
  3854 ;;		___fladd
  3855 ;; This function is called by:
  3856 ;;		_tinh_pid
  3857 ;; This function uses a non-reentrant model
  3858 ;;
  3859                           
  3860                           
  3861                           ;psect for function ___flsub
  3862  1D00                     ___flsub:
  3863  1D00                     l3794:	
  3864                           ;incstack = 0
  3865                           ; Regs used in ___flsub: [wreg+status,2+status,0+btemp+1+pclath+cstack]
  3866                           
  3867  1D00  3080               	movlw	128
  3868  1D01  1683               	bsf	3,5	;RP0=1, select bank1
  3869  1D02  1303               	bcf	3,6	;RP1=0, select bank1
  3870  1D03  06AB               	xorwf	(___flsub@a+3)^(0+128),f
  3871  1D04                     l3796:
  3872  1D04  082F               	movf	(___flsub@b+3)^(0+128),w
  3873  1D05  1283               	bcf	3,5	;RP0=0, select bank0
  3874  1D06  1303               	bcf	3,6	;RP1=0, select bank0
  3875  1D07  00E5               	movwf	___fladd@b+3
  3876  1D08  1683               	bsf	3,5	;RP0=1, select bank1
  3877  1D09  1303               	bcf	3,6	;RP1=0, select bank1
  3878  1D0A  082E               	movf	(___flsub@b+2)^(0+128),w
  3879  1D0B  1283               	bcf	3,5	;RP0=0, select bank0
  3880  1D0C  1303               	bcf	3,6	;RP1=0, select bank0
  3881  1D0D  00E4               	movwf	___fladd@b+2
  3882  1D0E  1683               	bsf	3,5	;RP0=1, select bank1
  3883  1D0F  1303               	bcf	3,6	;RP1=0, select bank1
  3884  1D10  082D               	movf	(___flsub@b+1)^(0+128),w
  3885  1D11  1283               	bcf	3,5	;RP0=0, select bank0
  3886  1D12  1303               	bcf	3,6	;RP1=0, select bank0
  3887  1D13  00E3               	movwf	___fladd@b+1
  3888  1D14  1683               	bsf	3,5	;RP0=1, select bank1
  3889  1D15  1303               	bcf	3,6	;RP1=0, select bank1
  3890  1D16  082C               	movf	___flsub@b^(0+128),w
  3891  1D17  1283               	bcf	3,5	;RP0=0, select bank0
  3892  1D18  1303               	bcf	3,6	;RP1=0, select bank0
  3893  1D19  00E2               	movwf	___fladd@b
  3894  1D1A  1683               	bsf	3,5	;RP0=1, select bank1
  3895  1D1B  1303               	bcf	3,6	;RP1=0, select bank1
  3896  1D1C  082B               	movf	(___flsub@a+3)^(0+128),w
  3897  1D1D  1283               	bcf	3,5	;RP0=0, select bank0
  3898  1D1E  1303               	bcf	3,6	;RP1=0, select bank0
  3899  1D1F  00E9               	movwf	___fladd@a+3
  3900  1D20  1683               	bsf	3,5	;RP0=1, select bank1
  3901  1D21  1303               	bcf	3,6	;RP1=0, select bank1
  3902  1D22  082A               	movf	(___flsub@a+2)^(0+128),w
  3903  1D23  1283               	bcf	3,5	;RP0=0, select bank0
  3904  1D24  1303               	bcf	3,6	;RP1=0, select bank0
  3905  1D25  00E8               	movwf	___fladd@a+2
  3906  1D26  1683               	bsf	3,5	;RP0=1, select bank1
  3907  1D27  1303               	bcf	3,6	;RP1=0, select bank1
  3908  1D28  0829               	movf	(___flsub@a+1)^(0+128),w
  3909  1D29  1283               	bcf	3,5	;RP0=0, select bank0
  3910  1D2A  1303               	bcf	3,6	;RP1=0, select bank0
  3911  1D2B  00E7               	movwf	___fladd@a+1
  3912  1D2C  1683               	bsf	3,5	;RP0=1, select bank1
  3913  1D2D  1303               	bcf	3,6	;RP1=0, select bank1
  3914  1D2E  0828               	movf	___flsub@a^(0+128),w
  3915  1D2F  1283               	bcf	3,5	;RP0=0, select bank0
  3916  1D30  1303               	bcf	3,6	;RP1=0, select bank0
  3917  1D31  00E6               	movwf	___fladd@a
  3918  1D32  120A  158A  249A  160A  158A  	fcall	___fladd
  3919  1D37  1283               	bcf	3,5	;RP0=0, select bank0
  3920  1D38  1303               	bcf	3,6	;RP1=0, select bank0
  3921  1D39  0865               	movf	?___fladd+3,w
  3922  1D3A  1683               	bsf	3,5	;RP0=1, select bank1
  3923  1D3B  1303               	bcf	3,6	;RP1=0, select bank1
  3924  1D3C  00AB               	movwf	(?___flsub+3)^(0+128)
  3925  1D3D  1283               	bcf	3,5	;RP0=0, select bank0
  3926  1D3E  1303               	bcf	3,6	;RP1=0, select bank0
  3927  1D3F  0864               	movf	?___fladd+2,w
  3928  1D40  1683               	bsf	3,5	;RP0=1, select bank1
  3929  1D41  1303               	bcf	3,6	;RP1=0, select bank1
  3930  1D42  00AA               	movwf	(?___flsub+2)^(0+128)
  3931  1D43  1283               	bcf	3,5	;RP0=0, select bank0
  3932  1D44  1303               	bcf	3,6	;RP1=0, select bank0
  3933  1D45  0863               	movf	?___fladd+1,w
  3934  1D46  1683               	bsf	3,5	;RP0=1, select bank1
  3935  1D47  1303               	bcf	3,6	;RP1=0, select bank1
  3936  1D48  00A9               	movwf	(?___flsub+1)^(0+128)
  3937  1D49  1283               	bcf	3,5	;RP0=0, select bank0
  3938  1D4A  1303               	bcf	3,6	;RP1=0, select bank0
  3939  1D4B  0862               	movf	?___fladd,w
  3940  1D4C  1683               	bsf	3,5	;RP0=1, select bank1
  3941  1D4D  1303               	bcf	3,6	;RP1=0, select bank1
  3942  1D4E  00A8               	movwf	?___flsub^(0+128)
  3943  1D4F                     l687:
  3944  1D4F  0008               	return
  3945  1D50                     __end_of___flsub:
  3946                           
  3947                           	psect	text4
  3948  0C9A                     __ptext4:	
  3949 ;; *************** function ___fladd *****************
  3950 ;; Defined at:
  3951 ;;		line 10 in file "E:\Program Files\Microchip\xc8\v2.30\pic\sources\c90\common\sprcadd.c"
  3952 ;; Parameters:    Size  Location     Type
  3953 ;;  b               4   66[BANK0 ] unsigned long 
  3954 ;;  a               4   70[BANK0 ] unsigned long 
  3955 ;; Auto vars:     Size  Location     Type
  3956 ;;  grs             1   77[BANK0 ] unsigned char 
  3957 ;;  bexp            1   76[BANK0 ] unsigned char 
  3958 ;;  aexp            1   75[BANK0 ] unsigned char 
  3959 ;;  signs           1   74[BANK0 ] unsigned char 
  3960 ;; Return value:  Size  Location     Type
  3961 ;;                  4   66[BANK0 ] unsigned char 
  3962 ;; Registers used:
  3963 ;;		wreg, status,2, status,0, btemp+1
  3964 ;; Tracked objects:
  3965 ;;		On entry : 0/0
  3966 ;;		On exit  : 0/0
  3967 ;;		Unchanged: 0/0
  3968 ;; Data sizes:     COMMON   BANK0   BANK1   BANK3   BANK2
  3969 ;;      Params:         0       8       0       0       0
  3970 ;;      Locals:         0       4       0       0       0
  3971 ;;      Temps:          0       0       8       0       0
  3972 ;;      Totals:         0      12       8       0       0
  3973 ;;Total ram usage:       20 bytes
  3974 ;; Hardware stack levels used:    1
  3975 ;; Hardware stack levels required when called:    1
  3976 ;; This function calls:
  3977 ;;		Nothing
  3978 ;; This function is called by:
  3979 ;;		_tinh_pid
  3980 ;;		___flsub
  3981 ;; This function uses a non-reentrant model
  3982 ;;
  3983                           
  3984                           
  3985                           ;psect for function ___fladd
  3986  0C9A                     ___fladd:
  3987  0C9A                     l3190:	
  3988                           ;incstack = 0
  3989                           ; Regs used in ___fladd: [wreg+status,2+status,0+btemp+1]
  3990                           
  3991  0C9A  1283               	bcf	3,5	;RP0=0, select bank0
  3992  0C9B  1303               	bcf	3,6	;RP1=0, select bank0
  3993  0C9C  0865               	movf	___fladd@b+3,w
  3994  0C9D  3980               	andlw	128
  3995  0C9E  1683               	bsf	3,5	;RP0=1, select bank1
  3996  0C9F  1303               	bcf	3,6	;RP1=0, select bank1
  3997  0CA0  00A0               	movwf	??___fladd^(0+128)
  3998  0CA1  0820               	movf	??___fladd^(0+128),w
  3999  0CA2  1283               	bcf	3,5	;RP0=0, select bank0
  4000  0CA3  1303               	bcf	3,6	;RP1=0, select bank0
  4001  0CA4  00EA               	movwf	___fladd@signs
  4002  0CA5                     l3192:
  4003  0CA5  0865               	movf	___fladd@b+3,w
  4004  0CA6  1683               	bsf	3,5	;RP0=1, select bank1
  4005  0CA7  1303               	bcf	3,6	;RP1=0, select bank1
  4006  0CA8  00A0               	movwf	??___fladd^(0+128)
  4007  0CA9  0720               	addwf	??___fladd^(0+128),w
  4008  0CAA  00A1               	movwf	(??___fladd+1)^(0+128)
  4009  0CAB  0821               	movf	(??___fladd+1)^(0+128),w
  4010  0CAC  1283               	bcf	3,5	;RP0=0, select bank0
  4011  0CAD  1303               	bcf	3,6	;RP1=0, select bank0
  4012  0CAE  00EC               	movwf	___fladd@bexp
  4013  0CAF                     l3194:
  4014  0CAF  1FE4               	btfss	___fladd@b+2,7
  4015  0CB0  2CB2               	goto	u4811
  4016  0CB1  2CB3               	goto	u4810
  4017  0CB2                     u4811:
  4018  0CB2  2CB4               	goto	l3198
  4019  0CB3                     u4810:
  4020  0CB3                     l3196:
  4021  0CB3  146C               	bsf	___fladd@bexp,0
  4022  0CB4                     l3198:
  4023  0CB4  086C               	movf	___fladd@bexp,w
  4024  0CB5  1903               	btfsc	3,2
  4025  0CB6  2CB8               	goto	u4821
  4026  0CB7  2CB9               	goto	u4820
  4027  0CB8                     u4821:
  4028  0CB8  2CC9               	goto	l3208
  4029  0CB9                     u4820:
  4030  0CB9                     l3200:
  4031  0CB9  0A6C               	incf	___fladd@bexp,w
  4032  0CBA  1D03               	btfss	3,2
  4033  0CBB  2CBD               	goto	u4831
  4034  0CBC  2CBE               	goto	u4830
  4035  0CBD                     u4831:
  4036  0CBD  2CC6               	goto	l3204
  4037  0CBE                     u4830:
  4038  0CBE                     l3202:
  4039  0CBE  3000               	movlw	0
  4040  0CBF  00E5               	movwf	___fladd@b+3
  4041  0CC0  3000               	movlw	0
  4042  0CC1  00E4               	movwf	___fladd@b+2
  4043  0CC2  3000               	movlw	0
  4044  0CC3  00E3               	movwf	___fladd@b+1
  4045  0CC4  3000               	movlw	0
  4046  0CC5  00E2               	movwf	___fladd@b
  4047  0CC6                     l3204:
  4048  0CC6  17E4               	bsf	___fladd@b+2,7
  4049  0CC7                     l3206:
  4050  0CC7  01E5               	clrf	___fladd@b+3
  4051  0CC8  2CD1               	goto	l3210
  4052  0CC9                     l3208:
  4053  0CC9  3000               	movlw	0
  4054  0CCA  00E5               	movwf	___fladd@b+3
  4055  0CCB  3000               	movlw	0
  4056  0CCC  00E4               	movwf	___fladd@b+2
  4057  0CCD  3000               	movlw	0
  4058  0CCE  00E3               	movwf	___fladd@b+1
  4059  0CCF  3000               	movlw	0
  4060  0CD0  00E2               	movwf	___fladd@b
  4061  0CD1                     l3210:
  4062  0CD1  0869               	movf	___fladd@a+3,w
  4063  0CD2  3980               	andlw	128
  4064  0CD3  1683               	bsf	3,5	;RP0=1, select bank1
  4065  0CD4  1303               	bcf	3,6	;RP1=0, select bank1
  4066  0CD5  00A0               	movwf	??___fladd^(0+128)
  4067  0CD6  0820               	movf	??___fladd^(0+128),w
  4068  0CD7  1283               	bcf	3,5	;RP0=0, select bank0
  4069  0CD8  1303               	bcf	3,6	;RP1=0, select bank0
  4070  0CD9  00EB               	movwf	___fladd@aexp
  4071  0CDA                     l3212:
  4072  0CDA  086B               	movf	___fladd@aexp,w
  4073  0CDB  066A               	xorwf	___fladd@signs,w
  4074  0CDC  1903               	skipnz
  4075  0CDD  2CDF               	goto	u4841
  4076  0CDE  2CE0               	goto	u4840
  4077  0CDF                     u4841:
  4078  0CDF  2CE1               	goto	l3216
  4079  0CE0                     u4840:
  4080  0CE0                     l3214:
  4081  0CE0  176A               	bsf	___fladd@signs,6
  4082  0CE1                     l3216:
  4083  0CE1  0869               	movf	___fladd@a+3,w
  4084  0CE2  1683               	bsf	3,5	;RP0=1, select bank1
  4085  0CE3  1303               	bcf	3,6	;RP1=0, select bank1
  4086  0CE4  00A0               	movwf	??___fladd^(0+128)
  4087  0CE5  0720               	addwf	??___fladd^(0+128),w
  4088  0CE6  00A1               	movwf	(??___fladd+1)^(0+128)
  4089  0CE7  0821               	movf	(??___fladd+1)^(0+128),w
  4090  0CE8  1283               	bcf	3,5	;RP0=0, select bank0
  4091  0CE9  1303               	bcf	3,6	;RP1=0, select bank0
  4092  0CEA  00EB               	movwf	___fladd@aexp
  4093  0CEB                     l3218:
  4094  0CEB  1FE8               	btfss	___fladd@a+2,7
  4095  0CEC  2CEE               	goto	u4851
  4096  0CED  2CEF               	goto	u4850
  4097  0CEE                     u4851:
  4098  0CEE  2CF0               	goto	l3222
  4099  0CEF                     u4850:
  4100  0CEF                     l3220:
  4101  0CEF  146B               	bsf	___fladd@aexp,0
  4102  0CF0                     l3222:
  4103  0CF0  086B               	movf	___fladd@aexp,w
  4104  0CF1  1903               	btfsc	3,2
  4105  0CF2  2CF4               	goto	u4861
  4106  0CF3  2CF5               	goto	u4860
  4107  0CF4                     u4861:
  4108  0CF4  2D05               	goto	l3232
  4109  0CF5                     u4860:
  4110  0CF5                     l3224:
  4111  0CF5  0A6B               	incf	___fladd@aexp,w
  4112  0CF6  1D03               	btfss	3,2
  4113  0CF7  2CF9               	goto	u4871
  4114  0CF8  2CFA               	goto	u4870
  4115  0CF9                     u4871:
  4116  0CF9  2D02               	goto	l3228
  4117  0CFA                     u4870:
  4118  0CFA                     l3226:
  4119  0CFA  3000               	movlw	0
  4120  0CFB  00E9               	movwf	___fladd@a+3
  4121  0CFC  3000               	movlw	0
  4122  0CFD  00E8               	movwf	___fladd@a+2
  4123  0CFE  3000               	movlw	0
  4124  0CFF  00E7               	movwf	___fladd@a+1
  4125  0D00  3000               	movlw	0
  4126  0D01  00E6               	movwf	___fladd@a
  4127  0D02                     l3228:
  4128  0D02  17E8               	bsf	___fladd@a+2,7
  4129  0D03                     l3230:
  4130  0D03  01E9               	clrf	___fladd@a+3
  4131  0D04  2D0D               	goto	l641
  4132  0D05                     l3232:
  4133  0D05  3000               	movlw	0
  4134  0D06  00E9               	movwf	___fladd@a+3
  4135  0D07  3000               	movlw	0
  4136  0D08  00E8               	movwf	___fladd@a+2
  4137  0D09  3000               	movlw	0
  4138  0D0A  00E7               	movwf	___fladd@a+1
  4139  0D0B  3000               	movlw	0
  4140  0D0C  00E6               	movwf	___fladd@a
  4141  0D0D                     l641:
  4142  0D0D  086C               	movf	___fladd@bexp,w
  4143  0D0E  026B               	subwf	___fladd@aexp,w
  4144  0D0F  1803               	skipnc
  4145  0D10  2D12               	goto	u4881
  4146  0D11  2D13               	goto	u4880
  4147  0D12                     u4881:
  4148  0D12  2D97               	goto	l3268
  4149  0D13                     u4880:
  4150  0D13                     l3234:
  4151  0D13  1F6A               	btfss	___fladd@signs,6
  4152  0D14  2D16               	goto	u4891
  4153  0D15  2D17               	goto	u4890
  4154  0D16                     u4891:
  4155  0D16  2D1F               	goto	l3238
  4156  0D17                     u4890:
  4157  0D17                     l3236:
  4158  0D17  3080               	movlw	128
  4159  0D18  1683               	bsf	3,5	;RP0=1, select bank1
  4160  0D19  1303               	bcf	3,6	;RP1=0, select bank1
  4161  0D1A  00A0               	movwf	??___fladd^(0+128)
  4162  0D1B  0820               	movf	??___fladd^(0+128),w
  4163  0D1C  1283               	bcf	3,5	;RP0=0, select bank0
  4164  0D1D  1303               	bcf	3,6	;RP1=0, select bank0
  4165  0D1E  06EA               	xorwf	___fladd@signs,f
  4166  0D1F                     l3238:
  4167  0D1F  086C               	movf	___fladd@bexp,w
  4168  0D20  1683               	bsf	3,5	;RP0=1, select bank1
  4169  0D21  1303               	bcf	3,6	;RP1=0, select bank1
  4170  0D22  00A0               	movwf	??___fladd^(0+128)
  4171  0D23  0820               	movf	??___fladd^(0+128),w
  4172  0D24  1283               	bcf	3,5	;RP0=0, select bank0
  4173  0D25  1303               	bcf	3,6	;RP1=0, select bank0
  4174  0D26  00ED               	movwf	___fladd@grs
  4175  0D27                     l3240:
  4176  0D27  086B               	movf	___fladd@aexp,w
  4177  0D28  1683               	bsf	3,5	;RP0=1, select bank1
  4178  0D29  1303               	bcf	3,6	;RP1=0, select bank1
  4179  0D2A  00A0               	movwf	??___fladd^(0+128)
  4180  0D2B  0820               	movf	??___fladd^(0+128),w
  4181  0D2C  1283               	bcf	3,5	;RP0=0, select bank0
  4182  0D2D  1303               	bcf	3,6	;RP1=0, select bank0
  4183  0D2E  00EC               	movwf	___fladd@bexp
  4184  0D2F                     l3242:
  4185  0D2F  086D               	movf	___fladd@grs,w
  4186  0D30  1683               	bsf	3,5	;RP0=1, select bank1
  4187  0D31  1303               	bcf	3,6	;RP1=0, select bank1
  4188  0D32  00A0               	movwf	??___fladd^(0+128)
  4189  0D33  0820               	movf	??___fladd^(0+128),w
  4190  0D34  1283               	bcf	3,5	;RP0=0, select bank0
  4191  0D35  1303               	bcf	3,6	;RP1=0, select bank0
  4192  0D36  00EB               	movwf	___fladd@aexp
  4193  0D37                     l3244:
  4194  0D37  0862               	movf	___fladd@b,w
  4195  0D38  1683               	bsf	3,5	;RP0=1, select bank1
  4196  0D39  1303               	bcf	3,6	;RP1=0, select bank1
  4197  0D3A  00A0               	movwf	??___fladd^(0+128)
  4198  0D3B  0820               	movf	??___fladd^(0+128),w
  4199  0D3C  1283               	bcf	3,5	;RP0=0, select bank0
  4200  0D3D  1303               	bcf	3,6	;RP1=0, select bank0
  4201  0D3E  00ED               	movwf	___fladd@grs
  4202  0D3F                     l3246:
  4203  0D3F  0866               	movf	___fladd@a,w
  4204  0D40  1683               	bsf	3,5	;RP0=1, select bank1
  4205  0D41  1303               	bcf	3,6	;RP1=0, select bank1
  4206  0D42  00A0               	movwf	??___fladd^(0+128)
  4207  0D43  0820               	movf	??___fladd^(0+128),w
  4208  0D44  1283               	bcf	3,5	;RP0=0, select bank0
  4209  0D45  1303               	bcf	3,6	;RP1=0, select bank0
  4210  0D46  00E2               	movwf	___fladd@b
  4211  0D47                     l3248:
  4212  0D47  086D               	movf	___fladd@grs,w
  4213  0D48  1683               	bsf	3,5	;RP0=1, select bank1
  4214  0D49  1303               	bcf	3,6	;RP1=0, select bank1
  4215  0D4A  00A0               	movwf	??___fladd^(0+128)
  4216  0D4B  0820               	movf	??___fladd^(0+128),w
  4217  0D4C  1283               	bcf	3,5	;RP0=0, select bank0
  4218  0D4D  1303               	bcf	3,6	;RP1=0, select bank0
  4219  0D4E  00E6               	movwf	___fladd@a
  4220  0D4F                     l3250:
  4221  0D4F  0863               	movf	___fladd@b+1,w
  4222  0D50  1683               	bsf	3,5	;RP0=1, select bank1
  4223  0D51  1303               	bcf	3,6	;RP1=0, select bank1
  4224  0D52  00A0               	movwf	??___fladd^(0+128)
  4225  0D53  0820               	movf	??___fladd^(0+128),w
  4226  0D54  1283               	bcf	3,5	;RP0=0, select bank0
  4227  0D55  1303               	bcf	3,6	;RP1=0, select bank0
  4228  0D56  00ED               	movwf	___fladd@grs
  4229  0D57                     l3252:
  4230  0D57  0867               	movf	___fladd@a+1,w
  4231  0D58  1683               	bsf	3,5	;RP0=1, select bank1
  4232  0D59  1303               	bcf	3,6	;RP1=0, select bank1
  4233  0D5A  00A0               	movwf	??___fladd^(0+128)
  4234  0D5B  0820               	movf	??___fladd^(0+128),w
  4235  0D5C  1283               	bcf	3,5	;RP0=0, select bank0
  4236  0D5D  1303               	bcf	3,6	;RP1=0, select bank0
  4237  0D5E  00E3               	movwf	___fladd@b+1
  4238  0D5F                     l3254:
  4239  0D5F  086D               	movf	___fladd@grs,w
  4240  0D60  1683               	bsf	3,5	;RP0=1, select bank1
  4241  0D61  1303               	bcf	3,6	;RP1=0, select bank1
  4242  0D62  00A0               	movwf	??___fladd^(0+128)
  4243  0D63  0820               	movf	??___fladd^(0+128),w
  4244  0D64  1283               	bcf	3,5	;RP0=0, select bank0
  4245  0D65  1303               	bcf	3,6	;RP1=0, select bank0
  4246  0D66  00E7               	movwf	___fladd@a+1
  4247  0D67                     l3256:
  4248  0D67  0864               	movf	___fladd@b+2,w
  4249  0D68  1683               	bsf	3,5	;RP0=1, select bank1
  4250  0D69  1303               	bcf	3,6	;RP1=0, select bank1
  4251  0D6A  00A0               	movwf	??___fladd^(0+128)
  4252  0D6B  0820               	movf	??___fladd^(0+128),w
  4253  0D6C  1283               	bcf	3,5	;RP0=0, select bank0
  4254  0D6D  1303               	bcf	3,6	;RP1=0, select bank0
  4255  0D6E  00ED               	movwf	___fladd@grs
  4256  0D6F                     l3258:
  4257  0D6F  0868               	movf	___fladd@a+2,w
  4258  0D70  1683               	bsf	3,5	;RP0=1, select bank1
  4259  0D71  1303               	bcf	3,6	;RP1=0, select bank1
  4260  0D72  00A0               	movwf	??___fladd^(0+128)
  4261  0D73  0820               	movf	??___fladd^(0+128),w
  4262  0D74  1283               	bcf	3,5	;RP0=0, select bank0
  4263  0D75  1303               	bcf	3,6	;RP1=0, select bank0
  4264  0D76  00E4               	movwf	___fladd@b+2
  4265  0D77                     l3260:
  4266  0D77  086D               	movf	___fladd@grs,w
  4267  0D78  1683               	bsf	3,5	;RP0=1, select bank1
  4268  0D79  1303               	bcf	3,6	;RP1=0, select bank1
  4269  0D7A  00A0               	movwf	??___fladd^(0+128)
  4270  0D7B  0820               	movf	??___fladd^(0+128),w
  4271  0D7C  1283               	bcf	3,5	;RP0=0, select bank0
  4272  0D7D  1303               	bcf	3,6	;RP1=0, select bank0
  4273  0D7E  00E8               	movwf	___fladd@a+2
  4274  0D7F                     l3262:
  4275  0D7F  0865               	movf	___fladd@b+3,w
  4276  0D80  1683               	bsf	3,5	;RP0=1, select bank1
  4277  0D81  1303               	bcf	3,6	;RP1=0, select bank1
  4278  0D82  00A0               	movwf	??___fladd^(0+128)
  4279  0D83  0820               	movf	??___fladd^(0+128),w
  4280  0D84  1283               	bcf	3,5	;RP0=0, select bank0
  4281  0D85  1303               	bcf	3,6	;RP1=0, select bank0
  4282  0D86  00ED               	movwf	___fladd@grs
  4283  0D87                     l3264:
  4284  0D87  0869               	movf	___fladd@a+3,w
  4285  0D88  1683               	bsf	3,5	;RP0=1, select bank1
  4286  0D89  1303               	bcf	3,6	;RP1=0, select bank1
  4287  0D8A  00A0               	movwf	??___fladd^(0+128)
  4288  0D8B  0820               	movf	??___fladd^(0+128),w
  4289  0D8C  1283               	bcf	3,5	;RP0=0, select bank0
  4290  0D8D  1303               	bcf	3,6	;RP1=0, select bank0
  4291  0D8E  00E5               	movwf	___fladd@b+3
  4292  0D8F                     l3266:
  4293  0D8F  086D               	movf	___fladd@grs,w
  4294  0D90  1683               	bsf	3,5	;RP0=1, select bank1
  4295  0D91  1303               	bcf	3,6	;RP1=0, select bank1
  4296  0D92  00A0               	movwf	??___fladd^(0+128)
  4297  0D93  0820               	movf	??___fladd^(0+128),w
  4298  0D94  1283               	bcf	3,5	;RP0=0, select bank0
  4299  0D95  1303               	bcf	3,6	;RP1=0, select bank0
  4300  0D96  00E9               	movwf	___fladd@a+3
  4301  0D97                     l3268:
  4302  0D97  01ED               	clrf	___fladd@grs
  4303  0D98                     l3270:
  4304  0D98  086B               	movf	___fladd@aexp,w
  4305  0D99  1683               	bsf	3,5	;RP0=1, select bank1
  4306  0D9A  1303               	bcf	3,6	;RP1=0, select bank1
  4307  0D9B  00A0               	movwf	??___fladd^(0+128)
  4308  0D9C  01A1               	clrf	(??___fladd^(0+128)+1)
  4309  0D9D  0821               	movf	(??___fladd+1)^(0+128),w
  4310  0D9E  00A3               	movwf	((??___fladd+2)^(0+128)+1)
  4311  0D9F  1283               	bcf	3,5	;RP0=0, select bank0
  4312  0DA0  1303               	bcf	3,6	;RP1=0, select bank0
  4313  0DA1  086C               	movf	___fladd@bexp,w
  4314  0DA2  1683               	bsf	3,5	;RP0=1, select bank1
  4315  0DA3  1303               	bcf	3,6	;RP1=0, select bank1
  4316  0DA4  0220               	subwf	??___fladd^(0+128),w
  4317  0DA5  00A2               	movwf	(??___fladd+2)^(0+128)
  4318  0DA6  1C03               	skipc
  4319  0DA7  03A3               	decf	((??___fladd+2)^(0+128)+1),f
  4320  0DA8  0823               	movf	(??___fladd+3)^(0+128),w
  4321  0DA9  3A80               	xorlw	128
  4322  0DAA  00FF               	movwf	btemp+1
  4323  0DAB  3080               	movlw	128
  4324  0DAC  027F               	subwf	btemp+1,w
  4325  0DAD  1D03               	skipz
  4326  0DAE  2DB1               	goto	u4905
  4327  0DAF  301A               	movlw	26
  4328  0DB0  0222               	subwf	(??___fladd+2)^(0+128),w
  4329  0DB1                     u4905:
  4330  0DB1  1C03               	skipc
  4331  0DB2  2DB4               	goto	u4901
  4332  0DB3  2DB5               	goto	u4900
  4333  0DB4                     u4901:
  4334  0DB4  2E06               	goto	l3286
  4335  0DB5                     u4900:
  4336  0DB5                     l3272:
  4337  0DB5  1283               	bcf	3,5	;RP0=0, select bank0
  4338  0DB6  1303               	bcf	3,6	;RP1=0, select bank0
  4339  0DB7  0865               	movf	___fladd@b+3,w
  4340  0DB8  0464               	iorwf	___fladd@b+2,w
  4341  0DB9  0463               	iorwf	___fladd@b+1,w
  4342  0DBA  0462               	iorwf	___fladd@b,w
  4343  0DBB  1D03               	skipz
  4344  0DBC  2DBE               	goto	u4911
  4345  0DBD  2DC0               	goto	u4910
  4346  0DBE                     u4911:
  4347  0DBE  3001               	movlw	1
  4348  0DBF  2DC1               	goto	u4920
  4349  0DC0                     u4910:
  4350  0DC0  3000               	movlw	0
  4351  0DC1                     u4920:
  4352  0DC1  1683               	bsf	3,5	;RP0=1, select bank1
  4353  0DC2  1303               	bcf	3,6	;RP1=0, select bank1
  4354  0DC3  00A0               	movwf	??___fladd^(0+128)
  4355  0DC4  0820               	movf	??___fladd^(0+128),w
  4356  0DC5  1283               	bcf	3,5	;RP0=0, select bank0
  4357  0DC6  1303               	bcf	3,6	;RP1=0, select bank0
  4358  0DC7  00ED               	movwf	___fladd@grs
  4359  0DC8  3000               	movlw	0
  4360  0DC9  00E5               	movwf	___fladd@b+3
  4361  0DCA  3000               	movlw	0
  4362  0DCB  00E4               	movwf	___fladd@b+2
  4363  0DCC  3000               	movlw	0
  4364  0DCD  00E3               	movwf	___fladd@b+1
  4365  0DCE  3000               	movlw	0
  4366  0DCF  00E2               	movwf	___fladd@b
  4367  0DD0  086B               	movf	___fladd@aexp,w
  4368  0DD1  1683               	bsf	3,5	;RP0=1, select bank1
  4369  0DD2  1303               	bcf	3,6	;RP1=0, select bank1
  4370  0DD3  00A0               	movwf	??___fladd^(0+128)
  4371  0DD4  0820               	movf	??___fladd^(0+128),w
  4372  0DD5  1283               	bcf	3,5	;RP0=0, select bank0
  4373  0DD6  1303               	bcf	3,6	;RP1=0, select bank0
  4374  0DD7  00EC               	movwf	___fladd@bexp
  4375  0DD8  2E0E               	goto	l645
  4376  0DD9                     l647:
  4377  0DD9  1C6D               	btfss	___fladd@grs,0
  4378  0DDA  2DDC               	goto	u4931
  4379  0DDB  2DDD               	goto	u4930
  4380  0DDC                     u4931:
  4381  0DDC  2DEA               	goto	l3276
  4382  0DDD                     u4930:
  4383  0DDD                     l3274:
  4384  0DDD  086D               	movf	___fladd@grs,w
  4385  0DDE  1683               	bsf	3,5	;RP0=1, select bank1
  4386  0DDF  1303               	bcf	3,6	;RP1=0, select bank1
  4387  0DE0  00A0               	movwf	??___fladd^(0+128)
  4388  0DE1  1003               	clrc
  4389  0DE2  0C20               	rrf	??___fladd^(0+128),w
  4390  0DE3  3801               	iorlw	1
  4391  0DE4  00A1               	movwf	(??___fladd+1)^(0+128)
  4392  0DE5  0821               	movf	(??___fladd+1)^(0+128),w
  4393  0DE6  1283               	bcf	3,5	;RP0=0, select bank0
  4394  0DE7  1303               	bcf	3,6	;RP1=0, select bank0
  4395  0DE8  00ED               	movwf	___fladd@grs
  4396  0DE9  2DEC               	goto	l3278
  4397  0DEA                     l3276:
  4398  0DEA  1003               	clrc
  4399  0DEB  0CED               	rrf	___fladd@grs,f
  4400  0DEC                     l3278:
  4401  0DEC  1C62               	btfss	___fladd@b,0
  4402  0DED  2DEF               	goto	u4941
  4403  0DEE  2DF0               	goto	u4940
  4404  0DEF                     u4941:
  4405  0DEF  2DF1               	goto	l3282
  4406  0DF0                     u4940:
  4407  0DF0                     l3280:
  4408  0DF0  17ED               	bsf	___fladd@grs,7
  4409  0DF1                     l3282:
  4410  0DF1  3001               	movlw	1
  4411  0DF2  1683               	bsf	3,5	;RP0=1, select bank1
  4412  0DF3  1303               	bcf	3,6	;RP1=0, select bank1
  4413  0DF4  00A0               	movwf	??___fladd^(0+128)
  4414  0DF5                     u4955:
  4415  0DF5  1283               	bcf	3,5	;RP0=0, select bank0
  4416  0DF6  1303               	bcf	3,6	;RP1=0, select bank0
  4417  0DF7  0D65               	rlf	___fladd@b+3,w
  4418  0DF8  0CE5               	rrf	___fladd@b+3,f
  4419  0DF9  0CE4               	rrf	___fladd@b+2,f
  4420  0DFA  0CE3               	rrf	___fladd@b+1,f
  4421  0DFB  0CE2               	rrf	___fladd@b,f
  4422  0DFC  1683               	bsf	3,5	;RP0=1, select bank1
  4423  0DFD  1303               	bcf	3,6	;RP1=0, select bank1
  4424  0DFE  0BA0               	decfsz	(??___fladd^(0+128))& (0+127),f
  4425  0DFF  2DF5               	goto	u4955
  4426  0E00                     l3284:
  4427  0E00  3001               	movlw	1
  4428  0E01  00A0               	movwf	??___fladd^(0+128)
  4429  0E02  0820               	movf	??___fladd^(0+128),w
  4430  0E03  1283               	bcf	3,5	;RP0=0, select bank0
  4431  0E04  1303               	bcf	3,6	;RP1=0, select bank0
  4432  0E05  07EC               	addwf	___fladd@bexp,f
  4433  0E06                     l3286:
  4434  0E06  1283               	bcf	3,5	;RP0=0, select bank0
  4435  0E07  1303               	bcf	3,6	;RP1=0, select bank0
  4436  0E08  086B               	movf	___fladd@aexp,w
  4437  0E09  026C               	subwf	___fladd@bexp,w
  4438  0E0A  1C03               	skipc
  4439  0E0B  2E0D               	goto	u4961
  4440  0E0C  2E0E               	goto	u4960
  4441  0E0D                     u4961:
  4442  0E0D  2DD9               	goto	l647
  4443  0E0E                     u4960:
  4444  0E0E                     l645:
  4445  0E0E  1B6A               	btfsc	___fladd@signs,6
  4446  0E0F  2E11               	goto	u4971
  4447  0E10  2E12               	goto	u4970
  4448  0E11                     u4971:
  4449  0E11  2E69               	goto	l3312
  4450  0E12                     u4970:
  4451  0E12                     l3288:
  4452  0E12  086C               	movf	___fladd@bexp,w
  4453  0E13  1D03               	btfss	3,2
  4454  0E14  2E16               	goto	u4981
  4455  0E15  2E17               	goto	u4980
  4456  0E16                     u4981:
  4457  0E16  2E20               	goto	l3294
  4458  0E17                     u4980:
  4459  0E17                     l3290:
  4460  0E17  3000               	movlw	0
  4461  0E18  00E5               	movwf	?___fladd+3
  4462  0E19  3000               	movlw	0
  4463  0E1A  00E4               	movwf	?___fladd+2
  4464  0E1B  3000               	movlw	0
  4465  0E1C  00E3               	movwf	?___fladd+1
  4466  0E1D  3000               	movlw	0
  4467  0E1E  00E2               	movwf	?___fladd
  4468  0E1F  2FFF               	goto	l654
  4469  0E20                     l3294:
  4470  0E20  0866               	movf	___fladd@a,w
  4471  0E21  07E2               	addwf	___fladd@b,f
  4472  0E22  0867               	movf	___fladd@a+1,w
  4473  0E23  1103               	clrz
  4474  0E24  1803               	skipnc
  4475  0E25  3E01               	addlw	1
  4476  0E26  1903               	skipnz
  4477  0E27  2E29               	goto	u4991
  4478  0E28  07E3               	addwf	___fladd@b+1,f
  4479  0E29                     u4991:
  4480  0E29  0868               	movf	___fladd@a+2,w
  4481  0E2A  1103               	clrz
  4482  0E2B  1803               	skipnc
  4483  0E2C  3E01               	addlw	1
  4484  0E2D  1903               	skipnz
  4485  0E2E  2E30               	goto	u4992
  4486  0E2F  07E4               	addwf	___fladd@b+2,f
  4487  0E30                     u4992:
  4488  0E30  0869               	movf	___fladd@a+3,w
  4489  0E31  1103               	clrz
  4490  0E32  1803               	skipnc
  4491  0E33  3E01               	addlw	1
  4492  0E34  1903               	skipnz
  4493  0E35  2E37               	goto	u4993
  4494  0E36  07E5               	addwf	___fladd@b+3,f
  4495  0E37                     u4993:
  4496  0E37                     l3296:
  4497  0E37  1C65               	btfss	___fladd@b+3,0
  4498  0E38  2E3A               	goto	u5001
  4499  0E39  2E3B               	goto	u5000
  4500  0E3A                     u5001:
  4501  0E3A  2F5D               	goto	l3346
  4502  0E3B                     u5000:
  4503  0E3B                     l3298:
  4504  0E3B  1C6D               	btfss	___fladd@grs,0
  4505  0E3C  2E3E               	goto	u5011
  4506  0E3D  2E3F               	goto	u5010
  4507  0E3E                     u5011:
  4508  0E3E  2E4C               	goto	l3302
  4509  0E3F                     u5010:
  4510  0E3F                     l3300:
  4511  0E3F  086D               	movf	___fladd@grs,w
  4512  0E40  1683               	bsf	3,5	;RP0=1, select bank1
  4513  0E41  1303               	bcf	3,6	;RP1=0, select bank1
  4514  0E42  00A0               	movwf	??___fladd^(0+128)
  4515  0E43  1003               	clrc
  4516  0E44  0C20               	rrf	??___fladd^(0+128),w
  4517  0E45  3801               	iorlw	1
  4518  0E46  00A1               	movwf	(??___fladd+1)^(0+128)
  4519  0E47  0821               	movf	(??___fladd+1)^(0+128),w
  4520  0E48  1283               	bcf	3,5	;RP0=0, select bank0
  4521  0E49  1303               	bcf	3,6	;RP1=0, select bank0
  4522  0E4A  00ED               	movwf	___fladd@grs
  4523  0E4B  2E4E               	goto	l3304
  4524  0E4C                     l3302:
  4525  0E4C  1003               	clrc
  4526  0E4D  0CED               	rrf	___fladd@grs,f
  4527  0E4E                     l3304:
  4528  0E4E  1C62               	btfss	___fladd@b,0
  4529  0E4F  2E51               	goto	u5021
  4530  0E50  2E52               	goto	u5020
  4531  0E51                     u5021:
  4532  0E51  2E53               	goto	l3308
  4533  0E52                     u5020:
  4534  0E52                     l3306:
  4535  0E52  17ED               	bsf	___fladd@grs,7
  4536  0E53                     l3308:
  4537  0E53  3001               	movlw	1
  4538  0E54  1683               	bsf	3,5	;RP0=1, select bank1
  4539  0E55  1303               	bcf	3,6	;RP1=0, select bank1
  4540  0E56  00A0               	movwf	??___fladd^(0+128)
  4541  0E57                     u5035:
  4542  0E57  1283               	bcf	3,5	;RP0=0, select bank0
  4543  0E58  1303               	bcf	3,6	;RP1=0, select bank0
  4544  0E59  0D65               	rlf	___fladd@b+3,w
  4545  0E5A  0CE5               	rrf	___fladd@b+3,f
  4546  0E5B  0CE4               	rrf	___fladd@b+2,f
  4547  0E5C  0CE3               	rrf	___fladd@b+1,f
  4548  0E5D  0CE2               	rrf	___fladd@b,f
  4549  0E5E  1683               	bsf	3,5	;RP0=1, select bank1
  4550  0E5F  1303               	bcf	3,6	;RP1=0, select bank1
  4551  0E60  0BA0               	decfsz	(??___fladd^(0+128))& (0+127),f
  4552  0E61  2E57               	goto	u5035
  4553  0E62                     l3310:
  4554  0E62  3001               	movlw	1
  4555  0E63  00A0               	movwf	??___fladd^(0+128)
  4556  0E64  0820               	movf	??___fladd^(0+128),w
  4557  0E65  1283               	bcf	3,5	;RP0=0, select bank0
  4558  0E66  1303               	bcf	3,6	;RP1=0, select bank0
  4559  0E67  07EC               	addwf	___fladd@bexp,f
  4560  0E68  2F5D               	goto	l3346
  4561  0E69                     l3312:
  4562  0E69  0865               	movf	___fladd@b+3,w
  4563  0E6A  3A80               	xorlw	128
  4564  0E6B  00FF               	movwf	btemp+1
  4565  0E6C  0869               	movf	___fladd@a+3,w
  4566  0E6D  3A80               	xorlw	128
  4567  0E6E  027F               	subwf	btemp+1,w
  4568  0E6F  1D03               	skipz
  4569  0E70  2E7B               	goto	u5043
  4570  0E71  0868               	movf	___fladd@a+2,w
  4571  0E72  0264               	subwf	___fladd@b+2,w
  4572  0E73  1D03               	skipz
  4573  0E74  2E7B               	goto	u5043
  4574  0E75  0867               	movf	___fladd@a+1,w
  4575  0E76  0263               	subwf	___fladd@b+1,w
  4576  0E77  1D03               	skipz
  4577  0E78  2E7B               	goto	u5043
  4578  0E79  0866               	movf	___fladd@a,w
  4579  0E7A  0262               	subwf	___fladd@b,w
  4580  0E7B                     u5043:
  4581  0E7B  1803               	skipnc
  4582  0E7C  2E7E               	goto	u5041
  4583  0E7D  2E7F               	goto	u5040
  4584  0E7E                     u5041:
  4585  0E7E  2F0F               	goto	l3322
  4586  0E7F                     u5040:
  4587  0E7F                     l3314:
  4588  0E7F  30FF               	movlw	255
  4589  0E80  1683               	bsf	3,5	;RP0=1, select bank1
  4590  0E81  1303               	bcf	3,6	;RP1=0, select bank1
  4591  0E82  00A0               	movwf	??___fladd^(0+128)
  4592  0E83  30FF               	movlw	255
  4593  0E84  00A1               	movwf	(??___fladd^(0+128)+1)
  4594  0E85  30FF               	movlw	255
  4595  0E86  00A2               	movwf	(??___fladd^(0+128)+2)
  4596  0E87  30FF               	movlw	255
  4597  0E88  00A3               	movwf	(??___fladd^(0+128)+3)
  4598  0E89  1283               	bcf	3,5	;RP0=0, select bank0
  4599  0E8A  1303               	bcf	3,6	;RP1=0, select bank0
  4600  0E8B  0866               	movf	___fladd@a,w
  4601  0E8C  1683               	bsf	3,5	;RP0=1, select bank1
  4602  0E8D  1303               	bcf	3,6	;RP1=0, select bank1
  4603  0E8E  00A4               	movwf	(??___fladd+4)^(0+128)
  4604  0E8F  1283               	bcf	3,5	;RP0=0, select bank0
  4605  0E90  1303               	bcf	3,6	;RP1=0, select bank0
  4606  0E91  0867               	movf	___fladd@a+1,w
  4607  0E92  1683               	bsf	3,5	;RP0=1, select bank1
  4608  0E93  1303               	bcf	3,6	;RP1=0, select bank1
  4609  0E94  00A5               	movwf	((??___fladd+4)^(0+128)+1)
  4610  0E95  1283               	bcf	3,5	;RP0=0, select bank0
  4611  0E96  1303               	bcf	3,6	;RP1=0, select bank0
  4612  0E97  0868               	movf	___fladd@a+2,w
  4613  0E98  1683               	bsf	3,5	;RP0=1, select bank1
  4614  0E99  1303               	bcf	3,6	;RP1=0, select bank1
  4615  0E9A  00A6               	movwf	((??___fladd+4)^(0+128)+2)
  4616  0E9B  1283               	bcf	3,5	;RP0=0, select bank0
  4617  0E9C  1303               	bcf	3,6	;RP1=0, select bank0
  4618  0E9D  0869               	movf	___fladd@a+3,w
  4619  0E9E  1683               	bsf	3,5	;RP0=1, select bank1
  4620  0E9F  1303               	bcf	3,6	;RP1=0, select bank1
  4621  0EA0  00A7               	movwf	((??___fladd+4)^(0+128)+3)
  4622  0EA1  1283               	bcf	3,5	;RP0=0, select bank0
  4623  0EA2  1303               	bcf	3,6	;RP1=0, select bank0
  4624  0EA3  0862               	movf	___fladd@b,w
  4625  0EA4  1683               	bsf	3,5	;RP0=1, select bank1
  4626  0EA5  1303               	bcf	3,6	;RP1=0, select bank1
  4627  0EA6  02A4               	subwf	(??___fladd+4)^(0+128),f
  4628  0EA7  1283               	bcf	3,5	;RP0=0, select bank0
  4629  0EA8  1303               	bcf	3,6	;RP1=0, select bank0
  4630  0EA9  0863               	movf	___fladd@b+1,w
  4631  0EAA  1C03               	skipc
  4632  0EAB  0F63               	incfsz	___fladd@b+1,w
  4633  0EAC  2EAE               	goto	u5051
  4634  0EAD  2EB1               	goto	u5052
  4635  0EAE                     u5051:
  4636  0EAE  1683               	bsf	3,5	;RP0=1, select bank1
  4637  0EAF  1303               	bcf	3,6	;RP1=0, select bank1
  4638  0EB0  02A5               	subwf	((??___fladd+4)^(0+128)+1),f
  4639  0EB1                     u5052:
  4640  0EB1  1283               	bcf	3,5	;RP0=0, select bank0
  4641  0EB2  1303               	bcf	3,6	;RP1=0, select bank0
  4642  0EB3  0864               	movf	___fladd@b+2,w
  4643  0EB4  1C03               	skipc
  4644  0EB5  0F64               	incfsz	___fladd@b+2,w
  4645  0EB6  2EB8               	goto	u5053
  4646  0EB7  2EBB               	goto	u5054
  4647  0EB8                     u5053:
  4648  0EB8  1683               	bsf	3,5	;RP0=1, select bank1
  4649  0EB9  1303               	bcf	3,6	;RP1=0, select bank1
  4650  0EBA  02A6               	subwf	((??___fladd+4)^(0+128)+2),f
  4651  0EBB                     u5054:
  4652  0EBB  1283               	bcf	3,5	;RP0=0, select bank0
  4653  0EBC  1303               	bcf	3,6	;RP1=0, select bank0
  4654  0EBD  0865               	movf	___fladd@b+3,w
  4655  0EBE  1C03               	skipc
  4656  0EBF  0F65               	incfsz	___fladd@b+3,w
  4657  0EC0  2EC2               	goto	u5055
  4658  0EC1  2EC5               	goto	u5056
  4659  0EC2                     u5055:
  4660  0EC2  1683               	bsf	3,5	;RP0=1, select bank1
  4661  0EC3  1303               	bcf	3,6	;RP1=0, select bank1
  4662  0EC4  02A7               	subwf	((??___fladd+4)^(0+128)+3),f
  4663  0EC5                     u5056:
  4664  0EC5  1283               	bcf	3,5	;RP0=0, select bank0
  4665  0EC6  1303               	bcf	3,6	;RP1=0, select bank0
  4666  0EC7  1683               	bsf	3,5	;RP0=1, select bank1
  4667  0EC8  1303               	bcf	3,6	;RP1=0, select bank1
  4668  0EC9  0824               	movf	(??___fladd+4)^(0+128),w
  4669  0ECA  07A0               	addwf	??___fladd^(0+128),f
  4670  0ECB  0825               	movf	(??___fladd+5)^(0+128),w
  4671  0ECC  1803               	skipnc
  4672  0ECD  0F25               	incfsz	(??___fladd+5)^(0+128),w
  4673  0ECE  2ED0               	goto	u5060
  4674  0ECF  2ED1               	goto	u5061
  4675  0ED0                     u5060:
  4676  0ED0  07A1               	addwf	(??___fladd^(0+128)+1),f
  4677  0ED1                     u5061:
  4678  0ED1  0826               	movf	(??___fladd+6)^(0+128),w
  4679  0ED2  1803               	skipnc
  4680  0ED3  0F26               	incfsz	(??___fladd+6)^(0+128),w
  4681  0ED4  2ED6               	goto	u5062
  4682  0ED5  2ED7               	goto	u5063
  4683  0ED6                     u5062:
  4684  0ED6  07A2               	addwf	(??___fladd^(0+128)+2),f
  4685  0ED7                     u5063:
  4686  0ED7  0827               	movf	(??___fladd+7)^(0+128),w
  4687  0ED8  1803               	skipnc
  4688  0ED9  0A27               	incf	(??___fladd+7)^(0+128),w
  4689  0EDA  07A3               	addwf	(??___fladd^(0+128)+3),f
  4690  0EDB  0823               	movf	(??___fladd+3)^(0+128),w
  4691  0EDC  1283               	bcf	3,5	;RP0=0, select bank0
  4692  0EDD  1303               	bcf	3,6	;RP1=0, select bank0
  4693  0EDE  00E5               	movwf	___fladd@b+3
  4694  0EDF  1683               	bsf	3,5	;RP0=1, select bank1
  4695  0EE0  1303               	bcf	3,6	;RP1=0, select bank1
  4696  0EE1  0822               	movf	(??___fladd+2)^(0+128),w
  4697  0EE2  1283               	bcf	3,5	;RP0=0, select bank0
  4698  0EE3  1303               	bcf	3,6	;RP1=0, select bank0
  4699  0EE4  00E4               	movwf	___fladd@b+2
  4700  0EE5  1683               	bsf	3,5	;RP0=1, select bank1
  4701  0EE6  1303               	bcf	3,6	;RP1=0, select bank1
  4702  0EE7  0821               	movf	(??___fladd+1)^(0+128),w
  4703  0EE8  1283               	bcf	3,5	;RP0=0, select bank0
  4704  0EE9  1303               	bcf	3,6	;RP1=0, select bank0
  4705  0EEA  00E3               	movwf	___fladd@b+1
  4706  0EEB  1683               	bsf	3,5	;RP0=1, select bank1
  4707  0EEC  1303               	bcf	3,6	;RP1=0, select bank1
  4708  0EED  0820               	movf	??___fladd^(0+128),w
  4709  0EEE  1283               	bcf	3,5	;RP0=0, select bank0
  4710  0EEF  1303               	bcf	3,6	;RP1=0, select bank0
  4711  0EF0  00E2               	movwf	___fladd@b
  4712  0EF1                     l3316:
  4713  0EF1  3080               	movlw	128
  4714  0EF2  1683               	bsf	3,5	;RP0=1, select bank1
  4715  0EF3  1303               	bcf	3,6	;RP1=0, select bank1
  4716  0EF4  00A0               	movwf	??___fladd^(0+128)
  4717  0EF5  0820               	movf	??___fladd^(0+128),w
  4718  0EF6  1283               	bcf	3,5	;RP0=0, select bank0
  4719  0EF7  1303               	bcf	3,6	;RP1=0, select bank0
  4720  0EF8  06EA               	xorwf	___fladd@signs,f
  4721  0EF9  09ED               	comf	___fladd@grs,f
  4722  0EFA  0AED               	incf	___fladd@grs,f
  4723  0EFB                     l3318:
  4724  0EFB  086D               	movf	___fladd@grs,w
  4725  0EFC  1D03               	btfss	3,2
  4726  0EFD  2EFF               	goto	u5071
  4727  0EFE  2F00               	goto	u5070
  4728  0EFF                     u5071:
  4729  0EFF  2F1D               	goto	l662
  4730  0F00                     u5070:
  4731  0F00                     l3320:
  4732  0F00  3001               	movlw	1
  4733  0F01  07E2               	addwf	___fladd@b,f
  4734  0F02  3000               	movlw	0
  4735  0F03  1803               	skipnc
  4736  0F04  3001               	movlw	1
  4737  0F05  07E3               	addwf	___fladd@b+1,f
  4738  0F06  3000               	movlw	0
  4739  0F07  1803               	skipnc
  4740  0F08  3001               	movlw	1
  4741  0F09  07E4               	addwf	___fladd@b+2,f
  4742  0F0A  3000               	movlw	0
  4743  0F0B  1803               	skipnc
  4744  0F0C  3001               	movlw	1
  4745  0F0D  07E5               	addwf	___fladd@b+3,f
  4746  0F0E  2F1D               	goto	l662
  4747  0F0F                     l3322:
  4748  0F0F  0866               	movf	___fladd@a,w
  4749  0F10  02E2               	subwf	___fladd@b,f
  4750  0F11  0867               	movf	___fladd@a+1,w
  4751  0F12  1C03               	skipc
  4752  0F13  0F67               	incfsz	___fladd@a+1,w
  4753  0F14  02E3               	subwf	___fladd@b+1,f
  4754  0F15  0868               	movf	___fladd@a+2,w
  4755  0F16  1C03               	skipc
  4756  0F17  0F68               	incfsz	___fladd@a+2,w
  4757  0F18  02E4               	subwf	___fladd@b+2,f
  4758  0F19  0869               	movf	___fladd@a+3,w
  4759  0F1A  1C03               	skipc
  4760  0F1B  0F69               	incfsz	___fladd@a+3,w
  4761  0F1C  02E5               	subwf	___fladd@b+3,f
  4762  0F1D                     l662:
  4763  0F1D  0865               	movf	___fladd@b+3,w
  4764  0F1E  0464               	iorwf	___fladd@b+2,w
  4765  0F1F  0463               	iorwf	___fladd@b+1,w
  4766  0F20  0462               	iorwf	___fladd@b,w
  4767  0F21  1D03               	skipz
  4768  0F22  2F24               	goto	u5081
  4769  0F23  2F25               	goto	u5080
  4770  0F24                     u5081:
  4771  0F24  2F59               	goto	l3344
  4772  0F25                     u5080:
  4773  0F25                     l3324:
  4774  0F25  086D               	movf	___fladd@grs,w
  4775  0F26  1D03               	btfss	3,2
  4776  0F27  2F29               	goto	u5091
  4777  0F28  2F2A               	goto	u5090
  4778  0F29                     u5091:
  4779  0F29  2F59               	goto	l3344
  4780  0F2A                     u5090:
  4781  0F2A                     l3326:
  4782  0F2A  3000               	movlw	0
  4783  0F2B  00E5               	movwf	?___fladd+3
  4784  0F2C  3000               	movlw	0
  4785  0F2D  00E4               	movwf	?___fladd+2
  4786  0F2E  3000               	movlw	0
  4787  0F2F  00E3               	movwf	?___fladd+1
  4788  0F30  3000               	movlw	0
  4789  0F31  00E2               	movwf	?___fladd
  4790  0F32  2FFF               	goto	l654
  4791  0F33                     l3330:
  4792  0F33  3001               	movlw	1
  4793  0F34  1683               	bsf	3,5	;RP0=1, select bank1
  4794  0F35  1303               	bcf	3,6	;RP1=0, select bank1
  4795  0F36  00A0               	movwf	??___fladd^(0+128)
  4796  0F37                     u5105:
  4797  0F37  1003               	clrc
  4798  0F38  1283               	bcf	3,5	;RP0=0, select bank0
  4799  0F39  1303               	bcf	3,6	;RP1=0, select bank0
  4800  0F3A  0DE2               	rlf	___fladd@b,f
  4801  0F3B  0DE3               	rlf	___fladd@b+1,f
  4802  0F3C  0DE4               	rlf	___fladd@b+2,f
  4803  0F3D  0DE5               	rlf	___fladd@b+3,f
  4804  0F3E  1683               	bsf	3,5	;RP0=1, select bank1
  4805  0F3F  1303               	bcf	3,6	;RP1=0, select bank1
  4806  0F40  0BA0               	decfsz	??___fladd^(0+128),f
  4807  0F41  2F37               	goto	u5105
  4808  0F42                     l3332:
  4809  0F42  1283               	bcf	3,5	;RP0=0, select bank0
  4810  0F43  1303               	bcf	3,6	;RP1=0, select bank0
  4811  0F44  1FED               	btfss	___fladd@grs,7
  4812  0F45  2F47               	goto	u5111
  4813  0F46  2F48               	goto	u5110
  4814  0F47                     u5111:
  4815  0F47  2F49               	goto	l666
  4816  0F48                     u5110:
  4817  0F48                     l3334:
  4818  0F48  1462               	bsf	___fladd@b,0
  4819  0F49                     l666:
  4820  0F49  1C6D               	btfss	___fladd@grs,0
  4821  0F4A  2F4C               	goto	u5121
  4822  0F4B  2F4D               	goto	u5120
  4823  0F4C                     u5121:
  4824  0F4C  2F50               	goto	l3338
  4825  0F4D                     u5120:
  4826  0F4D                     l3336:
  4827  0F4D  1403               	setc
  4828  0F4E  0DED               	rlf	___fladd@grs,f
  4829  0F4F  2F52               	goto	l3340
  4830  0F50                     l3338:
  4831  0F50  1003               	clrc
  4832  0F51  0DED               	rlf	___fladd@grs,f
  4833  0F52                     l3340:
  4834  0F52  086C               	movf	___fladd@bexp,w
  4835  0F53  1903               	btfsc	3,2
  4836  0F54  2F56               	goto	u5131
  4837  0F55  2F57               	goto	u5130
  4838  0F56                     u5131:
  4839  0F56  2F59               	goto	l3344
  4840  0F57                     u5130:
  4841  0F57                     l3342:
  4842  0F57  3001               	movlw	1
  4843  0F58  02EC               	subwf	___fladd@bexp,f
  4844  0F59                     l3344:
  4845  0F59  1FE4               	btfss	___fladd@b+2,7
  4846  0F5A  2F5C               	goto	u5141
  4847  0F5B  2F5D               	goto	u5140
  4848  0F5C                     u5141:
  4849  0F5C  2F33               	goto	l3330
  4850  0F5D                     u5140:
  4851  0F5D                     l3346:
  4852  0F5D  01EB               	clrf	___fladd@aexp
  4853  0F5E                     l3348:
  4854  0F5E  1FED               	btfss	___fladd@grs,7
  4855  0F5F  2F61               	goto	u5151
  4856  0F60  2F62               	goto	u5150
  4857  0F61                     u5151:
  4858  0F61  2F70               	goto	l3356
  4859  0F62                     u5150:
  4860  0F62                     l3350:
  4861  0F62  086D               	movf	___fladd@grs,w
  4862  0F63  397F               	andlw	127
  4863  0F64  1903               	btfsc	3,2
  4864  0F65  2F67               	goto	u5161
  4865  0F66  2F68               	goto	u5160
  4866  0F67                     u5161:
  4867  0F67  2F6B               	goto	l672
  4868  0F68                     u5160:
  4869  0F68                     l3352:
  4870  0F68  01EB               	clrf	___fladd@aexp
  4871  0F69  0AEB               	incf	___fladd@aexp,f
  4872  0F6A  2F70               	goto	l3356
  4873  0F6B                     l672:
  4874  0F6B  1C62               	btfss	___fladd@b,0
  4875  0F6C  2F6E               	goto	u5171
  4876  0F6D  2F6F               	goto	u5170
  4877  0F6E                     u5171:
  4878  0F6E  2F70               	goto	l3356
  4879  0F6F                     u5170:
  4880  0F6F  2F68               	goto	l3352
  4881  0F70                     l3356:
  4882  0F70  086B               	movf	___fladd@aexp,w
  4883  0F71  1903               	btfsc	3,2
  4884  0F72  2F74               	goto	u5181
  4885  0F73  2F75               	goto	u5180
  4886  0F74                     u5181:
  4887  0F74  2FC9               	goto	l675
  4888  0F75                     u5180:
  4889  0F75                     l3358:
  4890  0F75  3001               	movlw	1
  4891  0F76  07E2               	addwf	___fladd@b,f
  4892  0F77  3000               	movlw	0
  4893  0F78  1803               	skipnc
  4894  0F79  3001               	movlw	1
  4895  0F7A  07E3               	addwf	___fladd@b+1,f
  4896  0F7B  3000               	movlw	0
  4897  0F7C  1803               	skipnc
  4898  0F7D  3001               	movlw	1
  4899  0F7E  07E4               	addwf	___fladd@b+2,f
  4900  0F7F  3000               	movlw	0
  4901  0F80  1803               	skipnc
  4902  0F81  3001               	movlw	1
  4903  0F82  07E5               	addwf	___fladd@b+3,f
  4904  0F83                     l3360:
  4905  0F83  1C65               	btfss	___fladd@b+3,0
  4906  0F84  2F86               	goto	u5191
  4907  0F85  2F87               	goto	u5190
  4908  0F86                     u5191:
  4909  0F86  2FC9               	goto	l675
  4910  0F87                     u5190:
  4911  0F87                     l3362:
  4912  0F87  0862               	movf	___fladd@b,w
  4913  0F88  1683               	bsf	3,5	;RP0=1, select bank1
  4914  0F89  1303               	bcf	3,6	;RP1=0, select bank1
  4915  0F8A  00A0               	movwf	??___fladd^(0+128)
  4916  0F8B  1283               	bcf	3,5	;RP0=0, select bank0
  4917  0F8C  1303               	bcf	3,6	;RP1=0, select bank0
  4918  0F8D  0863               	movf	___fladd@b+1,w
  4919  0F8E  1683               	bsf	3,5	;RP0=1, select bank1
  4920  0F8F  1303               	bcf	3,6	;RP1=0, select bank1
  4921  0F90  00A1               	movwf	(??___fladd^(0+128)+1)
  4922  0F91  1283               	bcf	3,5	;RP0=0, select bank0
  4923  0F92  1303               	bcf	3,6	;RP1=0, select bank0
  4924  0F93  0864               	movf	___fladd@b+2,w
  4925  0F94  1683               	bsf	3,5	;RP0=1, select bank1
  4926  0F95  1303               	bcf	3,6	;RP1=0, select bank1
  4927  0F96  00A2               	movwf	(??___fladd^(0+128)+2)
  4928  0F97  1283               	bcf	3,5	;RP0=0, select bank0
  4929  0F98  1303               	bcf	3,6	;RP1=0, select bank0
  4930  0F99  0865               	movf	___fladd@b+3,w
  4931  0F9A  1683               	bsf	3,5	;RP0=1, select bank1
  4932  0F9B  1303               	bcf	3,6	;RP1=0, select bank1
  4933  0F9C  00A3               	movwf	(??___fladd^(0+128)+3)
  4934  0F9D  3001               	movlw	1
  4935  0F9E  00A4               	movwf	(??___fladd+4)^(0+128)
  4936  0F9F                     u5205:
  4937  0F9F  0D23               	rlf	(??___fladd^(0+128)+3),w
  4938  0FA0  0CA3               	rrf	(??___fladd^(0+128)+3),f
  4939  0FA1  0CA2               	rrf	(??___fladd^(0+128)+2),f
  4940  0FA2  0CA1               	rrf	(??___fladd^(0+128)+1),f
  4941  0FA3  0CA0               	rrf	??___fladd^(0+128),f
  4942  0FA4                     u5200:
  4943  0FA4  0BA4               	decfsz	(??___fladd+4)^(0+128),f
  4944  0FA5  2F9F               	goto	u5205
  4945  0FA6  0823               	movf	(??___fladd+3)^(0+128),w
  4946  0FA7  1283               	bcf	3,5	;RP0=0, select bank0
  4947  0FA8  1303               	bcf	3,6	;RP1=0, select bank0
  4948  0FA9  00E5               	movwf	___fladd@b+3
  4949  0FAA  1683               	bsf	3,5	;RP0=1, select bank1
  4950  0FAB  1303               	bcf	3,6	;RP1=0, select bank1
  4951  0FAC  0822               	movf	(??___fladd+2)^(0+128),w
  4952  0FAD  1283               	bcf	3,5	;RP0=0, select bank0
  4953  0FAE  1303               	bcf	3,6	;RP1=0, select bank0
  4954  0FAF  00E4               	movwf	___fladd@b+2
  4955  0FB0  1683               	bsf	3,5	;RP0=1, select bank1
  4956  0FB1  1303               	bcf	3,6	;RP1=0, select bank1
  4957  0FB2  0821               	movf	(??___fladd+1)^(0+128),w
  4958  0FB3  1283               	bcf	3,5	;RP0=0, select bank0
  4959  0FB4  1303               	bcf	3,6	;RP1=0, select bank0
  4960  0FB5  00E3               	movwf	___fladd@b+1
  4961  0FB6  1683               	bsf	3,5	;RP0=1, select bank1
  4962  0FB7  1303               	bcf	3,6	;RP1=0, select bank1
  4963  0FB8  0820               	movf	??___fladd^(0+128),w
  4964  0FB9  1283               	bcf	3,5	;RP0=0, select bank0
  4965  0FBA  1303               	bcf	3,6	;RP1=0, select bank0
  4966  0FBB  00E2               	movwf	___fladd@b
  4967  0FBC  0A6C               	incf	___fladd@bexp,w
  4968  0FBD  1903               	btfsc	3,2
  4969  0FBE  2FC0               	goto	u5211
  4970  0FBF  2FC1               	goto	u5210
  4971  0FC0                     u5211:
  4972  0FC0  2FC9               	goto	l675
  4973  0FC1                     u5210:
  4974  0FC1                     l3364:
  4975  0FC1  3001               	movlw	1
  4976  0FC2  1683               	bsf	3,5	;RP0=1, select bank1
  4977  0FC3  1303               	bcf	3,6	;RP1=0, select bank1
  4978  0FC4  00A0               	movwf	??___fladd^(0+128)
  4979  0FC5  0820               	movf	??___fladd^(0+128),w
  4980  0FC6  1283               	bcf	3,5	;RP0=0, select bank0
  4981  0FC7  1303               	bcf	3,6	;RP1=0, select bank0
  4982  0FC8  07EC               	addwf	___fladd@bexp,f
  4983  0FC9                     l675:
  4984  0FC9  0A6C               	incf	___fladd@bexp,w
  4985  0FCA  1903               	btfsc	3,2
  4986  0FCB  2FCD               	goto	u5221
  4987  0FCC  2FCE               	goto	u5220
  4988  0FCD                     u5221:
  4989  0FCD  2FD3               	goto	l3368
  4990  0FCE                     u5220:
  4991  0FCE                     l3366:
  4992  0FCE  086C               	movf	___fladd@bexp,w
  4993  0FCF  1D03               	btfss	3,2
  4994  0FD0  2FD2               	goto	u5231
  4995  0FD1  2FD3               	goto	u5230
  4996  0FD2                     u5231:
  4997  0FD2  2FE1               	goto	l3374
  4998  0FD3                     u5230:
  4999  0FD3                     l3368:
  5000  0FD3  3000               	movlw	0
  5001  0FD4  00E5               	movwf	___fladd@b+3
  5002  0FD5  3000               	movlw	0
  5003  0FD6  00E4               	movwf	___fladd@b+2
  5004  0FD7  3000               	movlw	0
  5005  0FD8  00E3               	movwf	___fladd@b+1
  5006  0FD9  3000               	movlw	0
  5007  0FDA  00E2               	movwf	___fladd@b
  5008  0FDB                     l3370:
  5009  0FDB  086C               	movf	___fladd@bexp,w
  5010  0FDC  1D03               	btfss	3,2
  5011  0FDD  2FDF               	goto	u5241
  5012  0FDE  2FE0               	goto	u5240
  5013  0FDF                     u5241:
  5014  0FDF  2FE1               	goto	l3374
  5015  0FE0                     u5240:
  5016  0FE0                     l3372:
  5017  0FE0  01EA               	clrf	___fladd@signs
  5018  0FE1                     l3374:
  5019  0FE1  1C6C               	btfss	___fladd@bexp,0
  5020  0FE2  2FE4               	goto	u5251
  5021  0FE3  2FE5               	goto	u5250
  5022  0FE4                     u5251:
  5023  0FE4  2FE7               	goto	l3378
  5024  0FE5                     u5250:
  5025  0FE5                     l3376:
  5026  0FE5  17E4               	bsf	___fladd@b+2,7
  5027  0FE6  2FEF               	goto	l683
  5028  0FE7                     l3378:
  5029  0FE7  307F               	movlw	127
  5030  0FE8  1683               	bsf	3,5	;RP0=1, select bank1
  5031  0FE9  1303               	bcf	3,6	;RP1=0, select bank1
  5032  0FEA  00A0               	movwf	??___fladd^(0+128)
  5033  0FEB  0820               	movf	??___fladd^(0+128),w
  5034  0FEC  1283               	bcf	3,5	;RP0=0, select bank0
  5035  0FED  1303               	bcf	3,6	;RP1=0, select bank0
  5036  0FEE  05E4               	andwf	___fladd@b+2,f
  5037  0FEF                     l683:
  5038  0FEF  086C               	movf	___fladd@bexp,w
  5039  0FF0  1683               	bsf	3,5	;RP0=1, select bank1
  5040  0FF1  1303               	bcf	3,6	;RP1=0, select bank1
  5041  0FF2  00A0               	movwf	??___fladd^(0+128)
  5042  0FF3  1003               	clrc
  5043  0FF4  0C20               	rrf	??___fladd^(0+128),w
  5044  0FF5  00A1               	movwf	(??___fladd+1)^(0+128)
  5045  0FF6  0821               	movf	(??___fladd+1)^(0+128),w
  5046  0FF7  1283               	bcf	3,5	;RP0=0, select bank0
  5047  0FF8  1303               	bcf	3,6	;RP1=0, select bank0
  5048  0FF9  00E5               	movwf	___fladd@b+3
  5049  0FFA                     l3380:
  5050  0FFA  1FEA               	btfss	___fladd@signs,7
  5051  0FFB  2FFD               	goto	u5261
  5052  0FFC  2FFE               	goto	u5260
  5053  0FFD                     u5261:
  5054  0FFD  2FFF               	goto	l684
  5055  0FFE                     u5260:
  5056  0FFE                     l3382:
  5057  0FFE  17E5               	bsf	___fladd@b+3,7
  5058  0FFF                     l684:
  5059  0FFF                     l654:
  5060  0FFF  0008               	return
  5061  1000                     __end_of___fladd:
  5062                           
  5063                           	psect	text5
  5064  1186                     __ptext5:	
  5065 ;; *************** function ___flge *****************
  5066 ;; Defined at:
  5067 ;;		line 4 in file "E:\Program Files\Microchip\xc8\v2.30\pic\sources\c90\common\flge.c"
  5068 ;; Parameters:    Size  Location     Type
  5069 ;;  ff1             4    2[COMMON] unsigned char 
  5070 ;;  ff2             4    6[COMMON] unsigned char 
  5071 ;; Auto vars:     Size  Location     Type
  5072 ;;		None
  5073 ;; Return value:  Size  Location     Type
  5074 ;;		None               void
  5075 ;; Registers used:
  5076 ;;		wreg, status,2, status,0
  5077 ;; Tracked objects:
  5078 ;;		On entry : 0/0
  5079 ;;		On exit  : 0/0
  5080 ;;		Unchanged: 0/0
  5081 ;; Data sizes:     COMMON   BANK0   BANK1   BANK3   BANK2
  5082 ;;      Params:         8       0       0       0       0
  5083 ;;      Locals:         0       0       0       0       0
  5084 ;;      Temps:          0       4       0       0       0
  5085 ;;      Totals:         8       4       0       0       0
  5086 ;;Total ram usage:       12 bytes
  5087 ;; Hardware stack levels used:    1
  5088 ;; Hardware stack levels required when called:    1
  5089 ;; This function calls:
  5090 ;;		Nothing
  5091 ;; This function is called by:
  5092 ;;		_tinh_pid
  5093 ;; This function uses a non-reentrant model
  5094 ;;
  5095                           
  5096                           
  5097                           ;psect for function ___flge
  5098  1186                     ___flge:
  5099  1186                     l3774:	
  5100                           ;incstack = 0
  5101                           ; Regs used in ___flge: [wreg+status,2+status,0]
  5102                           
  5103  1186  3000               	movlw	0
  5104  1187  0572               	andwf	___flge@ff1,w
  5105  1188  1283               	bcf	3,5	;RP0=0, select bank0
  5106  1189  1303               	bcf	3,6	;RP1=0, select bank0
  5107  118A  00A0               	movwf	??___flge
  5108  118B  3000               	movlw	0
  5109  118C  0573               	andwf	___flge@ff1+1,w
  5110  118D  00A1               	movwf	??___flge+1
  5111  118E  3080               	movlw	128
  5112  118F  0574               	andwf	___flge@ff1+2,w
  5113  1190  00A2               	movwf	??___flge+2
  5114  1191  307F               	movlw	127
  5115  1192  0575               	andwf	___flge@ff1+3,w
  5116  1193  00A3               	movwf	??___flge+3
  5117  1194  0823               	movf	??___flge+3,w
  5118  1195  0422               	iorwf	??___flge+2,w
  5119  1196  0421               	iorwf	??___flge+1,w
  5120  1197  0420               	iorwf	??___flge,w
  5121  1198  1D03               	skipz
  5122  1199  299B               	goto	u6191
  5123  119A  299C               	goto	u6190
  5124  119B                     u6191:
  5125  119B  29A4               	goto	l522
  5126  119C                     u6190:
  5127  119C                     l3776:
  5128  119C  3000               	movlw	0
  5129  119D  00F5               	movwf	___flge@ff1+3
  5130  119E  3000               	movlw	0
  5131  119F  00F4               	movwf	___flge@ff1+2
  5132  11A0  3000               	movlw	0
  5133  11A1  00F3               	movwf	___flge@ff1+1
  5134  11A2  3000               	movlw	0
  5135  11A3  00F2               	movwf	___flge@ff1
  5136  11A4                     l522:
  5137  11A4  3000               	movlw	0
  5138  11A5  0576               	andwf	___flge@ff2,w
  5139  11A6  00A0               	movwf	??___flge
  5140  11A7  3000               	movlw	0
  5141  11A8  0577               	andwf	___flge@ff2+1,w
  5142  11A9  00A1               	movwf	??___flge+1
  5143  11AA  3080               	movlw	128
  5144  11AB  0578               	andwf	___flge@ff2+2,w
  5145  11AC  00A2               	movwf	??___flge+2
  5146  11AD  307F               	movlw	127
  5147  11AE  0579               	andwf	___flge@ff2+3,w
  5148  11AF  00A3               	movwf	??___flge+3
  5149  11B0  0823               	movf	??___flge+3,w
  5150  11B1  0422               	iorwf	??___flge+2,w
  5151  11B2  0421               	iorwf	??___flge+1,w
  5152  11B3  0420               	iorwf	??___flge,w
  5153  11B4  1D03               	skipz
  5154  11B5  29B7               	goto	u6201
  5155  11B6  29B8               	goto	u6200
  5156  11B7                     u6201:
  5157  11B7  29C0               	goto	l3780
  5158  11B8                     u6200:
  5159  11B8                     l3778:
  5160  11B8  3000               	movlw	0
  5161  11B9  00F9               	movwf	___flge@ff2+3
  5162  11BA  3000               	movlw	0
  5163  11BB  00F8               	movwf	___flge@ff2+2
  5164  11BC  3000               	movlw	0
  5165  11BD  00F7               	movwf	___flge@ff2+1
  5166  11BE  3000               	movlw	0
  5167  11BF  00F6               	movwf	___flge@ff2
  5168  11C0                     l3780:
  5169  11C0  1FF5               	btfss	___flge@ff1+3,7
  5170  11C1  29C3               	goto	u6211
  5171  11C2  29C4               	goto	u6210
  5172  11C3                     u6211:
  5173  11C3  29E8               	goto	l3784
  5174  11C4                     u6210:
  5175  11C4                     l3782:
  5176  11C4  3000               	movlw	0
  5177  11C5  00A0               	movwf	??___flge
  5178  11C6  3000               	movlw	0
  5179  11C7  00A1               	movwf	??___flge+1
  5180  11C8  3000               	movlw	0
  5181  11C9  00A2               	movwf	??___flge+2
  5182  11CA  3080               	movlw	128
  5183  11CB  00A3               	movwf	??___flge+3
  5184  11CC  0872               	movf	___flge@ff1,w
  5185  11CD  02A0               	subwf	??___flge,f
  5186  11CE  0873               	movf	___flge@ff1+1,w
  5187  11CF  1C03               	skipc
  5188  11D0  0F73               	incfsz	___flge@ff1+1,w
  5189  11D1  29D3               	goto	u6221
  5190  11D2  29D4               	goto	u6222
  5191  11D3                     u6221:
  5192  11D3  02A1               	subwf	??___flge+1,f
  5193  11D4                     u6222:
  5194  11D4  0874               	movf	___flge@ff1+2,w
  5195  11D5  1C03               	skipc
  5196  11D6  0F74               	incfsz	___flge@ff1+2,w
  5197  11D7  29D9               	goto	u6223
  5198  11D8  29DA               	goto	u6224
  5199  11D9                     u6223:
  5200  11D9  02A2               	subwf	??___flge+2,f
  5201  11DA                     u6224:
  5202  11DA  0875               	movf	___flge@ff1+3,w
  5203  11DB  1C03               	skipc
  5204  11DC  0F75               	incfsz	___flge@ff1+3,w
  5205  11DD  29DF               	goto	u6225
  5206  11DE  29E0               	goto	u6226
  5207  11DF                     u6225:
  5208  11DF  02A3               	subwf	??___flge+3,f
  5209  11E0                     u6226:
  5210  11E0  0823               	movf	??___flge+3,w
  5211  11E1  00F5               	movwf	___flge@ff1+3
  5212  11E2  0822               	movf	??___flge+2,w
  5213  11E3  00F4               	movwf	___flge@ff1+2
  5214  11E4  0821               	movf	??___flge+1,w
  5215  11E5  00F3               	movwf	___flge@ff1+1
  5216  11E6  0820               	movf	??___flge,w
  5217  11E7  00F2               	movwf	___flge@ff1
  5218  11E8                     l3784:
  5219  11E8  1FF9               	btfss	___flge@ff2+3,7
  5220  11E9  29EB               	goto	u6231
  5221  11EA  29EC               	goto	u6230
  5222  11EB                     u6231:
  5223  11EB  2A10               	goto	l525
  5224  11EC                     u6230:
  5225  11EC                     l3786:
  5226  11EC  3000               	movlw	0
  5227  11ED  00A0               	movwf	??___flge
  5228  11EE  3000               	movlw	0
  5229  11EF  00A1               	movwf	??___flge+1
  5230  11F0  3000               	movlw	0
  5231  11F1  00A2               	movwf	??___flge+2
  5232  11F2  3080               	movlw	128
  5233  11F3  00A3               	movwf	??___flge+3
  5234  11F4  0876               	movf	___flge@ff2,w
  5235  11F5  02A0               	subwf	??___flge,f
  5236  11F6  0877               	movf	___flge@ff2+1,w
  5237  11F7  1C03               	skipc
  5238  11F8  0F77               	incfsz	___flge@ff2+1,w
  5239  11F9  29FB               	goto	u6241
  5240  11FA  29FC               	goto	u6242
  5241  11FB                     u6241:
  5242  11FB  02A1               	subwf	??___flge+1,f
  5243  11FC                     u6242:
  5244  11FC  0878               	movf	___flge@ff2+2,w
  5245  11FD  1C03               	skipc
  5246  11FE  0F78               	incfsz	___flge@ff2+2,w
  5247  11FF  2A01               	goto	u6243
  5248  1200  2A02               	goto	u6244
  5249  1201                     u6243:
  5250  1201  02A2               	subwf	??___flge+2,f
  5251  1202                     u6244:
  5252  1202  0879               	movf	___flge@ff2+3,w
  5253  1203  1C03               	skipc
  5254  1204  0F79               	incfsz	___flge@ff2+3,w
  5255  1205  2A07               	goto	u6245
  5256  1206  2A08               	goto	u6246
  5257  1207                     u6245:
  5258  1207  02A3               	subwf	??___flge+3,f
  5259  1208                     u6246:
  5260  1208  0823               	movf	??___flge+3,w
  5261  1209  00F9               	movwf	___flge@ff2+3
  5262  120A  0822               	movf	??___flge+2,w
  5263  120B  00F8               	movwf	___flge@ff2+2
  5264  120C  0821               	movf	??___flge+1,w
  5265  120D  00F7               	movwf	___flge@ff2+1
  5266  120E  0820               	movf	??___flge,w
  5267  120F  00F6               	movwf	___flge@ff2
  5268  1210                     l525:
  5269  1210  3080               	movlw	128
  5270  1211  06F5               	xorwf	___flge@ff1+3,f
  5271  1212  3080               	movlw	128
  5272  1213  06F9               	xorwf	___flge@ff2+3,f
  5273  1214  0879               	movf	___flge@ff2+3,w
  5274  1215  0275               	subwf	___flge@ff1+3,w
  5275  1216  1D03               	skipz
  5276  1217  2A22               	goto	u6255
  5277  1218  0878               	movf	___flge@ff2+2,w
  5278  1219  0274               	subwf	___flge@ff1+2,w
  5279  121A  1D03               	skipz
  5280  121B  2A22               	goto	u6255
  5281  121C  0877               	movf	___flge@ff2+1,w
  5282  121D  0273               	subwf	___flge@ff1+1,w
  5283  121E  1D03               	skipz
  5284  121F  2A22               	goto	u6255
  5285  1220  0876               	movf	___flge@ff2,w
  5286  1221  0272               	subwf	___flge@ff1,w
  5287  1222                     u6255:
  5288  1222  1803               	skipnc
  5289  1223  2A25               	goto	u6251
  5290  1224  2A26               	goto	u6250
  5291  1225                     u6251:
  5292  1225  2A28               	goto	l3790
  5293  1226                     u6250:
  5294  1226                     l3788:
  5295  1226  1003               	clrc
  5296  1227  2A29               	goto	l526
  5297  1228                     l3790:
  5298  1228  1403               	setc
  5299  1229                     l526:
  5300  1229  0008               	return
  5301  122A                     __end_of___flge:
  5302                           
  5303                           	psect	text6
  5304  1DA8                     __ptext6:	
  5305 ;; *************** function _nn_up *****************
  5306 ;; Defined at:
  5307 ;;		line 136 in file "Mach_encoder_4NN_LCD_PID_Pic16F887_MPlab.c"
  5308 ;; Parameters:    Size  Location     Type
  5309 ;;		None
  5310 ;; Auto vars:     Size  Location     Type
  5311 ;;		None
  5312 ;; Return value:  Size  Location     Type
  5313 ;;                  1    wreg      void 
  5314 ;; Registers used:
  5315 ;;		wreg, status,2, status,0
  5316 ;; Tracked objects:
  5317 ;;		On entry : 0/0
  5318 ;;		On exit  : 0/0
  5319 ;;		Unchanged: 0/0
  5320 ;; Data sizes:     COMMON   BANK0   BANK1   BANK3   BANK2
  5321 ;;      Params:         0       0       0       0       0
  5322 ;;      Locals:         0       0       0       0       0
  5323 ;;      Temps:          4       0       0       0       0
  5324 ;;      Totals:         4       0       0       0       0
  5325 ;;Total ram usage:        4 bytes
  5326 ;; Hardware stack levels used:    1
  5327 ;; Hardware stack levels required when called:    1
  5328 ;; This function calls:
  5329 ;;		Nothing
  5330 ;; This function is called by:
  5331 ;;		_main
  5332 ;; This function uses a non-reentrant model
  5333 ;;
  5334                           
  5335                           
  5336                           ;psect for function _nn_up
  5337  1DA8                     _nn_up:
  5338  1DA8                     l2810:	
  5339                           ;incstack = 0
  5340                           ; Regs used in _nn_up: [wreg+status,2+status,0]
  5341                           
  5342                           
  5343                           ;Mach_encoder_4NN_LCD_PID_Pic16F887_MPlab.c: 138:    if((PORTAbits.RA2)==0)
  5344  1DA8  1283               	bcf	3,5	;RP0=0, select bank0
  5345  1DA9  1303               	bcf	3,6	;RP1=0, select bank0
  5346  1DAA  1905               	btfsc	5,2	;volatile
  5347  1DAB  2DAD               	goto	u4181
  5348  1DAC  2DAE               	goto	u4180
  5349  1DAD                     u4181:
  5350  1DAD  2E05               	goto	l227
  5351  1DAE                     u4180:
  5352  1DAE                     l2812:
  5353                           
  5354                           ;Mach_encoder_4NN_LCD_PID_Pic16F887_MPlab.c: 139:    {;Mach_encoder_4NN_LCD_PID_Pic16F88
      +                          7_MPlab.c: 140:       _delay((unsigned long)((20)*(20000000/4000.0)));
  5355  1DAE  3082               	movlw	130
  5356  1DAF  00F3               	movwf	??_nn_up+1
  5357  1DB0  30DD               	movlw	221
  5358  1DB1  00F2               	movwf	??_nn_up
  5359  1DB2                     u6577:
  5360  1DB2  0BF2               	decfsz	??_nn_up,f
  5361  1DB3  2DB2               	goto	u6577
  5362  1DB4  0BF3               	decfsz	??_nn_up+1,f
  5363  1DB5  2DB2               	goto	u6577
  5364  1DB6  2DB7               	nop2
  5365  1DB7                     l2814:
  5366                           
  5367                           ;Mach_encoder_4NN_LCD_PID_Pic16F887_MPlab.c: 141:       if((PORTAbits.RA2)==0)
  5368  1DB7  1283               	bcf	3,5	;RP0=0, select bank0
  5369  1DB8  1303               	bcf	3,6	;RP1=0, select bank0
  5370  1DB9  1905               	btfsc	5,2	;volatile
  5371  1DBA  2DBC               	goto	u4191
  5372  1DBB  2DBD               	goto	u4190
  5373  1DBC                     u4191:
  5374  1DBC  2E05               	goto	l227
  5375  1DBD                     u4190:
  5376  1DBD                     l2816:
  5377                           
  5378                           ;Mach_encoder_4NN_LCD_PID_Pic16F887_MPlab.c: 142:       {;Mach_encoder_4NN_LCD_PID_Pic16
      +                          F887_MPlab.c: 143:          dat=dat+10;
  5379  1DBD  300A               	movlw	10
  5380  1DBE  00F2               	movwf	??_nn_up
  5381  1DBF  3000               	movlw	0
  5382  1DC0  00F3               	movwf	??_nn_up+1
  5383  1DC1  3000               	movlw	0
  5384  1DC2  00F4               	movwf	??_nn_up+2
  5385  1DC3  3000               	movlw	0
  5386  1DC4  00F5               	movwf	??_nn_up+3
  5387  1DC5  1683               	bsf	3,5	;RP0=1, select bank3
  5388  1DC6  1703               	bsf	3,6	;RP1=1, select bank3
  5389  1DC7  0818               	movf	_dat^(0+384),w
  5390  1DC8  07F2               	addwf	??_nn_up,f
  5391  1DC9  0819               	movf	(_dat+1)^(0+384),w
  5392  1DCA  1803               	skipnc
  5393  1DCB  0F19               	incfsz	(_dat+1)^(0+384),w
  5394  1DCC  2DCE               	goto	u4200
  5395  1DCD  2DCF               	goto	u4201
  5396  1DCE                     u4200:
  5397  1DCE  07F3               	addwf	??_nn_up+1,f
  5398  1DCF                     u4201:
  5399  1DCF  081A               	movf	(_dat+2)^(0+384),w
  5400  1DD0  1803               	skipnc
  5401  1DD1  0F1A               	incfsz	(_dat+2)^(0+384),w
  5402  1DD2  2DD4               	goto	u4202
  5403  1DD3  2DD5               	goto	u4203
  5404  1DD4                     u4202:
  5405  1DD4  07F4               	addwf	??_nn_up+2,f
  5406  1DD5                     u4203:
  5407  1DD5  081B               	movf	(_dat+3)^(0+384),w
  5408  1DD6  1803               	skipnc
  5409  1DD7  0A1B               	incf	(_dat+3)^(0+384),w
  5410  1DD8  07F5               	addwf	??_nn_up+3,f
  5411  1DD9  0875               	movf	??_nn_up+3,w
  5412  1DDA  009B               	movwf	(_dat+3)^(0+384)
  5413  1DDB  0874               	movf	??_nn_up+2,w
  5414  1DDC  009A               	movwf	(_dat+2)^(0+384)
  5415  1DDD  0873               	movf	??_nn_up+1,w
  5416  1DDE  0099               	movwf	(_dat+1)^(0+384)
  5417  1DDF  0872               	movf	??_nn_up,w
  5418  1DE0  0098               	movwf	_dat^(0+384)
  5419  1DE1                     l2818:
  5420                           
  5421                           ;Mach_encoder_4NN_LCD_PID_Pic16F887_MPlab.c: 144:          if(dat>280) dat=280;
  5422  1DE1  1B9B               	btfsc	(_dat+3)^(0+384),7
  5423  1DE2  2DF4               	goto	u4211
  5424  1DE3  081B               	movf	(_dat+3)^(0+384),w
  5425  1DE4  1D03               	btfss	3,2
  5426  1DE5  2DF5               	goto	u4210
  5427  1DE6  081A               	movf	(_dat+2)^(0+384),w
  5428  1DE7  1D03               	btfss	3,2
  5429  1DE8  2DF5               	goto	u4210
  5430  1DE9  3001               	movlw	1
  5431  1DEA  0219               	subwf	(_dat+1)^(0+384),w
  5432  1DEB  1D03               	skipz
  5433  1DEC  2DF1               	goto	u4213
  5434  1DED  3019               	movlw	25
  5435  1DEE  0218               	subwf	_dat^(0+384),w
  5436  1DEF  1D03               	skipz
  5437  1DF0  2DF1               	goto	u4213
  5438  1DF1                     u4213:
  5439  1DF1  1C03               	btfss	3,0
  5440  1DF2  2DF4               	goto	u4211
  5441  1DF3  2DF5               	goto	u4210
  5442  1DF4                     u4211:
  5443  1DF4  2DFF               	goto	l224
  5444  1DF5                     u4210:
  5445  1DF5                     l2820:
  5446  1DF5  3000               	movlw	0
  5447  1DF6  1683               	bsf	3,5	;RP0=1, select bank3
  5448  1DF7  1703               	bsf	3,6	;RP1=1, select bank3
  5449  1DF8  009B               	movwf	(_dat+3)^(0+384)
  5450  1DF9  3000               	movlw	0
  5451  1DFA  009A               	movwf	(_dat+2)^(0+384)
  5452  1DFB  3001               	movlw	1
  5453  1DFC  0099               	movwf	(_dat+1)^(0+384)
  5454  1DFD  3018               	movlw	24
  5455  1DFE  0098               	movwf	_dat^(0+384)
  5456  1DFF                     l224:
  5457  1DFF  1283               	bcf	3,5	;RP0=0, select bank0
  5458  1E00  1303               	bcf	3,6	;RP1=0, select bank0
  5459  1E01  1D05               	btfss	5,2	;volatile
  5460  1E02  2E04               	goto	u4221
  5461  1E03  2E05               	goto	u4220
  5462  1E04                     u4221:
  5463  1E04  2DFF               	goto	l224
  5464  1E05                     u4220:
  5465  1E05                     l227:
  5466  1E05  0008               	return
  5467  1E06                     __end_of_nn_up:
  5468                           
  5469                           	psect	text7
  5470  1EF7                     __ptext7:	
  5471 ;; *************** function _nn_ss *****************
  5472 ;; Defined at:
  5473 ;;		line 69 in file "Mach_encoder_4NN_LCD_PID_Pic16F887_MPlab.c"
  5474 ;; Parameters:    Size  Location     Type
  5475 ;;		None
  5476 ;; Auto vars:     Size  Location     Type
  5477 ;;		None
  5478 ;; Return value:  Size  Location     Type
  5479 ;;                  1    wreg      void 
  5480 ;; Registers used:
  5481 ;;		wreg, status,2, status,0, btemp+1, pclath, cstack
  5482 ;; Tracked objects:
  5483 ;;		On entry : 0/0
  5484 ;;		On exit  : 0/0
  5485 ;;		Unchanged: 0/0
  5486 ;; Data sizes:     COMMON   BANK0   BANK1   BANK3   BANK2
  5487 ;;      Params:         0       0       0       0       0
  5488 ;;      Locals:         0       0       0       0       0
  5489 ;;      Temps:          0       0       2       0       0
  5490 ;;      Totals:         0       0       2       0       0
  5491 ;;Total ram usage:        2 bytes
  5492 ;; Hardware stack levels used:    1
  5493 ;; Hardware stack levels required when called:    4
  5494 ;; This function calls:
  5495 ;;		_PWM1_Duty
  5496 ;;		_PWM1_Start
  5497 ;;		_PWM1_Stop
  5498 ;;		_PWM2_Duty
  5499 ;;		_PWM2_Start
  5500 ;;		_PWM2_Stop
  5501 ;; This function is called by:
  5502 ;;		_main
  5503 ;; This function uses a non-reentrant model
  5504 ;;
  5505                           
  5506                           
  5507                           ;psect for function _nn_ss
  5508  1EF7                     _nn_ss:
  5509  1EF7                     l3844:	
  5510                           ;incstack = 0
  5511                           ; Regs used in _nn_ss: [wreg+status,2+status,0+btemp+1+pclath+cstack]
  5512                           
  5513                           
  5514                           ;Mach_encoder_4NN_LCD_PID_Pic16F887_MPlab.c: 71:    if(PORTAbits.RA0==0)
  5515  1EF7  1283               	bcf	3,5	;RP0=0, select bank0
  5516  1EF8  1303               	bcf	3,6	;RP1=0, select bank0
  5517  1EF9  1805               	btfsc	5,0	;volatile
  5518  1EFA  2EFC               	goto	u6331
  5519  1EFB  2EFD               	goto	u6330
  5520  1EFC                     u6331:
  5521  1EFC  2F78               	goto	l207
  5522  1EFD                     u6330:
  5523  1EFD                     l3846:
  5524                           
  5525                           ;Mach_encoder_4NN_LCD_PID_Pic16F887_MPlab.c: 72:    {;Mach_encoder_4NN_LCD_PID_Pic16F887
      +                          _MPlab.c: 73:        _delay((unsigned long)((20)*(20000000/4000.0)));
  5526  1EFD  3082               	movlw	130
  5527  1EFE  1683               	bsf	3,5	;RP0=1, select bank1
  5528  1EFF  1303               	bcf	3,6	;RP1=0, select bank1
  5529  1F00  00D0               	movwf	(??_nn_ss^(0+128)+1)
  5530  1F01  30DD               	movlw	221
  5531  1F02  00CF               	movwf	??_nn_ss^(0+128)
  5532  1F03                     u6587:
  5533  1F03  0BCF               	decfsz	??_nn_ss^(0+128),f
  5534  1F04  2F03               	goto	u6587
  5535  1F05  0BD0               	decfsz	(??_nn_ss^(0+128)+1),f
  5536  1F06  2F03               	goto	u6587
  5537  1F07                     l3848:
  5538                           
  5539                           ;Mach_encoder_4NN_LCD_PID_Pic16F887_MPlab.c: 74:        if(PORTAbits.RA0==0)
  5540  1F07  1283               	bcf	3,5	;RP0=0, select bank0
  5541  1F08  1303               	bcf	3,6	;RP1=0, select bank0
  5542  1F09  1805               	btfsc	5,0	;volatile
  5543  1F0A  2F0C               	goto	u6341
  5544  1F0B  2F0D               	goto	u6340
  5545  1F0C                     u6341:
  5546  1F0C  2F78               	goto	l207
  5547  1F0D                     u6340:
  5548  1F0D                     l3850:
  5549                           
  5550                           ;Mach_encoder_4NN_LCD_PID_Pic16F887_MPlab.c: 75:        {;Mach_encoder_4NN_LCD_PID_Pic16
      +                          F887_MPlab.c: 76:            tt_ss++;
  5551  1F0D  3001               	movlw	1
  5552  1F0E  07FA               	addwf	_tt_ss,f
  5553  1F0F  1803               	skipnc
  5554  1F10  0AFB               	incf	_tt_ss+1,f
  5555  1F11  3000               	movlw	0
  5556  1F12  07FB               	addwf	_tt_ss+1,f
  5557  1F13                     l3852:
  5558                           
  5559                           ;Mach_encoder_4NN_LCD_PID_Pic16F887_MPlab.c: 77:            if(tt_ss>1) tt_ss=0;
  5560  1F13  087B               	movf	_tt_ss+1,w
  5561  1F14  3A80               	xorlw	128
  5562  1F15  00FF               	movwf	btemp+1
  5563  1F16  3080               	movlw	128
  5564  1F17  027F               	subwf	btemp+1,w
  5565  1F18  1D03               	skipz
  5566  1F19  2F1C               	goto	u6355
  5567  1F1A  3002               	movlw	2
  5568  1F1B  027A               	subwf	_tt_ss,w
  5569  1F1C                     u6355:
  5570  1F1C  1C03               	skipc
  5571  1F1D  2F1F               	goto	u6351
  5572  1F1E  2F20               	goto	u6350
  5573  1F1F                     u6351:
  5574  1F1F  2F22               	goto	l3856
  5575  1F20                     u6350:
  5576  1F20                     l3854:
  5577  1F20  01FA               	clrf	_tt_ss
  5578  1F21  01FB               	clrf	_tt_ss+1
  5579  1F22                     l3856:
  5580                           
  5581                           ;Mach_encoder_4NN_LCD_PID_Pic16F887_MPlab.c: 78:            if(tt_ss==1)
  5582  1F22  037A               	decf	_tt_ss,w
  5583  1F23  047B               	iorwf	_tt_ss+1,w
  5584  1F24  1D03               	btfss	3,2
  5585  1F25  2F27               	goto	u6361
  5586  1F26  2F28               	goto	u6360
  5587  1F27                     u6361:
  5588  1F27  2F62               	goto	l3876
  5589  1F28                     u6360:
  5590  1F28                     l3858:
  5591                           
  5592                           ;Mach_encoder_4NN_LCD_PID_Pic16F887_MPlab.c: 79:            {;Mach_encoder_4NN_LCD_PID_P
      +                          ic16F887_MPlab.c: 80:                if(tt_inv==1)
  5593  1F28  1683               	bsf	3,5	;RP0=1, select bank1
  5594  1F29  1303               	bcf	3,6	;RP1=0, select bank1
  5595  1F2A  0358               	decf	_tt_inv^(0+128),w
  5596  1F2B  0459               	iorwf	(_tt_inv+1)^(0+128),w
  5597  1F2C  1D03               	btfss	3,2
  5598  1F2D  2F2F               	goto	u6371
  5599  1F2E  2F30               	goto	u6370
  5600  1F2F                     u6371:
  5601  1F2F  2F49               	goto	l3868
  5602  1F30                     u6370:
  5603  1F30                     l3860:
  5604                           
  5605                           ;Mach_encoder_4NN_LCD_PID_Pic16F887_MPlab.c: 81:                {;Mach_encoder_4NN_LCD_P
      +                          ID_Pic16F887_MPlab.c: 82:                    PWM2_Stop();
  5606  1F30  160A  118A  2001  160A  158A  	fcall	_PWM2_Stop
  5607  1F35                     l3862:
  5608                           
  5609                           ;Mach_encoder_4NN_LCD_PID_Pic16F887_MPlab.c: 83:                    PORTCbits.RC1=0;
  5610  1F35  1283               	bcf	3,5	;RP0=0, select bank0
  5611  1F36  1303               	bcf	3,6	;RP1=0, select bank0
  5612  1F37  1087               	bcf	7,1	;volatile
  5613  1F38                     l3864:
  5614                           
  5615                           ;Mach_encoder_4NN_LCD_PID_Pic16F887_MPlab.c: 84:                    PWM1_Duty(pwmduty);
  5616  1F38  1683               	bsf	3,5	;RP0=1, select bank1
  5617  1F39  1303               	bcf	3,6	;RP1=0, select bank1
  5618  1F3A  0855               	movf	(_pwmduty+1)^(0+128),w
  5619  1F3B  00CC               	movwf	(PWM1_Duty@duty+1)^(0+128)
  5620  1F3C  0854               	movf	_pwmduty^(0+128),w
  5621  1F3D  00CB               	movwf	PWM1_Duty@duty^(0+128)
  5622  1F3E  120A  158A  2077  160A  158A  	fcall	_PWM1_Duty
  5623  1F43                     l3866:
  5624                           
  5625                           ;Mach_encoder_4NN_LCD_PID_Pic16F887_MPlab.c: 85:                    PWM1_Start();
  5626  1F43  160A  158A  2370  160A  158A  	fcall	_PWM1_Start
  5627                           
  5628                           ;Mach_encoder_4NN_LCD_PID_Pic16F887_MPlab.c: 86:                }
  5629  1F48  2F72               	goto	l204
  5630  1F49                     l3868:
  5631                           
  5632                           ;Mach_encoder_4NN_LCD_PID_Pic16F887_MPlab.c: 88:                {;Mach_encoder_4NN_LCD_P
      +                          ID_Pic16F887_MPlab.c: 89:                    PWM1_Stop();
  5633  1F49  160A  158A  236B  160A  158A  	fcall	_PWM1_Stop
  5634  1F4E                     l3870:
  5635                           
  5636                           ;Mach_encoder_4NN_LCD_PID_Pic16F887_MPlab.c: 90:                    PORTCbits.RC2=0;
  5637  1F4E  1283               	bcf	3,5	;RP0=0, select bank0
  5638  1F4F  1303               	bcf	3,6	;RP1=0, select bank0
  5639  1F50  1107               	bcf	7,2	;volatile
  5640  1F51                     l3872:
  5641                           
  5642                           ;Mach_encoder_4NN_LCD_PID_Pic16F887_MPlab.c: 91:                    PWM2_Duty(pwmduty);
  5643  1F51  1683               	bsf	3,5	;RP0=1, select bank1
  5644  1F52  1303               	bcf	3,6	;RP1=0, select bank1
  5645  1F53  0855               	movf	(_pwmduty+1)^(0+128),w
  5646  1F54  00CC               	movwf	(PWM2_Duty@duty+1)^(0+128)
  5647  1F55  0854               	movf	_pwmduty^(0+128),w
  5648  1F56  00CB               	movwf	PWM2_Duty@duty^(0+128)
  5649  1F57  120A  118A  2736  160A  158A  	fcall	_PWM2_Duty
  5650  1F5C                     l3874:
  5651                           
  5652                           ;Mach_encoder_4NN_LCD_PID_Pic16F887_MPlab.c: 92:                    PWM2_Start();
  5653  1F5C  160A  158A  237B  160A  158A  	fcall	_PWM2_Start
  5654  1F61  2F72               	goto	l204
  5655  1F62                     l3876:
  5656                           
  5657                           ;Mach_encoder_4NN_LCD_PID_Pic16F887_MPlab.c: 96:            {;Mach_encoder_4NN_LCD_PID_P
      +                          ic16F887_MPlab.c: 97:                PWM1_Stop();
  5658  1F62  160A  158A  236B  160A  158A  	fcall	_PWM1_Stop
  5659  1F67                     l3878:
  5660                           
  5661                           ;Mach_encoder_4NN_LCD_PID_Pic16F887_MPlab.c: 98:                PORTCbits.RC2=0;
  5662  1F67  1283               	bcf	3,5	;RP0=0, select bank0
  5663  1F68  1303               	bcf	3,6	;RP1=0, select bank0
  5664  1F69  1107               	bcf	7,2	;volatile
  5665                           
  5666                           ;Mach_encoder_4NN_LCD_PID_Pic16F887_MPlab.c: 99:                PWM2_Stop();
  5667  1F6A  160A  118A  2001  160A  158A  	fcall	_PWM2_Stop
  5668  1F6F                     l3880:
  5669                           
  5670                           ;Mach_encoder_4NN_LCD_PID_Pic16F887_MPlab.c: 100:                PORTCbits.RC1=0;
  5671  1F6F  1283               	bcf	3,5	;RP0=0, select bank0
  5672  1F70  1303               	bcf	3,6	;RP1=0, select bank0
  5673  1F71  1087               	bcf	7,1	;volatile
  5674  1F72                     l204:
  5675  1F72  1283               	bcf	3,5	;RP0=0, select bank0
  5676  1F73  1303               	bcf	3,6	;RP1=0, select bank0
  5677  1F74  1C05               	btfss	5,0	;volatile
  5678  1F75  2F77               	goto	u6381
  5679  1F76  2F78               	goto	u6380
  5680  1F77                     u6381:
  5681  1F77  2F72               	goto	l204
  5682  1F78                     u6380:
  5683  1F78                     l207:
  5684  1F78  0008               	return
  5685  1F79                     __end_of_nn_ss:
  5686                           
  5687                           	psect	text8
  5688  1E06                     __ptext8:	
  5689 ;; *************** function _nn_inv *****************
  5690 ;; Defined at:
  5691 ;;		line 107 in file "Mach_encoder_4NN_LCD_PID_Pic16F887_MPlab.c"
  5692 ;; Parameters:    Size  Location     Type
  5693 ;;		None
  5694 ;; Auto vars:     Size  Location     Type
  5695 ;;		None
  5696 ;; Return value:  Size  Location     Type
  5697 ;;                  1    wreg      void 
  5698 ;; Registers used:
  5699 ;;		wreg, status,2, status,0, btemp+1, pclath, cstack
  5700 ;; Tracked objects:
  5701 ;;		On entry : 0/0
  5702 ;;		On exit  : 0/0
  5703 ;;		Unchanged: 0/0
  5704 ;; Data sizes:     COMMON   BANK0   BANK1   BANK3   BANK2
  5705 ;;      Params:         0       0       0       0       0
  5706 ;;      Locals:         0       0       0       0       0
  5707 ;;      Temps:          0       0       2       0       0
  5708 ;;      Totals:         0       0       2       0       0
  5709 ;;Total ram usage:        2 bytes
  5710 ;; Hardware stack levels used:    1
  5711 ;; Hardware stack levels required when called:    4
  5712 ;; This function calls:
  5713 ;;		_PWM1_Duty
  5714 ;;		_PWM1_Start
  5715 ;;		_PWM1_Stop
  5716 ;;		_PWM2_Duty
  5717 ;;		_PWM2_Start
  5718 ;;		_PWM2_Stop
  5719 ;; This function is called by:
  5720 ;;		_main
  5721 ;; This function uses a non-reentrant model
  5722 ;;
  5723                           
  5724                           
  5725                           ;psect for function _nn_inv
  5726  1E06                     _nn_inv:
  5727  1E06                     l3882:	
  5728                           ;incstack = 0
  5729                           ; Regs used in _nn_inv: [wreg+status,2+status,0+btemp+1+pclath+cstack]
  5730                           
  5731                           
  5732                           ;Mach_encoder_4NN_LCD_PID_Pic16F887_MPlab.c: 109:    if((PORTAbits.RA1)==0)
  5733  1E06  1283               	bcf	3,5	;RP0=0, select bank0
  5734  1E07  1303               	bcf	3,6	;RP1=0, select bank0
  5735  1E08  1885               	btfsc	5,1	;volatile
  5736  1E09  2E0B               	goto	u6391
  5737  1E0A  2E0C               	goto	u6390
  5738  1E0B                     u6391:
  5739  1E0B  2E7D               	goto	l218
  5740  1E0C                     u6390:
  5741  1E0C                     l3884:
  5742                           
  5743                           ;Mach_encoder_4NN_LCD_PID_Pic16F887_MPlab.c: 110:    {;Mach_encoder_4NN_LCD_PID_Pic16F88
      +                          7_MPlab.c: 111:       _delay((unsigned long)((20)*(20000000/4000.0)));
  5744  1E0C  3082               	movlw	130
  5745  1E0D  1683               	bsf	3,5	;RP0=1, select bank1
  5746  1E0E  1303               	bcf	3,6	;RP1=0, select bank1
  5747  1E0F  00D0               	movwf	(??_nn_inv^(0+128)+1)
  5748  1E10  30DD               	movlw	221
  5749  1E11  00CF               	movwf	??_nn_inv^(0+128)
  5750  1E12                     u6597:
  5751  1E12  0BCF               	decfsz	??_nn_inv^(0+128),f
  5752  1E13  2E12               	goto	u6597
  5753  1E14  0BD0               	decfsz	(??_nn_inv^(0+128)+1),f
  5754  1E15  2E12               	goto	u6597
  5755  1E16                     l3886:
  5756                           
  5757                           ;Mach_encoder_4NN_LCD_PID_Pic16F887_MPlab.c: 112:       if((PORTAbits.RA1)==0)
  5758  1E16  1283               	bcf	3,5	;RP0=0, select bank0
  5759  1E17  1303               	bcf	3,6	;RP1=0, select bank0
  5760  1E18  1885               	btfsc	5,1	;volatile
  5761  1E19  2E1B               	goto	u6401
  5762  1E1A  2E1C               	goto	u6400
  5763  1E1B                     u6401:
  5764  1E1B  2E7D               	goto	l218
  5765  1E1C                     u6400:
  5766  1E1C                     l3888:
  5767                           
  5768                           ;Mach_encoder_4NN_LCD_PID_Pic16F887_MPlab.c: 113:       {;Mach_encoder_4NN_LCD_PID_Pic16
      +                          F887_MPlab.c: 114:          tt_inv++;
  5769  1E1C  3001               	movlw	1
  5770  1E1D  1683               	bsf	3,5	;RP0=1, select bank1
  5771  1E1E  1303               	bcf	3,6	;RP1=0, select bank1
  5772  1E1F  07D8               	addwf	_tt_inv^(0+128),f
  5773  1E20  1803               	skipnc
  5774  1E21  0AD9               	incf	(_tt_inv+1)^(0+128),f
  5775  1E22  3000               	movlw	0
  5776  1E23  07D9               	addwf	(_tt_inv+1)^(0+128),f
  5777  1E24                     l3890:
  5778                           
  5779                           ;Mach_encoder_4NN_LCD_PID_Pic16F887_MPlab.c: 115:          if(tt_inv>1) tt_inv=0;
  5780  1E24  0859               	movf	(_tt_inv+1)^(0+128),w
  5781  1E25  3A80               	xorlw	128
  5782  1E26  00FF               	movwf	btemp+1
  5783  1E27  3080               	movlw	128
  5784  1E28  027F               	subwf	btemp+1,w
  5785  1E29  1D03               	skipz
  5786  1E2A  2E2D               	goto	u6415
  5787  1E2B  3002               	movlw	2
  5788  1E2C  0258               	subwf	_tt_inv^(0+128),w
  5789  1E2D                     u6415:
  5790  1E2D  1C03               	skipc
  5791  1E2E  2E30               	goto	u6411
  5792  1E2F  2E31               	goto	u6410
  5793  1E30                     u6411:
  5794  1E30  2E35               	goto	l3894
  5795  1E31                     u6410:
  5796  1E31                     l3892:
  5797  1E31  1683               	bsf	3,5	;RP0=1, select bank1
  5798  1E32  1303               	bcf	3,6	;RP1=0, select bank1
  5799  1E33  01D8               	clrf	_tt_inv^(0+128)
  5800  1E34  01D9               	clrf	(_tt_inv+1)^(0+128)
  5801  1E35                     l3894:
  5802                           
  5803                           ;Mach_encoder_4NN_LCD_PID_Pic16F887_MPlab.c: 116:          if(tt_inv==1)
  5804  1E35  1683               	bsf	3,5	;RP0=1, select bank1
  5805  1E36  1303               	bcf	3,6	;RP1=0, select bank1
  5806  1E37  0358               	decf	_tt_inv^(0+128),w
  5807  1E38  0459               	iorwf	(_tt_inv+1)^(0+128),w
  5808  1E39  1D03               	btfss	3,2
  5809  1E3A  2E3C               	goto	u6421
  5810  1E3B  2E3D               	goto	u6420
  5811  1E3C                     u6421:
  5812  1E3C  2E56               	goto	l3904
  5813  1E3D                     u6420:
  5814  1E3D                     l3896:
  5815                           
  5816                           ;Mach_encoder_4NN_LCD_PID_Pic16F887_MPlab.c: 117:             {;Mach_encoder_4NN_LCD_PID
      +                          _Pic16F887_MPlab.c: 118:                PWM2_Stop();
  5817  1E3D  160A  118A  2001  160A  158A  	fcall	_PWM2_Stop
  5818  1E42                     l3898:
  5819                           
  5820                           ;Mach_encoder_4NN_LCD_PID_Pic16F887_MPlab.c: 119:                PORTCbits.RC1=0;
  5821  1E42  1283               	bcf	3,5	;RP0=0, select bank0
  5822  1E43  1303               	bcf	3,6	;RP1=0, select bank0
  5823  1E44  1087               	bcf	7,1	;volatile
  5824  1E45                     l3900:
  5825                           
  5826                           ;Mach_encoder_4NN_LCD_PID_Pic16F887_MPlab.c: 120:                PWM1_Duty(pwmduty);
  5827  1E45  1683               	bsf	3,5	;RP0=1, select bank1
  5828  1E46  1303               	bcf	3,6	;RP1=0, select bank1
  5829  1E47  0855               	movf	(_pwmduty+1)^(0+128),w
  5830  1E48  00CC               	movwf	(PWM1_Duty@duty+1)^(0+128)
  5831  1E49  0854               	movf	_pwmduty^(0+128),w
  5832  1E4A  00CB               	movwf	PWM1_Duty@duty^(0+128)
  5833  1E4B  120A  158A  2077  160A  158A  	fcall	_PWM1_Duty
  5834  1E50                     l3902:
  5835                           
  5836                           ;Mach_encoder_4NN_LCD_PID_Pic16F887_MPlab.c: 121:                PWM1_Start();
  5837  1E50  160A  158A  2370  160A  158A  	fcall	_PWM1_Start
  5838                           
  5839                           ;Mach_encoder_4NN_LCD_PID_Pic16F887_MPlab.c: 122:             }
  5840  1E55  2E77               	goto	l215
  5841  1E56                     l3904:
  5842                           
  5843                           ;Mach_encoder_4NN_LCD_PID_Pic16F887_MPlab.c: 124:             {;Mach_encoder_4NN_LCD_PID
      +                          _Pic16F887_MPlab.c: 125:                PWM2_Duty(pwmduty);
  5844  1E56  0855               	movf	(_pwmduty+1)^(0+128),w
  5845  1E57  00CC               	movwf	(PWM2_Duty@duty+1)^(0+128)
  5846  1E58  0854               	movf	_pwmduty^(0+128),w
  5847  1E59  00CB               	movwf	PWM2_Duty@duty^(0+128)
  5848  1E5A  120A  118A  2736  160A  158A  	fcall	_PWM2_Duty
  5849  1E5F                     l3906:
  5850                           
  5851                           ;Mach_encoder_4NN_LCD_PID_Pic16F887_MPlab.c: 126:                PWM1_Stop();
  5852  1E5F  160A  158A  236B  160A  158A  	fcall	_PWM1_Stop
  5853  1E64                     l3908:
  5854                           
  5855                           ;Mach_encoder_4NN_LCD_PID_Pic16F887_MPlab.c: 127:                PORTCbits.RC2=0;
  5856  1E64  1283               	bcf	3,5	;RP0=0, select bank0
  5857  1E65  1303               	bcf	3,6	;RP1=0, select bank0
  5858  1E66  1107               	bcf	7,2	;volatile
  5859  1E67                     l3910:
  5860                           
  5861                           ;Mach_encoder_4NN_LCD_PID_Pic16F887_MPlab.c: 128:                PWM2_Duty(pwmduty);
  5862  1E67  1683               	bsf	3,5	;RP0=1, select bank1
  5863  1E68  1303               	bcf	3,6	;RP1=0, select bank1
  5864  1E69  0855               	movf	(_pwmduty+1)^(0+128),w
  5865  1E6A  00CC               	movwf	(PWM2_Duty@duty+1)^(0+128)
  5866  1E6B  0854               	movf	_pwmduty^(0+128),w
  5867  1E6C  00CB               	movwf	PWM2_Duty@duty^(0+128)
  5868  1E6D  120A  118A  2736  160A  158A  	fcall	_PWM2_Duty
  5869                           
  5870                           ;Mach_encoder_4NN_LCD_PID_Pic16F887_MPlab.c: 129:                PWM2_Start();
  5871  1E72  160A  158A  237B  160A  158A  	fcall	_PWM2_Start
  5872  1E77                     l215:
  5873  1E77  1283               	bcf	3,5	;RP0=0, select bank0
  5874  1E78  1303               	bcf	3,6	;RP1=0, select bank0
  5875  1E79  1C85               	btfss	5,1	;volatile
  5876  1E7A  2E7C               	goto	u6431
  5877  1E7B  2E7D               	goto	u6430
  5878  1E7C                     u6431:
  5879  1E7C  2E77               	goto	l215
  5880  1E7D                     u6430:
  5881  1E7D                     l218:
  5882  1E7D  0008               	return
  5883  1E7E                     __end_of_nn_inv:
  5884                           
  5885                           	psect	text9
  5886  1001                     __ptext9:	
  5887 ;; *************** function _PWM2_Stop *****************
  5888 ;; Defined at:
  5889 ;;		line 76 in file "./pwm.h"
  5890 ;; Parameters:    Size  Location     Type
  5891 ;;		None
  5892 ;; Auto vars:     Size  Location     Type
  5893 ;;		None
  5894 ;; Return value:  Size  Location     Type
  5895 ;;                  2  135[None  ] int 
  5896 ;; Registers used:
  5897 ;;		None
  5898 ;; Tracked objects:
  5899 ;;		On entry : 0/0
  5900 ;;		On exit  : 0/0
  5901 ;;		Unchanged: 0/0
  5902 ;; Data sizes:     COMMON   BANK0   BANK1   BANK3   BANK2
  5903 ;;      Params:         0       0       0       0       0
  5904 ;;      Locals:         0       0       0       0       0
  5905 ;;      Temps:          0       0       0       0       0
  5906 ;;      Totals:         0       0       0       0       0
  5907 ;;Total ram usage:        0 bytes
  5908 ;; Hardware stack levels used:    1
  5909 ;; Hardware stack levels required when called:    1
  5910 ;; This function calls:
  5911 ;;		Nothing
  5912 ;; This function is called by:
  5913 ;;		_nn_ss
  5914 ;;		_nn_inv
  5915 ;;		_main
  5916 ;; This function uses a non-reentrant model
  5917 ;;
  5918                           
  5919                           
  5920                           ;psect for function _PWM2_Stop
  5921  1001                     _PWM2_Stop:
  5922  1001                     l2656:	
  5923                           ;incstack = 0
  5924                           ; Regs used in _PWM2_Stop: []
  5925                           
  5926                           
  5927                           ;./pwm.h: 78:   CCP2M3 = 0;
  5928  1001  1283               	bcf	3,5	;RP0=0, select bank0
  5929  1002  1303               	bcf	3,6	;RP1=0, select bank0
  5930  1003  119D               	bcf	29,3	;volatile
  5931                           
  5932                           ;./pwm.h: 79:   CCP2M2 = 0;
  5933  1004  111D               	bcf	29,2	;volatile
  5934  1005                     l136:
  5935  1005  0008               	return
  5936  1006                     __end_of_PWM2_Stop:
  5937                           
  5938                           	psect	text10
  5939  1B7B                     __ptext10:	
  5940 ;; *************** function _PWM2_Start *****************
  5941 ;; Defined at:
  5942 ;;		line 59 in file "./pwm.h"
  5943 ;; Parameters:    Size  Location     Type
  5944 ;;		None
  5945 ;; Auto vars:     Size  Location     Type
  5946 ;;		None
  5947 ;; Return value:  Size  Location     Type
  5948 ;;                  2  132[None  ] int 
  5949 ;; Registers used:
  5950 ;;		None
  5951 ;; Tracked objects:
  5952 ;;		On entry : 0/0
  5953 ;;		On exit  : 0/0
  5954 ;;		Unchanged: 0/0
  5955 ;; Data sizes:     COMMON   BANK0   BANK1   BANK3   BANK2
  5956 ;;      Params:         0       0       0       0       0
  5957 ;;      Locals:         0       0       0       0       0
  5958 ;;      Temps:          0       0       0       0       0
  5959 ;;      Totals:         0       0       0       0       0
  5960 ;;Total ram usage:        0 bytes
  5961 ;; Hardware stack levels used:    1
  5962 ;; Hardware stack levels required when called:    1
  5963 ;; This function calls:
  5964 ;;		Nothing
  5965 ;; This function is called by:
  5966 ;;		_nn_ss
  5967 ;;		_nn_inv
  5968 ;;		_main
  5969 ;; This function uses a non-reentrant model
  5970 ;;
  5971                           
  5972                           
  5973                           ;psect for function _PWM2_Start
  5974  1B7B                     _PWM2_Start:
  5975  1B7B                     l2654:	
  5976                           ;incstack = 0
  5977                           ; Regs used in _PWM2_Start: []
  5978                           
  5979                           
  5980                           ;./pwm.h: 61:   CCP2M3 = 1;
  5981  1B7B  1283               	bcf	3,5	;RP0=0, select bank0
  5982  1B7C  1303               	bcf	3,6	;RP1=0, select bank0
  5983  1B7D  159D               	bsf	29,3	;volatile
  5984                           
  5985                           ;./pwm.h: 62:   CCP2M2 = 1;
  5986  1B7E  151D               	bsf	29,2	;volatile
  5987                           
  5988                           ;./pwm.h: 70:     T2CKPS0 = 1;
  5989  1B7F  1412               	bsf	18,0	;volatile
  5990                           
  5991                           ;./pwm.h: 71:     T2CKPS1 = 1;
  5992  1B80  1492               	bsf	18,1	;volatile
  5993                           
  5994                           ;./pwm.h: 73:     TMR2ON = 1;
  5995  1B81  1512               	bsf	18,2	;volatile
  5996                           
  5997                           ;./pwm.h: 74:     TRISC1 = 0;
  5998  1B82  1683               	bsf	3,5	;RP0=1, select bank1
  5999  1B83  1303               	bcf	3,6	;RP1=0, select bank1
  6000  1B84  1087               	bcf	7,1	;volatile
  6001  1B85                     l133:
  6002  1B85  0008               	return
  6003  1B86                     __end_of_PWM2_Start:
  6004                           
  6005                           	psect	text11
  6006  0736                     __ptext11:	
  6007 ;; *************** function _PWM2_Duty *****************
  6008 ;; Defined at:
  6009 ;;		line 27 in file "./pwm.h"
  6010 ;; Parameters:    Size  Location     Type
  6011 ;;  duty            2   43[BANK1 ] unsigned int 
  6012 ;; Auto vars:     Size  Location     Type
  6013 ;;		None
  6014 ;; Return value:  Size  Location     Type
  6015 ;;                  2   43[BANK1 ] int 
  6016 ;; Registers used:
  6017 ;;		wreg, status,2, status,0, btemp+1, pclath, cstack
  6018 ;; Tracked objects:
  6019 ;;		On entry : 0/0
  6020 ;;		On exit  : 0/0
  6021 ;;		Unchanged: 0/0
  6022 ;; Data sizes:     COMMON   BANK0   BANK1   BANK3   BANK2
  6023 ;;      Params:         0       0       2       0       0
  6024 ;;      Locals:         0       0       0       0       0
  6025 ;;      Temps:          0       0       2       0       0
  6026 ;;      Totals:         0       0       4       0       0
  6027 ;;Total ram usage:        4 bytes
  6028 ;; Hardware stack levels used:    1
  6029 ;; Hardware stack levels required when called:    3
  6030 ;; This function calls:
  6031 ;;		_PWM_Max_Duty
  6032 ;;		___fldiv
  6033 ;;		___flmul
  6034 ;;		___fltol
  6035 ;;		___xxtofl
  6036 ;; This function is called by:
  6037 ;;		_nn_ss
  6038 ;;		_nn_inv
  6039 ;;		_tinh_pid
  6040 ;;		_main
  6041 ;; This function uses a non-reentrant model
  6042 ;;
  6043                           
  6044                           
  6045                           ;psect for function _PWM2_Duty
  6046  0736                     _PWM2_Duty:
  6047  0736                     l3750:	
  6048                           ;incstack = 0
  6049                           ; Regs used in _PWM2_Duty: [wreg+status,2+status,0+btemp+1+pclath+cstack]
  6050                           
  6051                           
  6052                           ;./pwm.h: 27: PWM2_Duty(unsigned int duty);./pwm.h: 28: {;./pwm.h: 29:   if(duty<1024)
  6053  0736  3004               	movlw	4
  6054  0737  1683               	bsf	3,5	;RP0=1, select bank1
  6055  0738  1303               	bcf	3,6	;RP1=0, select bank1
  6056  0739  024C               	subwf	(PWM2_Duty@duty+1)^(0+128),w
  6057  073A  3000               	movlw	0
  6058  073B  1903               	skipnz
  6059  073C  024B               	subwf	PWM2_Duty@duty^(0+128),w
  6060  073D  1803               	skipnc
  6061  073E  2F40               	goto	u6111
  6062  073F  2F41               	goto	u6110
  6063  0740                     u6111:
  6064  0740  2FF7               	goto	l124
  6065  0741                     u6110:
  6066  0741                     l3752:
  6067                           
  6068                           ;./pwm.h: 30:   {;./pwm.h: 31:     duty = ((float)duty/1023)*PWM_Max_Duty();
  6069  0741  084B               	movf	PWM2_Duty@duty^(0+128),w
  6070  0742  1283               	bcf	3,5	;RP0=0, select bank0
  6071  0743  1303               	bcf	3,6	;RP1=0, select bank0
  6072  0744  00BA               	movwf	___xxtofl@val
  6073  0745  1683               	bsf	3,5	;RP0=1, select bank1
  6074  0746  1303               	bcf	3,6	;RP1=0, select bank1
  6075  0747  084C               	movf	(PWM2_Duty@duty+1)^(0+128),w
  6076  0748  1283               	bcf	3,5	;RP0=0, select bank0
  6077  0749  1303               	bcf	3,6	;RP1=0, select bank0
  6078  074A  00BB               	movwf	___xxtofl@val+1
  6079  074B  01BC               	clrf	___xxtofl@val+2
  6080  074C  01BD               	clrf	___xxtofl@val+3
  6081  074D  3000               	movlw	0
  6082  074E  160A  118A  222A  120A  118A  	fcall	___xxtofl
  6083  0753  1283               	bcf	3,5	;RP0=0, select bank0
  6084  0754  1303               	bcf	3,6	;RP1=0, select bank0
  6085  0755  083D               	movf	?___xxtofl+3,w
  6086  0756  1683               	bsf	3,5	;RP0=1, select bank1
  6087  0757  1303               	bcf	3,6	;RP1=0, select bank1
  6088  0758  00AF               	movwf	(___fldiv@b+3)^(0+128)
  6089  0759  1283               	bcf	3,5	;RP0=0, select bank0
  6090  075A  1303               	bcf	3,6	;RP1=0, select bank0
  6091  075B  083C               	movf	?___xxtofl+2,w
  6092  075C  1683               	bsf	3,5	;RP0=1, select bank1
  6093  075D  1303               	bcf	3,6	;RP1=0, select bank1
  6094  075E  00AE               	movwf	(___fldiv@b+2)^(0+128)
  6095  075F  1283               	bcf	3,5	;RP0=0, select bank0
  6096  0760  1303               	bcf	3,6	;RP1=0, select bank0
  6097  0761  083B               	movf	?___xxtofl+1,w
  6098  0762  1683               	bsf	3,5	;RP0=1, select bank1
  6099  0763  1303               	bcf	3,6	;RP1=0, select bank1
  6100  0764  00AD               	movwf	(___fldiv@b+1)^(0+128)
  6101  0765  1283               	bcf	3,5	;RP0=0, select bank0
  6102  0766  1303               	bcf	3,6	;RP1=0, select bank0
  6103  0767  083A               	movf	?___xxtofl,w
  6104  0768  1683               	bsf	3,5	;RP0=1, select bank1
  6105  0769  1303               	bcf	3,6	;RP1=0, select bank1
  6106  076A  00AC               	movwf	___fldiv@b^(0+128)
  6107  076B  3044               	movlw	68
  6108  076C  00AB               	movwf	(___fldiv@a+3)^(0+128)
  6109  076D  307F               	movlw	127
  6110  076E  00AA               	movwf	(___fldiv@a+2)^(0+128)
  6111  076F  30C0               	movlw	192
  6112  0770  00A9               	movwf	(___fldiv@a+1)^(0+128)
  6113  0771  3000               	movlw	0
  6114  0772  00A8               	movwf	___fldiv@a^(0+128)
  6115  0773  160A  118A  22E6  120A  118A  	fcall	___fldiv
  6116  0778  1683               	bsf	3,5	;RP0=1, select bank1
  6117  0779  1303               	bcf	3,6	;RP1=0, select bank1
  6118  077A  082B               	movf	(?___fldiv+3)^(0+128),w
  6119  077B  1283               	bcf	3,5	;RP0=0, select bank0
  6120  077C  1303               	bcf	3,6	;RP1=0, select bank0
  6121  077D  00CF               	movwf	___flmul@a+3
  6122  077E  1683               	bsf	3,5	;RP0=1, select bank1
  6123  077F  1303               	bcf	3,6	;RP1=0, select bank1
  6124  0780  082A               	movf	(?___fldiv+2)^(0+128),w
  6125  0781  1283               	bcf	3,5	;RP0=0, select bank0
  6126  0782  1303               	bcf	3,6	;RP1=0, select bank0
  6127  0783  00CE               	movwf	___flmul@a+2
  6128  0784  1683               	bsf	3,5	;RP0=1, select bank1
  6129  0785  1303               	bcf	3,6	;RP1=0, select bank1
  6130  0786  0829               	movf	(?___fldiv+1)^(0+128),w
  6131  0787  1283               	bcf	3,5	;RP0=0, select bank0
  6132  0788  1303               	bcf	3,6	;RP1=0, select bank0
  6133  0789  00CD               	movwf	___flmul@a+1
  6134  078A  1683               	bsf	3,5	;RP0=1, select bank1
  6135  078B  1303               	bcf	3,6	;RP1=0, select bank1
  6136  078C  0828               	movf	?___fldiv^(0+128),w
  6137  078D  1283               	bcf	3,5	;RP0=0, select bank0
  6138  078E  1303               	bcf	3,6	;RP1=0, select bank0
  6139  078F  00CC               	movwf	___flmul@a
  6140  0790  160A  158A  242F  120A  118A  	fcall	_PWM_Max_Duty
  6141  0795  1283               	bcf	3,5	;RP0=0, select bank0
  6142  0796  1303               	bcf	3,6	;RP1=0, select bank0
  6143  0797  0834               	movf	?_PWM_Max_Duty,w
  6144  0798  00BA               	movwf	___xxtofl@val
  6145  0799  0835               	movf	?_PWM_Max_Duty+1,w
  6146  079A  00BB               	movwf	___xxtofl@val+1
  6147  079B  3000               	movlw	0
  6148  079C  1BBB               	btfsc	___xxtofl@val+1,7
  6149  079D  30FF               	movlw	255
  6150  079E  00BC               	movwf	___xxtofl@val+2
  6151  079F  00BD               	movwf	___xxtofl@val+3
  6152  07A0  3001               	movlw	1
  6153  07A1  160A  118A  222A  120A  118A  	fcall	___xxtofl
  6154  07A6  1283               	bcf	3,5	;RP0=0, select bank0
  6155  07A7  1303               	bcf	3,6	;RP1=0, select bank0
  6156  07A8  083D               	movf	?___xxtofl+3,w
  6157  07A9  00CB               	movwf	___flmul@b+3
  6158  07AA  083C               	movf	?___xxtofl+2,w
  6159  07AB  00CA               	movwf	___flmul@b+2
  6160  07AC  083B               	movf	?___xxtofl+1,w
  6161  07AD  00C9               	movwf	___flmul@b+1
  6162  07AE  083A               	movf	?___xxtofl,w
  6163  07AF  00C8               	movwf	___flmul@b
  6164  07B0  120A  158A  2139  120A  118A  	fcall	___flmul
  6165  07B5  1283               	bcf	3,5	;RP0=0, select bank0
  6166  07B6  1303               	bcf	3,6	;RP1=0, select bank0
  6167  07B7  084B               	movf	?___flmul+3,w
  6168  07B8  1683               	bsf	3,5	;RP0=1, select bank1
  6169  07B9  1303               	bcf	3,6	;RP1=0, select bank1
  6170  07BA  00C5               	movwf	(___fltol@f1+3)^(0+128)
  6171  07BB  1283               	bcf	3,5	;RP0=0, select bank0
  6172  07BC  1303               	bcf	3,6	;RP1=0, select bank0
  6173  07BD  084A               	movf	?___flmul+2,w
  6174  07BE  1683               	bsf	3,5	;RP0=1, select bank1
  6175  07BF  1303               	bcf	3,6	;RP1=0, select bank1
  6176  07C0  00C4               	movwf	(___fltol@f1+2)^(0+128)
  6177  07C1  1283               	bcf	3,5	;RP0=0, select bank0
  6178  07C2  1303               	bcf	3,6	;RP1=0, select bank0
  6179  07C3  0849               	movf	?___flmul+1,w
  6180  07C4  1683               	bsf	3,5	;RP0=1, select bank1
  6181  07C5  1303               	bcf	3,6	;RP1=0, select bank1
  6182  07C6  00C3               	movwf	(___fltol@f1+1)^(0+128)
  6183  07C7  1283               	bcf	3,5	;RP0=0, select bank0
  6184  07C8  1303               	bcf	3,6	;RP1=0, select bank0
  6185  07C9  0848               	movf	?___flmul,w
  6186  07CA  1683               	bsf	3,5	;RP0=1, select bank1
  6187  07CB  1303               	bcf	3,6	;RP1=0, select bank1
  6188  07CC  00C2               	movwf	___fltol@f1^(0+128)
  6189  07CD  160A  118A  2057  120A  118A  	fcall	___fltol
  6190  07D2  1683               	bsf	3,5	;RP0=1, select bank1
  6191  07D3  1303               	bcf	3,6	;RP1=0, select bank1
  6192  07D4  0843               	movf	(?___fltol+1)^(0+128),w
  6193  07D5  00CC               	movwf	(PWM2_Duty@duty+1)^(0+128)
  6194  07D6  0842               	movf	?___fltol^(0+128),w
  6195  07D7  00CB               	movwf	PWM2_Duty@duty^(0+128)
  6196  07D8                     l3754:
  6197                           
  6198                           ;./pwm.h: 32:     CCP2X = duty & 2;
  6199  07D8  1283               	bcf	3,5	;RP0=0, select bank0
  6200  07D9  1303               	bcf	3,6	;RP1=0, select bank0
  6201  07DA  129D               	bcf	29,5	;volatile
  6202  07DB                     l3756:
  6203                           
  6204                           ;./pwm.h: 33:     CCP2Y = duty & 1;
  6205  07DB  1683               	bsf	3,5	;RP0=1, select bank1
  6206  07DC  1303               	bcf	3,6	;RP1=0, select bank1
  6207  07DD  184B               	btfsc	PWM2_Duty@duty^(0+128),0
  6208  07DE  2FE0               	goto	u6121
  6209  07DF  2FE4               	goto	u6120
  6210  07E0                     u6121:
  6211  07E0  1283               	bcf	3,5	;RP0=0, select bank0
  6212  07E1  1303               	bcf	3,6	;RP1=0, select bank0
  6213  07E2  161D               	bsf	29,4	;volatile
  6214  07E3  2FE7               	goto	u6134
  6215  07E4                     u6120:
  6216  07E4  1283               	bcf	3,5	;RP0=0, select bank0
  6217  07E5  1303               	bcf	3,6	;RP1=0, select bank0
  6218  07E6  121D               	bcf	29,4	;volatile
  6219  07E7                     u6134:
  6220  07E7                     l3758:
  6221                           
  6222                           ;./pwm.h: 34:     CCPR2L = duty>>2;
  6223  07E7  1683               	bsf	3,5	;RP0=1, select bank1
  6224  07E8  1303               	bcf	3,6	;RP1=0, select bank1
  6225  07E9  084C               	movf	(PWM2_Duty@duty+1)^(0+128),w
  6226  07EA  00CE               	movwf	(??_PWM2_Duty^(0+128)+1)
  6227  07EB  084B               	movf	PWM2_Duty@duty^(0+128),w
  6228  07EC  00CD               	movwf	??_PWM2_Duty^(0+128)
  6229  07ED  1003               	clrc
  6230  07EE  0CCE               	rrf	(??_PWM2_Duty^(0+128)+1),f
  6231  07EF  0CCD               	rrf	??_PWM2_Duty^(0+128),f
  6232  07F0  1003               	clrc
  6233  07F1  0CCE               	rrf	(??_PWM2_Duty^(0+128)+1),f
  6234  07F2  0CCD               	rrf	??_PWM2_Duty^(0+128),f
  6235  07F3  084D               	movf	??_PWM2_Duty^(0+128),w
  6236  07F4  1283               	bcf	3,5	;RP0=0, select bank0
  6237  07F5  1303               	bcf	3,6	;RP1=0, select bank0
  6238  07F6  009B               	movwf	27	;volatile
  6239  07F7                     l124:
  6240  07F7  0008               	return
  6241  07F8                     __end_of_PWM2_Duty:
  6242                           
  6243                           	psect	text12
  6244  1B6B                     __ptext12:	
  6245 ;; *************** function _PWM1_Stop *****************
  6246 ;; Defined at:
  6247 ;;		line 54 in file "./pwm.h"
  6248 ;; Parameters:    Size  Location     Type
  6249 ;;		None
  6250 ;; Auto vars:     Size  Location     Type
  6251 ;;		None
  6252 ;; Return value:  Size  Location     Type
  6253 ;;                  2  129[None  ] int 
  6254 ;; Registers used:
  6255 ;;		None
  6256 ;; Tracked objects:
  6257 ;;		On entry : 0/0
  6258 ;;		On exit  : 0/0
  6259 ;;		Unchanged: 0/0
  6260 ;; Data sizes:     COMMON   BANK0   BANK1   BANK3   BANK2
  6261 ;;      Params:         0       0       0       0       0
  6262 ;;      Locals:         0       0       0       0       0
  6263 ;;      Temps:          0       0       0       0       0
  6264 ;;      Totals:         0       0       0       0       0
  6265 ;;Total ram usage:        0 bytes
  6266 ;; Hardware stack levels used:    1
  6267 ;; Hardware stack levels required when called:    1
  6268 ;; This function calls:
  6269 ;;		Nothing
  6270 ;; This function is called by:
  6271 ;;		_nn_ss
  6272 ;;		_nn_inv
  6273 ;;		_main
  6274 ;; This function uses a non-reentrant model
  6275 ;;
  6276                           
  6277                           
  6278                           ;psect for function _PWM1_Stop
  6279  1B6B                     _PWM1_Stop:
  6280  1B6B                     l2652:	
  6281                           ;incstack = 0
  6282                           ; Regs used in _PWM1_Stop: []
  6283                           
  6284                           
  6285                           ;./pwm.h: 56:   CCP1M3 = 0;
  6286  1B6B  1283               	bcf	3,5	;RP0=0, select bank0
  6287  1B6C  1303               	bcf	3,6	;RP1=0, select bank0
  6288  1B6D  1197               	bcf	23,3	;volatile
  6289                           
  6290                           ;./pwm.h: 57:   CCP1M2 = 0;
  6291  1B6E  1117               	bcf	23,2	;volatile
  6292  1B6F                     l130:
  6293  1B6F  0008               	return
  6294  1B70                     __end_of_PWM1_Stop:
  6295                           
  6296                           	psect	text13
  6297  1B70                     __ptext13:	
  6298 ;; *************** function _PWM1_Start *****************
  6299 ;; Defined at:
  6300 ;;		line 37 in file "./pwm.h"
  6301 ;; Parameters:    Size  Location     Type
  6302 ;;		None
  6303 ;; Auto vars:     Size  Location     Type
  6304 ;;		None
  6305 ;; Return value:  Size  Location     Type
  6306 ;;                  2  126[None  ] int 
  6307 ;; Registers used:
  6308 ;;		None
  6309 ;; Tracked objects:
  6310 ;;		On entry : 0/0
  6311 ;;		On exit  : 0/0
  6312 ;;		Unchanged: 0/0
  6313 ;; Data sizes:     COMMON   BANK0   BANK1   BANK3   BANK2
  6314 ;;      Params:         0       0       0       0       0
  6315 ;;      Locals:         0       0       0       0       0
  6316 ;;      Temps:          0       0       0       0       0
  6317 ;;      Totals:         0       0       0       0       0
  6318 ;;Total ram usage:        0 bytes
  6319 ;; Hardware stack levels used:    1
  6320 ;; Hardware stack levels required when called:    1
  6321 ;; This function calls:
  6322 ;;		Nothing
  6323 ;; This function is called by:
  6324 ;;		_nn_ss
  6325 ;;		_nn_inv
  6326 ;;		_main
  6327 ;; This function uses a non-reentrant model
  6328 ;;
  6329                           
  6330                           
  6331                           ;psect for function _PWM1_Start
  6332  1B70                     _PWM1_Start:
  6333  1B70                     l2650:	
  6334                           ;incstack = 0
  6335                           ; Regs used in _PWM1_Start: []
  6336                           
  6337                           
  6338                           ;./pwm.h: 39:   CCP1M3 = 1;
  6339  1B70  1283               	bcf	3,5	;RP0=0, select bank0
  6340  1B71  1303               	bcf	3,6	;RP1=0, select bank0
  6341  1B72  1597               	bsf	23,3	;volatile
  6342                           
  6343                           ;./pwm.h: 40:   CCP1M2 = 1;
  6344  1B73  1517               	bsf	23,2	;volatile
  6345                           
  6346                           ;./pwm.h: 48:     T2CKPS0 = 1;
  6347  1B74  1412               	bsf	18,0	;volatile
  6348                           
  6349                           ;./pwm.h: 49:     T2CKPS1 = 1;
  6350  1B75  1492               	bsf	18,1	;volatile
  6351                           
  6352                           ;./pwm.h: 51:   TMR2ON = 1;
  6353  1B76  1512               	bsf	18,2	;volatile
  6354                           
  6355                           ;./pwm.h: 52:   TRISC2 = 0;
  6356  1B77  1683               	bsf	3,5	;RP0=1, select bank1
  6357  1B78  1303               	bcf	3,6	;RP1=0, select bank1
  6358  1B79  1107               	bcf	7,2	;volatile
  6359  1B7A                     l127:
  6360  1B7A  0008               	return
  6361  1B7B                     __end_of_PWM1_Start:
  6362                           
  6363                           	psect	text14
  6364  0877                     __ptext14:	
  6365 ;; *************** function _PWM1_Duty *****************
  6366 ;; Defined at:
  6367 ;;		line 17 in file "./pwm.h"
  6368 ;; Parameters:    Size  Location     Type
  6369 ;;  duty            2   43[BANK1 ] unsigned int 
  6370 ;; Auto vars:     Size  Location     Type
  6371 ;;		None
  6372 ;; Return value:  Size  Location     Type
  6373 ;;                  2   43[BANK1 ] int 
  6374 ;; Registers used:
  6375 ;;		wreg, status,2, status,0, btemp+1, pclath, cstack
  6376 ;; Tracked objects:
  6377 ;;		On entry : 0/0
  6378 ;;		On exit  : 0/0
  6379 ;;		Unchanged: 0/0
  6380 ;; Data sizes:     COMMON   BANK0   BANK1   BANK3   BANK2
  6381 ;;      Params:         0       0       2       0       0
  6382 ;;      Locals:         0       0       0       0       0
  6383 ;;      Temps:          0       0       2       0       0
  6384 ;;      Totals:         0       0       4       0       0
  6385 ;;Total ram usage:        4 bytes
  6386 ;; Hardware stack levels used:    1
  6387 ;; Hardware stack levels required when called:    3
  6388 ;; This function calls:
  6389 ;;		_PWM_Max_Duty
  6390 ;;		___fldiv
  6391 ;;		___flmul
  6392 ;;		___fltol
  6393 ;;		___xxtofl
  6394 ;; This function is called by:
  6395 ;;		_nn_ss
  6396 ;;		_nn_inv
  6397 ;;		_tinh_pid
  6398 ;;		_main
  6399 ;; This function uses a non-reentrant model
  6400 ;;
  6401                           
  6402                           
  6403                           ;psect for function _PWM1_Duty
  6404  0877                     _PWM1_Duty:
  6405  0877                     l3740:	
  6406                           ;incstack = 0
  6407                           ; Regs used in _PWM1_Duty: [wreg+status,2+status,0+btemp+1+pclath+cstack]
  6408                           
  6409                           
  6410                           ;./pwm.h: 17: PWM1_Duty(unsigned int duty);./pwm.h: 18: {;./pwm.h: 19:   if(duty<1024)
  6411  0877  3004               	movlw	4
  6412  0878  1683               	bsf	3,5	;RP0=1, select bank1
  6413  0879  1303               	bcf	3,6	;RP1=0, select bank1
  6414  087A  024C               	subwf	(PWM1_Duty@duty+1)^(0+128),w
  6415  087B  3000               	movlw	0
  6416  087C  1903               	skipnz
  6417  087D  024B               	subwf	PWM1_Duty@duty^(0+128),w
  6418  087E  1803               	skipnc
  6419  087F  2881               	goto	u6081
  6420  0880  2882               	goto	u6080
  6421  0881                     u6081:
  6422  0881  2938               	goto	l120
  6423  0882                     u6080:
  6424  0882                     l3742:
  6425                           
  6426                           ;./pwm.h: 20:   {;./pwm.h: 21:     duty = ((float)duty/1023)*PWM_Max_Duty();
  6427  0882  084B               	movf	PWM1_Duty@duty^(0+128),w
  6428  0883  1283               	bcf	3,5	;RP0=0, select bank0
  6429  0884  1303               	bcf	3,6	;RP1=0, select bank0
  6430  0885  00BA               	movwf	___xxtofl@val
  6431  0886  1683               	bsf	3,5	;RP0=1, select bank1
  6432  0887  1303               	bcf	3,6	;RP1=0, select bank1
  6433  0888  084C               	movf	(PWM1_Duty@duty+1)^(0+128),w
  6434  0889  1283               	bcf	3,5	;RP0=0, select bank0
  6435  088A  1303               	bcf	3,6	;RP1=0, select bank0
  6436  088B  00BB               	movwf	___xxtofl@val+1
  6437  088C  01BC               	clrf	___xxtofl@val+2
  6438  088D  01BD               	clrf	___xxtofl@val+3
  6439  088E  3000               	movlw	0
  6440  088F  160A  118A  222A  120A  158A  	fcall	___xxtofl
  6441  0894  1283               	bcf	3,5	;RP0=0, select bank0
  6442  0895  1303               	bcf	3,6	;RP1=0, select bank0
  6443  0896  083D               	movf	?___xxtofl+3,w
  6444  0897  1683               	bsf	3,5	;RP0=1, select bank1
  6445  0898  1303               	bcf	3,6	;RP1=0, select bank1
  6446  0899  00AF               	movwf	(___fldiv@b+3)^(0+128)
  6447  089A  1283               	bcf	3,5	;RP0=0, select bank0
  6448  089B  1303               	bcf	3,6	;RP1=0, select bank0
  6449  089C  083C               	movf	?___xxtofl+2,w
  6450  089D  1683               	bsf	3,5	;RP0=1, select bank1
  6451  089E  1303               	bcf	3,6	;RP1=0, select bank1
  6452  089F  00AE               	movwf	(___fldiv@b+2)^(0+128)
  6453  08A0  1283               	bcf	3,5	;RP0=0, select bank0
  6454  08A1  1303               	bcf	3,6	;RP1=0, select bank0
  6455  08A2  083B               	movf	?___xxtofl+1,w
  6456  08A3  1683               	bsf	3,5	;RP0=1, select bank1
  6457  08A4  1303               	bcf	3,6	;RP1=0, select bank1
  6458  08A5  00AD               	movwf	(___fldiv@b+1)^(0+128)
  6459  08A6  1283               	bcf	3,5	;RP0=0, select bank0
  6460  08A7  1303               	bcf	3,6	;RP1=0, select bank0
  6461  08A8  083A               	movf	?___xxtofl,w
  6462  08A9  1683               	bsf	3,5	;RP0=1, select bank1
  6463  08AA  1303               	bcf	3,6	;RP1=0, select bank1
  6464  08AB  00AC               	movwf	___fldiv@b^(0+128)
  6465  08AC  3044               	movlw	68
  6466  08AD  00AB               	movwf	(___fldiv@a+3)^(0+128)
  6467  08AE  307F               	movlw	127
  6468  08AF  00AA               	movwf	(___fldiv@a+2)^(0+128)
  6469  08B0  30C0               	movlw	192
  6470  08B1  00A9               	movwf	(___fldiv@a+1)^(0+128)
  6471  08B2  3000               	movlw	0
  6472  08B3  00A8               	movwf	___fldiv@a^(0+128)
  6473  08B4  160A  118A  22E6  120A  158A  	fcall	___fldiv
  6474  08B9  1683               	bsf	3,5	;RP0=1, select bank1
  6475  08BA  1303               	bcf	3,6	;RP1=0, select bank1
  6476  08BB  082B               	movf	(?___fldiv+3)^(0+128),w
  6477  08BC  1283               	bcf	3,5	;RP0=0, select bank0
  6478  08BD  1303               	bcf	3,6	;RP1=0, select bank0
  6479  08BE  00CF               	movwf	___flmul@a+3
  6480  08BF  1683               	bsf	3,5	;RP0=1, select bank1
  6481  08C0  1303               	bcf	3,6	;RP1=0, select bank1
  6482  08C1  082A               	movf	(?___fldiv+2)^(0+128),w
  6483  08C2  1283               	bcf	3,5	;RP0=0, select bank0
  6484  08C3  1303               	bcf	3,6	;RP1=0, select bank0
  6485  08C4  00CE               	movwf	___flmul@a+2
  6486  08C5  1683               	bsf	3,5	;RP0=1, select bank1
  6487  08C6  1303               	bcf	3,6	;RP1=0, select bank1
  6488  08C7  0829               	movf	(?___fldiv+1)^(0+128),w
  6489  08C8  1283               	bcf	3,5	;RP0=0, select bank0
  6490  08C9  1303               	bcf	3,6	;RP1=0, select bank0
  6491  08CA  00CD               	movwf	___flmul@a+1
  6492  08CB  1683               	bsf	3,5	;RP0=1, select bank1
  6493  08CC  1303               	bcf	3,6	;RP1=0, select bank1
  6494  08CD  0828               	movf	?___fldiv^(0+128),w
  6495  08CE  1283               	bcf	3,5	;RP0=0, select bank0
  6496  08CF  1303               	bcf	3,6	;RP1=0, select bank0
  6497  08D0  00CC               	movwf	___flmul@a
  6498  08D1  160A  158A  242F  120A  158A  	fcall	_PWM_Max_Duty
  6499  08D6  1283               	bcf	3,5	;RP0=0, select bank0
  6500  08D7  1303               	bcf	3,6	;RP1=0, select bank0
  6501  08D8  0834               	movf	?_PWM_Max_Duty,w
  6502  08D9  00BA               	movwf	___xxtofl@val
  6503  08DA  0835               	movf	?_PWM_Max_Duty+1,w
  6504  08DB  00BB               	movwf	___xxtofl@val+1
  6505  08DC  3000               	movlw	0
  6506  08DD  1BBB               	btfsc	___xxtofl@val+1,7
  6507  08DE  30FF               	movlw	255
  6508  08DF  00BC               	movwf	___xxtofl@val+2
  6509  08E0  00BD               	movwf	___xxtofl@val+3
  6510  08E1  3001               	movlw	1
  6511  08E2  160A  118A  222A  120A  158A  	fcall	___xxtofl
  6512  08E7  1283               	bcf	3,5	;RP0=0, select bank0
  6513  08E8  1303               	bcf	3,6	;RP1=0, select bank0
  6514  08E9  083D               	movf	?___xxtofl+3,w
  6515  08EA  00CB               	movwf	___flmul@b+3
  6516  08EB  083C               	movf	?___xxtofl+2,w
  6517  08EC  00CA               	movwf	___flmul@b+2
  6518  08ED  083B               	movf	?___xxtofl+1,w
  6519  08EE  00C9               	movwf	___flmul@b+1
  6520  08EF  083A               	movf	?___xxtofl,w
  6521  08F0  00C8               	movwf	___flmul@b
  6522  08F1  120A  158A  2139  120A  158A  	fcall	___flmul
  6523  08F6  1283               	bcf	3,5	;RP0=0, select bank0
  6524  08F7  1303               	bcf	3,6	;RP1=0, select bank0
  6525  08F8  084B               	movf	?___flmul+3,w
  6526  08F9  1683               	bsf	3,5	;RP0=1, select bank1
  6527  08FA  1303               	bcf	3,6	;RP1=0, select bank1
  6528  08FB  00C5               	movwf	(___fltol@f1+3)^(0+128)
  6529  08FC  1283               	bcf	3,5	;RP0=0, select bank0
  6530  08FD  1303               	bcf	3,6	;RP1=0, select bank0
  6531  08FE  084A               	movf	?___flmul+2,w
  6532  08FF  1683               	bsf	3,5	;RP0=1, select bank1
  6533  0900  1303               	bcf	3,6	;RP1=0, select bank1
  6534  0901  00C4               	movwf	(___fltol@f1+2)^(0+128)
  6535  0902  1283               	bcf	3,5	;RP0=0, select bank0
  6536  0903  1303               	bcf	3,6	;RP1=0, select bank0
  6537  0904  0849               	movf	?___flmul+1,w
  6538  0905  1683               	bsf	3,5	;RP0=1, select bank1
  6539  0906  1303               	bcf	3,6	;RP1=0, select bank1
  6540  0907  00C3               	movwf	(___fltol@f1+1)^(0+128)
  6541  0908  1283               	bcf	3,5	;RP0=0, select bank0
  6542  0909  1303               	bcf	3,6	;RP1=0, select bank0
  6543  090A  0848               	movf	?___flmul,w
  6544  090B  1683               	bsf	3,5	;RP0=1, select bank1
  6545  090C  1303               	bcf	3,6	;RP1=0, select bank1
  6546  090D  00C2               	movwf	___fltol@f1^(0+128)
  6547  090E  160A  118A  2057  120A  158A  	fcall	___fltol
  6548  0913  1683               	bsf	3,5	;RP0=1, select bank1
  6549  0914  1303               	bcf	3,6	;RP1=0, select bank1
  6550  0915  0843               	movf	(?___fltol+1)^(0+128),w
  6551  0916  00CC               	movwf	(PWM1_Duty@duty+1)^(0+128)
  6552  0917  0842               	movf	?___fltol^(0+128),w
  6553  0918  00CB               	movwf	PWM1_Duty@duty^(0+128)
  6554  0919                     l3744:
  6555                           
  6556                           ;./pwm.h: 22:     CCP1X = duty & 2;
  6557  0919  1283               	bcf	3,5	;RP0=0, select bank0
  6558  091A  1303               	bcf	3,6	;RP1=0, select bank0
  6559  091B  1297               	bcf	23,5	;volatile
  6560  091C                     l3746:
  6561                           
  6562                           ;./pwm.h: 23:     CCP1Y = duty & 1;
  6563  091C  1683               	bsf	3,5	;RP0=1, select bank1
  6564  091D  1303               	bcf	3,6	;RP1=0, select bank1
  6565  091E  184B               	btfsc	PWM1_Duty@duty^(0+128),0
  6566  091F  2921               	goto	u6091
  6567  0920  2925               	goto	u6090
  6568  0921                     u6091:
  6569  0921  1283               	bcf	3,5	;RP0=0, select bank0
  6570  0922  1303               	bcf	3,6	;RP1=0, select bank0
  6571  0923  1617               	bsf	23,4	;volatile
  6572  0924  2928               	goto	u6104
  6573  0925                     u6090:
  6574  0925  1283               	bcf	3,5	;RP0=0, select bank0
  6575  0926  1303               	bcf	3,6	;RP1=0, select bank0
  6576  0927  1217               	bcf	23,4	;volatile
  6577  0928                     u6104:
  6578  0928                     l3748:
  6579                           
  6580                           ;./pwm.h: 24:     CCPR1L = duty>>2;
  6581  0928  1683               	bsf	3,5	;RP0=1, select bank1
  6582  0929  1303               	bcf	3,6	;RP1=0, select bank1
  6583  092A  084C               	movf	(PWM1_Duty@duty+1)^(0+128),w
  6584  092B  00CE               	movwf	(??_PWM1_Duty^(0+128)+1)
  6585  092C  084B               	movf	PWM1_Duty@duty^(0+128),w
  6586  092D  00CD               	movwf	??_PWM1_Duty^(0+128)
  6587  092E  1003               	clrc
  6588  092F  0CCE               	rrf	(??_PWM1_Duty^(0+128)+1),f
  6589  0930  0CCD               	rrf	??_PWM1_Duty^(0+128),f
  6590  0931  1003               	clrc
  6591  0932  0CCE               	rrf	(??_PWM1_Duty^(0+128)+1),f
  6592  0933  0CCD               	rrf	??_PWM1_Duty^(0+128),f
  6593  0934  084D               	movf	??_PWM1_Duty^(0+128),w
  6594  0935  1283               	bcf	3,5	;RP0=0, select bank0
  6595  0936  1303               	bcf	3,6	;RP1=0, select bank0
  6596  0937  0095               	movwf	21	;volatile
  6597  0938                     l120:
  6598  0938  0008               	return
  6599  0939                     __end_of_PWM1_Duty:
  6600                           
  6601                           	psect	text15
  6602  122A                     __ptext15:	
  6603 ;; *************** function ___xxtofl *****************
  6604 ;; Defined at:
  6605 ;;		line 10 in file "E:\Program Files\Microchip\xc8\v2.30\pic\sources\c90\common\xxtofl.c"
  6606 ;; Parameters:    Size  Location     Type
  6607 ;;  sign            1    wreg     unsigned char 
  6608 ;;  val             4   26[BANK0 ] long 
  6609 ;; Auto vars:     Size  Location     Type
  6610 ;;  sign            1   34[BANK0 ] unsigned char 
  6611 ;;  arg             4   36[BANK0 ] unsigned long 
  6612 ;;  exp             1   35[BANK0 ] unsigned char 
  6613 ;; Return value:  Size  Location     Type
  6614 ;;                  4   26[BANK0 ] unsigned char 
  6615 ;; Registers used:
  6616 ;;		wreg, status,2, status,0
  6617 ;; Tracked objects:
  6618 ;;		On entry : 0/0
  6619 ;;		On exit  : 0/0
  6620 ;;		Unchanged: 0/0
  6621 ;; Data sizes:     COMMON   BANK0   BANK1   BANK3   BANK2
  6622 ;;      Params:         0       4       0       0       0
  6623 ;;      Locals:         0       6       0       0       0
  6624 ;;      Temps:          0       4       0       0       0
  6625 ;;      Totals:         0      14       0       0       0
  6626 ;;Total ram usage:       14 bytes
  6627 ;; Hardware stack levels used:    1
  6628 ;; Hardware stack levels required when called:    1
  6629 ;; This function calls:
  6630 ;;		Nothing
  6631 ;; This function is called by:
  6632 ;;		_PWM1_Duty
  6633 ;;		_PWM2_Duty
  6634 ;;		_tinh_pid
  6635 ;; This function uses a non-reentrant model
  6636 ;;
  6637                           
  6638                           
  6639                           ;psect for function ___xxtofl
  6640  122A                     ___xxtofl:
  6641                           
  6642                           ;incstack = 0
  6643                           ; Regs used in ___xxtofl: [wreg+status,2+status,0]
  6644                           ;___xxtofl@sign stored from wreg
  6645  122A  1283               	bcf	3,5	;RP0=0, select bank0
  6646  122B  1303               	bcf	3,6	;RP1=0, select bank0
  6647  122C  00C2               	movwf	___xxtofl@sign
  6648  122D                     l3666:
  6649  122D  0842               	movf	___xxtofl@sign,w
  6650  122E  1903               	btfsc	3,2
  6651  122F  2A31               	goto	u5931
  6652  1230  2A32               	goto	u5930
  6653  1231                     u5931:
  6654  1231  2A46               	goto	l3672
  6655  1232                     u5930:
  6656  1232                     l3668:
  6657  1232  1FBD               	btfss	___xxtofl@val+3,7
  6658  1233  2A35               	goto	u5941
  6659  1234  2A36               	goto	u5940
  6660  1235                     u5941:
  6661  1235  2A46               	goto	l3672
  6662  1236                     u5940:
  6663  1236                     l3670:
  6664  1236  093A               	comf	___xxtofl@val,w
  6665  1237  00C4               	movwf	___xxtofl@arg
  6666  1238  093B               	comf	___xxtofl@val+1,w
  6667  1239  00C5               	movwf	___xxtofl@arg+1
  6668  123A  093C               	comf	___xxtofl@val+2,w
  6669  123B  00C6               	movwf	___xxtofl@arg+2
  6670  123C  093D               	comf	___xxtofl@val+3,w
  6671  123D  00C7               	movwf	___xxtofl@arg+3
  6672  123E  0AC4               	incf	___xxtofl@arg,f
  6673  123F  1903               	skipnz
  6674  1240  0AC5               	incf	___xxtofl@arg+1,f
  6675  1241  1903               	skipnz
  6676  1242  0AC6               	incf	___xxtofl@arg+2,f
  6677  1243  1903               	skipnz
  6678  1244  0AC7               	incf	___xxtofl@arg+3,f
  6679  1245  2A4E               	goto	l781
  6680  1246                     l3672:
  6681  1246  083D               	movf	___xxtofl@val+3,w
  6682  1247  00C7               	movwf	___xxtofl@arg+3
  6683  1248  083C               	movf	___xxtofl@val+2,w
  6684  1249  00C6               	movwf	___xxtofl@arg+2
  6685  124A  083B               	movf	___xxtofl@val+1,w
  6686  124B  00C5               	movwf	___xxtofl@arg+1
  6687  124C  083A               	movf	___xxtofl@val,w
  6688  124D  00C4               	movwf	___xxtofl@arg
  6689  124E                     l781:
  6690  124E  083D               	movf	___xxtofl@val+3,w
  6691  124F  043C               	iorwf	___xxtofl@val+2,w
  6692  1250  043B               	iorwf	___xxtofl@val+1,w
  6693  1251  043A               	iorwf	___xxtofl@val,w
  6694  1252  1D03               	skipz
  6695  1253  2A55               	goto	u5951
  6696  1254  2A56               	goto	u5950
  6697  1255                     u5951:
  6698  1255  2A5F               	goto	l3678
  6699  1256                     u5950:
  6700  1256                     l3674:
  6701  1256  3000               	movlw	0
  6702  1257  00BD               	movwf	?___xxtofl+3
  6703  1258  3000               	movlw	0
  6704  1259  00BC               	movwf	?___xxtofl+2
  6705  125A  3000               	movlw	0
  6706  125B  00BB               	movwf	?___xxtofl+1
  6707  125C  3000               	movlw	0
  6708  125D  00BA               	movwf	?___xxtofl
  6709  125E  2AE5               	goto	l783
  6710  125F                     l3678:
  6711  125F  3096               	movlw	150
  6712  1260  00BE               	movwf	??___xxtofl
  6713  1261  083E               	movf	??___xxtofl,w
  6714  1262  00C3               	movwf	___xxtofl@exp
  6715  1263  2A71               	goto	l3682
  6716  1264                     l3680:
  6717  1264  3001               	movlw	1
  6718  1265  00BE               	movwf	??___xxtofl
  6719  1266  083E               	movf	??___xxtofl,w
  6720  1267  07C3               	addwf	___xxtofl@exp,f
  6721  1268  3001               	movlw	1
  6722  1269                     u5965:
  6723  1269  1003               	clrc
  6724  126A  0CC7               	rrf	___xxtofl@arg+3,f
  6725  126B  0CC6               	rrf	___xxtofl@arg+2,f
  6726  126C  0CC5               	rrf	___xxtofl@arg+1,f
  6727  126D  0CC4               	rrf	___xxtofl@arg,f
  6728  126E  3EFF               	addlw	-1
  6729  126F  1D03               	skipz
  6730  1270  2A69               	goto	u5965
  6731  1271                     l3682:
  6732  1271  30FE               	movlw	254
  6733  1272  0547               	andwf	___xxtofl@arg+3,w
  6734  1273  1D03               	btfss	3,2
  6735  1274  2A76               	goto	u5971
  6736  1275  2A77               	goto	u5970
  6737  1276                     u5971:
  6738  1276  2A64               	goto	l3680
  6739  1277                     u5970:
  6740  1277  2A93               	goto	l787
  6741  1278                     l3684:
  6742  1278  3001               	movlw	1
  6743  1279  00BE               	movwf	??___xxtofl
  6744  127A  083E               	movf	??___xxtofl,w
  6745  127B  07C3               	addwf	___xxtofl@exp,f
  6746  127C                     l3686:
  6747  127C  3001               	movlw	1
  6748  127D  07C4               	addwf	___xxtofl@arg,f
  6749  127E  3000               	movlw	0
  6750  127F  1803               	skipnc
  6751  1280  3001               	movlw	1
  6752  1281  07C5               	addwf	___xxtofl@arg+1,f
  6753  1282  3000               	movlw	0
  6754  1283  1803               	skipnc
  6755  1284  3001               	movlw	1
  6756  1285  07C6               	addwf	___xxtofl@arg+2,f
  6757  1286  3000               	movlw	0
  6758  1287  1803               	skipnc
  6759  1288  3001               	movlw	1
  6760  1289  07C7               	addwf	___xxtofl@arg+3,f
  6761  128A                     l3688:
  6762  128A  3001               	movlw	1
  6763  128B                     u5985:
  6764  128B  1003               	clrc
  6765  128C  0CC7               	rrf	___xxtofl@arg+3,f
  6766  128D  0CC6               	rrf	___xxtofl@arg+2,f
  6767  128E  0CC5               	rrf	___xxtofl@arg+1,f
  6768  128F  0CC4               	rrf	___xxtofl@arg,f
  6769  1290  3EFF               	addlw	-1
  6770  1291  1D03               	skipz
  6771  1292  2A8B               	goto	u5985
  6772  1293                     l787:
  6773  1293  30FF               	movlw	255
  6774  1294  0547               	andwf	___xxtofl@arg+3,w
  6775  1295  1D03               	btfss	3,2
  6776  1296  2A98               	goto	u5991
  6777  1297  2A99               	goto	u5990
  6778  1298                     u5991:
  6779  1298  2A78               	goto	l3684
  6780  1299                     u5990:
  6781  1299  2AA5               	goto	l3692
  6782  129A                     l3690:
  6783  129A  3001               	movlw	1
  6784  129B  02C3               	subwf	___xxtofl@exp,f
  6785  129C  3001               	movlw	1
  6786  129D  00BE               	movwf	??___xxtofl
  6787  129E                     u6005:
  6788  129E  1003               	clrc
  6789  129F  0DC4               	rlf	___xxtofl@arg,f
  6790  12A0  0DC5               	rlf	___xxtofl@arg+1,f
  6791  12A1  0DC6               	rlf	___xxtofl@arg+2,f
  6792  12A2  0DC7               	rlf	___xxtofl@arg+3,f
  6793  12A3  0BBE               	decfsz	??___xxtofl,f
  6794  12A4  2A9E               	goto	u6005
  6795  12A5                     l3692:
  6796  12A5  1BC6               	btfsc	___xxtofl@arg+2,7
  6797  12A6  2AA8               	goto	u6011
  6798  12A7  2AA9               	goto	u6010
  6799  12A8                     u6011:
  6800  12A8  2AAF               	goto	l794
  6801  12A9                     u6010:
  6802  12A9                     l3694:
  6803  12A9  3002               	movlw	2
  6804  12AA  0243               	subwf	___xxtofl@exp,w
  6805  12AB  1803               	skipnc
  6806  12AC  2AAE               	goto	u6021
  6807  12AD  2AAF               	goto	u6020
  6808  12AE                     u6021:
  6809  12AE  2A9A               	goto	l3690
  6810  12AF                     u6020:
  6811  12AF                     l794:
  6812  12AF  1843               	btfsc	___xxtofl@exp,0
  6813  12B0  2AB2               	goto	u6031
  6814  12B1  2AB3               	goto	u6030
  6815  12B2                     u6031:
  6816  12B2  2ABB               	goto	l795
  6817  12B3                     u6030:
  6818  12B3                     l3696:
  6819  12B3  30FF               	movlw	255
  6820  12B4  05C4               	andwf	___xxtofl@arg,f
  6821  12B5  30FF               	movlw	255
  6822  12B6  05C5               	andwf	___xxtofl@arg+1,f
  6823  12B7  307F               	movlw	127
  6824  12B8  05C6               	andwf	___xxtofl@arg+2,f
  6825  12B9  30FF               	movlw	255
  6826  12BA  05C7               	andwf	___xxtofl@arg+3,f
  6827  12BB                     l795:
  6828  12BB  1003               	clrc
  6829  12BC  0CC3               	rrf	___xxtofl@exp,f
  6830  12BD                     l3698:
  6831  12BD  0843               	movf	___xxtofl@exp,w
  6832  12BE  00BE               	movwf	??___xxtofl
  6833  12BF  01BF               	clrf	??___xxtofl+1
  6834  12C0  01C0               	clrf	??___xxtofl+2
  6835  12C1  01C1               	clrf	??___xxtofl+3
  6836  12C2  3018               	movlw	24
  6837  12C3                     u6045:
  6838  12C3  1003               	clrc
  6839  12C4  0DBE               	rlf	??___xxtofl,f
  6840  12C5  0DBF               	rlf	??___xxtofl+1,f
  6841  12C6  0DC0               	rlf	??___xxtofl+2,f
  6842  12C7  0DC1               	rlf	??___xxtofl+3,f
  6843  12C8                     u6040:
  6844  12C8  3EFF               	addlw	-1
  6845  12C9  1D03               	skipz
  6846  12CA  2AC3               	goto	u6045
  6847  12CB  083E               	movf	??___xxtofl,w
  6848  12CC  04C4               	iorwf	___xxtofl@arg,f
  6849  12CD  083F               	movf	??___xxtofl+1,w
  6850  12CE  04C5               	iorwf	___xxtofl@arg+1,f
  6851  12CF  0840               	movf	??___xxtofl+2,w
  6852  12D0  04C6               	iorwf	___xxtofl@arg+2,f
  6853  12D1  0841               	movf	??___xxtofl+3,w
  6854  12D2  04C7               	iorwf	___xxtofl@arg+3,f
  6855  12D3                     l3700:
  6856  12D3  0842               	movf	___xxtofl@sign,w
  6857  12D4  1903               	btfsc	3,2
  6858  12D5  2AD7               	goto	u6051
  6859  12D6  2AD8               	goto	u6050
  6860  12D7                     u6051:
  6861  12D7  2ADD               	goto	l3706
  6862  12D8                     u6050:
  6863  12D8                     l3702:
  6864  12D8  1FBD               	btfss	___xxtofl@val+3,7
  6865  12D9  2ADB               	goto	u6061
  6866  12DA  2ADC               	goto	u6060
  6867  12DB                     u6061:
  6868  12DB  2ADD               	goto	l3706
  6869  12DC                     u6060:
  6870  12DC                     l3704:
  6871  12DC  17C7               	bsf	___xxtofl@arg+3,7
  6872  12DD                     l3706:
  6873  12DD  0847               	movf	___xxtofl@arg+3,w
  6874  12DE  00BD               	movwf	?___xxtofl+3
  6875  12DF  0846               	movf	___xxtofl@arg+2,w
  6876  12E0  00BC               	movwf	?___xxtofl+2
  6877  12E1  0845               	movf	___xxtofl@arg+1,w
  6878  12E2  00BB               	movwf	?___xxtofl+1
  6879  12E3  0844               	movf	___xxtofl@arg,w
  6880  12E4  00BA               	movwf	?___xxtofl
  6881  12E5                     l783:
  6882  12E5  0008               	return
  6883  12E6                     __end_of___xxtofl:
  6884                           
  6885                           	psect	text16
  6886  1057                     __ptext16:	
  6887 ;; *************** function ___fltol *****************
  6888 ;; Defined at:
  6889 ;;		line 43 in file "E:\Program Files\Microchip\xc8\v2.30\pic\sources\c90\common\fltol.c"
  6890 ;; Parameters:    Size  Location     Type
  6891 ;;  f1              4   34[BANK1 ] unsigned char 
  6892 ;; Auto vars:     Size  Location     Type
  6893 ;;  exp1            1   79[BANK0 ] unsigned char 
  6894 ;;  sign1           1   78[BANK0 ] unsigned char 
  6895 ;; Return value:  Size  Location     Type
  6896 ;;                  4   34[BANK1 ] long 
  6897 ;; Registers used:
  6898 ;;		wreg, status,2, status,0
  6899 ;; Tracked objects:
  6900 ;;		On entry : 0/0
  6901 ;;		On exit  : 0/0
  6902 ;;		Unchanged: 0/0
  6903 ;; Data sizes:     COMMON   BANK0   BANK1   BANK3   BANK2
  6904 ;;      Params:         0       0       4       0       0
  6905 ;;      Locals:         0       2       0       0       0
  6906 ;;      Temps:          0       0       5       0       0
  6907 ;;      Totals:         0       2       9       0       0
  6908 ;;Total ram usage:       11 bytes
  6909 ;; Hardware stack levels used:    1
  6910 ;; Hardware stack levels required when called:    1
  6911 ;; This function calls:
  6912 ;;		Nothing
  6913 ;; This function is called by:
  6914 ;;		_PWM1_Duty
  6915 ;;		_PWM2_Duty
  6916 ;;		_tinh_pid
  6917 ;; This function uses a non-reentrant model
  6918 ;;
  6919                           
  6920                           
  6921                           ;psect for function ___fltol
  6922  1057                     ___fltol:
  6923  1057                     l3154:	
  6924                           ;incstack = 0
  6925                           ; Regs used in ___fltol: [wreg+status,2+status,0]
  6926                           
  6927  1057  1003               	clrc
  6928  1058  1683               	bsf	3,5	;RP0=1, select bank1
  6929  1059  1303               	bcf	3,6	;RP1=0, select bank1
  6930  105A  0D44               	rlf	(___fltol@f1+2)^(0+128),w
  6931  105B  0D45               	rlf	(___fltol@f1+3)^(0+128),w
  6932  105C  00C6               	movwf	??___fltol^(0+128)
  6933  105D  0846               	movf	??___fltol^(0+128),w
  6934  105E  1283               	bcf	3,5	;RP0=0, select bank0
  6935  105F  1303               	bcf	3,6	;RP1=0, select bank0
  6936  1060  00EF               	movwf	___fltol@exp1
  6937  1061  086F               	movf	___fltol@exp1,w
  6938  1062  1D03               	btfss	3,2
  6939  1063  2865               	goto	u4711
  6940  1064  2866               	goto	u4710
  6941  1065                     u4711:
  6942  1065  2871               	goto	l3160
  6943  1066                     u4710:
  6944  1066                     l3156:
  6945  1066  3000               	movlw	0
  6946  1067  1683               	bsf	3,5	;RP0=1, select bank1
  6947  1068  1303               	bcf	3,6	;RP1=0, select bank1
  6948  1069  00C5               	movwf	(?___fltol+3)^(0+128)
  6949  106A  3000               	movlw	0
  6950  106B  00C4               	movwf	(?___fltol+2)^(0+128)
  6951  106C  3000               	movlw	0
  6952  106D  00C3               	movwf	(?___fltol+1)^(0+128)
  6953  106E  3000               	movlw	0
  6954  106F  00C2               	movwf	?___fltol^(0+128)
  6955  1070  28E8               	goto	l534
  6956  1071                     l3160:
  6957  1071  1683               	bsf	3,5	;RP0=1, select bank1
  6958  1072  1303               	bcf	3,6	;RP1=0, select bank1
  6959  1073  0842               	movf	___fltol@f1^(0+128),w
  6960  1074  00C6               	movwf	??___fltol^(0+128)
  6961  1075  0843               	movf	(___fltol@f1+1)^(0+128),w
  6962  1076  00C7               	movwf	(??___fltol^(0+128)+1)
  6963  1077  0844               	movf	(___fltol@f1+2)^(0+128),w
  6964  1078  00C8               	movwf	(??___fltol^(0+128)+2)
  6965  1079  0845               	movf	(___fltol@f1+3)^(0+128),w
  6966  107A  00C9               	movwf	(??___fltol^(0+128)+3)
  6967  107B  301F               	movlw	31
  6968  107C                     u4725:
  6969  107C  1003               	clrc
  6970  107D  0CC9               	rrf	(??___fltol^(0+128)+3),f
  6971  107E  0CC8               	rrf	(??___fltol^(0+128)+2),f
  6972  107F  0CC7               	rrf	(??___fltol^(0+128)+1),f
  6973  1080  0CC6               	rrf	??___fltol^(0+128),f
  6974  1081                     u4720:
  6975  1081  3EFF               	addlw	-1
  6976  1082  1D03               	skipz
  6977  1083  287C               	goto	u4725
  6978  1084  0846               	movf	??___fltol^(0+128),w
  6979  1085  00CA               	movwf	(??___fltol+4)^(0+128)
  6980  1086  084A               	movf	(??___fltol+4)^(0+128),w
  6981  1087  1283               	bcf	3,5	;RP0=0, select bank0
  6982  1088  1303               	bcf	3,6	;RP1=0, select bank0
  6983  1089  00EE               	movwf	___fltol@sign1
  6984  108A                     l3162:
  6985  108A  1683               	bsf	3,5	;RP0=1, select bank1
  6986  108B  1303               	bcf	3,6	;RP1=0, select bank1
  6987  108C  17C4               	bsf	(___fltol@f1^(0+128)+2),7
  6988  108D                     l3164:
  6989  108D  30FF               	movlw	255
  6990  108E  05C2               	andwf	___fltol@f1^(0+128),f
  6991  108F  30FF               	movlw	255
  6992  1090  05C3               	andwf	(___fltol@f1+1)^(0+128),f
  6993  1091  30FF               	movlw	255
  6994  1092  05C4               	andwf	(___fltol@f1+2)^(0+128),f
  6995  1093  3000               	movlw	0
  6996  1094  05C5               	andwf	(___fltol@f1+3)^(0+128),f
  6997  1095                     l3166:
  6998  1095  3096               	movlw	150
  6999  1096  1283               	bcf	3,5	;RP0=0, select bank0
  7000  1097  1303               	bcf	3,6	;RP1=0, select bank0
  7001  1098  02EF               	subwf	___fltol@exp1,f
  7002  1099                     l3168:
  7003  1099  1FEF               	btfss	___fltol@exp1,7
  7004  109A  289C               	goto	u4731
  7005  109B  289D               	goto	u4730
  7006  109C                     u4731:
  7007  109C  28BB               	goto	l3178
  7008  109D                     u4730:
  7009  109D                     l3170:
  7010  109D  086F               	movf	___fltol@exp1,w
  7011  109E  3A80               	xorlw	128
  7012  109F  3E97               	addlw	151
  7013  10A0  1803               	skipnc
  7014  10A1  28A3               	goto	u4741
  7015  10A2  28A4               	goto	u4740
  7016  10A3                     u4741:
  7017  10A3  28A5               	goto	l3176
  7018  10A4                     u4740:
  7019  10A4  2866               	goto	l3156
  7020  10A5                     l3176:
  7021  10A5  3001               	movlw	1
  7022  10A6                     u4755:
  7023  10A6  1003               	clrc
  7024  10A7  1683               	bsf	3,5	;RP0=1, select bank1
  7025  10A8  1303               	bcf	3,6	;RP1=0, select bank1
  7026  10A9  0CC5               	rrf	(___fltol@f1+3)^(0+128),f
  7027  10AA  0CC4               	rrf	(___fltol@f1+2)^(0+128),f
  7028  10AB  0CC3               	rrf	(___fltol@f1+1)^(0+128),f
  7029  10AC  0CC2               	rrf	___fltol@f1^(0+128),f
  7030  10AD  3EFF               	addlw	-1
  7031  10AE  1D03               	skipz
  7032  10AF  28A6               	goto	u4755
  7033  10B0  3001               	movlw	1
  7034  10B1  00C6               	movwf	??___fltol^(0+128)
  7035  10B2  0846               	movf	??___fltol^(0+128),w
  7036  10B3  1283               	bcf	3,5	;RP0=0, select bank0
  7037  10B4  1303               	bcf	3,6	;RP1=0, select bank0
  7038  10B5  07EF               	addwf	___fltol@exp1,f
  7039  10B6  1D03               	btfss	3,2
  7040  10B7  28B9               	goto	u4761
  7041  10B8  28BA               	goto	u4760
  7042  10B9                     u4761:
  7043  10B9  28A5               	goto	l3176
  7044  10BA                     u4760:
  7045  10BA  28D6               	goto	l3186
  7046  10BB                     l3178:
  7047  10BB  3020               	movlw	32
  7048  10BC  026F               	subwf	___fltol@exp1,w
  7049  10BD  1C03               	skipc
  7050  10BE  28C0               	goto	u4771
  7051  10BF  28C1               	goto	u4770
  7052  10C0                     u4771:
  7053  10C0  28D1               	goto	l541
  7054  10C1                     u4770:
  7055  10C1  2866               	goto	l3156
  7056  10C2                     l3184:
  7057  10C2  3001               	movlw	1
  7058  10C3  1683               	bsf	3,5	;RP0=1, select bank1
  7059  10C4  1303               	bcf	3,6	;RP1=0, select bank1
  7060  10C5  00C6               	movwf	??___fltol^(0+128)
  7061  10C6                     u4785:
  7062  10C6  1003               	clrc
  7063  10C7  0DC2               	rlf	___fltol@f1^(0+128),f
  7064  10C8  0DC3               	rlf	(___fltol@f1+1)^(0+128),f
  7065  10C9  0DC4               	rlf	(___fltol@f1+2)^(0+128),f
  7066  10CA  0DC5               	rlf	(___fltol@f1+3)^(0+128),f
  7067  10CB  0BC6               	decfsz	??___fltol^(0+128),f
  7068  10CC  28C6               	goto	u4785
  7069  10CD  3001               	movlw	1
  7070  10CE  1283               	bcf	3,5	;RP0=0, select bank0
  7071  10CF  1303               	bcf	3,6	;RP1=0, select bank0
  7072  10D0  02EF               	subwf	___fltol@exp1,f
  7073  10D1                     l541:
  7074  10D1  086F               	movf	___fltol@exp1,w
  7075  10D2  1D03               	btfss	3,2
  7076  10D3  28D5               	goto	u4791
  7077  10D4  28D6               	goto	u4790
  7078  10D5                     u4791:
  7079  10D5  28C2               	goto	l3184
  7080  10D6                     u4790:
  7081  10D6                     l3186:
  7082  10D6  086E               	movf	___fltol@sign1,w
  7083  10D7  1903               	btfsc	3,2
  7084  10D8  28DA               	goto	u4801
  7085  10D9  28DB               	goto	u4800
  7086  10DA                     u4801:
  7087  10DA  28E8               	goto	l544
  7088  10DB                     u4800:
  7089  10DB                     l3188:
  7090  10DB  1683               	bsf	3,5	;RP0=1, select bank1
  7091  10DC  1303               	bcf	3,6	;RP1=0, select bank1
  7092  10DD  09C2               	comf	___fltol@f1^(0+128),f
  7093  10DE  09C3               	comf	(___fltol@f1+1)^(0+128),f
  7094  10DF  09C4               	comf	(___fltol@f1+2)^(0+128),f
  7095  10E0  09C5               	comf	(___fltol@f1+3)^(0+128),f
  7096  10E1  0AC2               	incf	___fltol@f1^(0+128),f
  7097  10E2  1903               	skipnz
  7098  10E3  0AC3               	incf	(___fltol@f1+1)^(0+128),f
  7099  10E4  1903               	skipnz
  7100  10E5  0AC4               	incf	(___fltol@f1+2)^(0+128),f
  7101  10E6  1903               	skipnz
  7102  10E7  0AC5               	incf	(___fltol@f1+3)^(0+128),f
  7103  10E8                     l544:
  7104  10E8                     l534:
  7105  10E8  0008               	return
  7106  10E9                     __end_of___fltol:
  7107                           
  7108                           	psect	text17
  7109  0939                     __ptext17:	
  7110 ;; *************** function ___flmul *****************
  7111 ;; Defined at:
  7112 ;;		line 8 in file "E:\Program Files\Microchip\xc8\v2.30\pic\sources\c90\common\sprcmul.c"
  7113 ;; Parameters:    Size  Location     Type
  7114 ;;  b               4   40[BANK0 ] long 
  7115 ;;  a               4   44[BANK0 ] long 
  7116 ;; Auto vars:     Size  Location     Type
  7117 ;;  prod            4   60[BANK0 ] struct .
  7118 ;;  grs             4   55[BANK0 ] unsigned long 
  7119 ;;  temp            2   64[BANK0 ] struct .
  7120 ;;  bexp            1   59[BANK0 ] unsigned char 
  7121 ;;  aexp            1   54[BANK0 ] unsigned char 
  7122 ;;  sign            1   53[BANK0 ] unsigned char 
  7123 ;; Return value:  Size  Location     Type
  7124 ;;                  4   40[BANK0 ] unsigned char 
  7125 ;; Registers used:
  7126 ;;		wreg, status,2, status,0, btemp+1, pclath, cstack
  7127 ;; Tracked objects:
  7128 ;;		On entry : 0/0
  7129 ;;		On exit  : 0/0
  7130 ;;		Unchanged: 0/0
  7131 ;; Data sizes:     COMMON   BANK0   BANK1   BANK3   BANK2
  7132 ;;      Params:         0       8       0       0       0
  7133 ;;      Locals:         0      13       0       0       0
  7134 ;;      Temps:          0       5       0       0       0
  7135 ;;      Totals:         0      26       0       0       0
  7136 ;;Total ram usage:       26 bytes
  7137 ;; Hardware stack levels used:    1
  7138 ;; Hardware stack levels required when called:    2
  7139 ;; This function calls:
  7140 ;;		__Umul8_16
  7141 ;; This function is called by:
  7142 ;;		_PWM1_Duty
  7143 ;;		_PWM2_Duty
  7144 ;;		_tinh_pid
  7145 ;; This function uses a non-reentrant model
  7146 ;;
  7147                           
  7148                           
  7149                           ;psect for function ___flmul
  7150  0939                     ___flmul:
  7151  0939                     l3526:	
  7152                           ;incstack = 0
  7153                           ; Regs used in ___flmul: [wreg+status,2+status,0+btemp+1+pclath+cstack]
  7154                           
  7155  0939  1283               	bcf	3,5	;RP0=0, select bank0
  7156  093A  1303               	bcf	3,6	;RP1=0, select bank0
  7157  093B  084B               	movf	___flmul@b+3,w
  7158  093C  3980               	andlw	128
  7159  093D  00D0               	movwf	??___flmul
  7160  093E  0850               	movf	??___flmul,w
  7161  093F  00D5               	movwf	___flmul@sign
  7162  0940                     l3528:
  7163  0940  084B               	movf	___flmul@b+3,w
  7164  0941  00D0               	movwf	??___flmul
  7165  0942  0750               	addwf	??___flmul,w
  7166  0943  00D1               	movwf	??___flmul+1
  7167  0944  0851               	movf	??___flmul+1,w
  7168  0945  00DB               	movwf	___flmul@bexp
  7169  0946                     l3530:
  7170  0946  1FCA               	btfss	___flmul@b+2,7
  7171  0947  2949               	goto	u5561
  7172  0948  294A               	goto	u5560
  7173  0949                     u5561:
  7174  0949  294B               	goto	l3534
  7175  094A                     u5560:
  7176  094A                     l3532:
  7177  094A  145B               	bsf	___flmul@bexp,0
  7178  094B                     l3534:
  7179  094B  085B               	movf	___flmul@bexp,w
  7180  094C  1903               	btfsc	3,2
  7181  094D  294F               	goto	u5571
  7182  094E  2950               	goto	u5570
  7183  094F                     u5571:
  7184  094F  295F               	goto	l3542
  7185  0950                     u5570:
  7186  0950                     l3536:
  7187  0950  0A5B               	incf	___flmul@bexp,w
  7188  0951  1D03               	btfss	3,2
  7189  0952  2954               	goto	u5581
  7190  0953  2955               	goto	u5580
  7191  0954                     u5581:
  7192  0954  295D               	goto	l3540
  7193  0955                     u5580:
  7194  0955                     l3538:
  7195  0955  3000               	movlw	0
  7196  0956  00CB               	movwf	___flmul@b+3
  7197  0957  3000               	movlw	0
  7198  0958  00CA               	movwf	___flmul@b+2
  7199  0959  3000               	movlw	0
  7200  095A  00C9               	movwf	___flmul@b+1
  7201  095B  3000               	movlw	0
  7202  095C  00C8               	movwf	___flmul@b
  7203  095D                     l3540:
  7204  095D  17CA               	bsf	___flmul@b+2,7
  7205  095E  2967               	goto	l3544
  7206  095F                     l3542:
  7207  095F  3000               	movlw	0
  7208  0960  00CB               	movwf	___flmul@b+3
  7209  0961  3000               	movlw	0
  7210  0962  00CA               	movwf	___flmul@b+2
  7211  0963  3000               	movlw	0
  7212  0964  00C9               	movwf	___flmul@b+1
  7213  0965  3000               	movlw	0
  7214  0966  00C8               	movwf	___flmul@b
  7215  0967                     l3544:
  7216  0967  084F               	movf	___flmul@a+3,w
  7217  0968  3980               	andlw	128
  7218  0969  00D0               	movwf	??___flmul
  7219  096A  0850               	movf	??___flmul,w
  7220  096B  06D5               	xorwf	___flmul@sign,f
  7221  096C                     l3546:
  7222  096C  084F               	movf	___flmul@a+3,w
  7223  096D  00D0               	movwf	??___flmul
  7224  096E  0750               	addwf	??___flmul,w
  7225  096F  00D1               	movwf	??___flmul+1
  7226  0970  0851               	movf	??___flmul+1,w
  7227  0971  00D6               	movwf	___flmul@aexp
  7228  0972                     l3548:
  7229  0972  1FCE               	btfss	___flmul@a+2,7
  7230  0973  2975               	goto	u5591
  7231  0974  2976               	goto	u5590
  7232  0975                     u5591:
  7233  0975  2977               	goto	l3552
  7234  0976                     u5590:
  7235  0976                     l3550:
  7236  0976  1456               	bsf	___flmul@aexp,0
  7237  0977                     l3552:
  7238  0977  0856               	movf	___flmul@aexp,w
  7239  0978  1903               	btfsc	3,2
  7240  0979  297B               	goto	u5601
  7241  097A  297C               	goto	u5600
  7242  097B                     u5601:
  7243  097B  298B               	goto	l3560
  7244  097C                     u5600:
  7245  097C                     l3554:
  7246  097C  0A56               	incf	___flmul@aexp,w
  7247  097D  1D03               	btfss	3,2
  7248  097E  2980               	goto	u5611
  7249  097F  2981               	goto	u5610
  7250  0980                     u5611:
  7251  0980  2989               	goto	l3558
  7252  0981                     u5610:
  7253  0981                     l3556:
  7254  0981  3000               	movlw	0
  7255  0982  00CF               	movwf	___flmul@a+3
  7256  0983  3000               	movlw	0
  7257  0984  00CE               	movwf	___flmul@a+2
  7258  0985  3000               	movlw	0
  7259  0986  00CD               	movwf	___flmul@a+1
  7260  0987  3000               	movlw	0
  7261  0988  00CC               	movwf	___flmul@a
  7262  0989                     l3558:
  7263  0989  17CE               	bsf	___flmul@a+2,7
  7264  098A  2993               	goto	l3562
  7265  098B                     l3560:
  7266  098B  3000               	movlw	0
  7267  098C  00CF               	movwf	___flmul@a+3
  7268  098D  3000               	movlw	0
  7269  098E  00CE               	movwf	___flmul@a+2
  7270  098F  3000               	movlw	0
  7271  0990  00CD               	movwf	___flmul@a+1
  7272  0991  3000               	movlw	0
  7273  0992  00CC               	movwf	___flmul@a
  7274  0993                     l3562:
  7275  0993  0856               	movf	___flmul@aexp,w
  7276  0994  1903               	btfsc	3,2
  7277  0995  2997               	goto	u5621
  7278  0996  2998               	goto	u5620
  7279  0997                     u5621:
  7280  0997  299D               	goto	l3566
  7281  0998                     u5620:
  7282  0998                     l3564:
  7283  0998  085B               	movf	___flmul@bexp,w
  7284  0999  1D03               	btfss	3,2
  7285  099A  299C               	goto	u5631
  7286  099B  299D               	goto	u5630
  7287  099C                     u5631:
  7288  099C  29A6               	goto	l3570
  7289  099D                     u5630:
  7290  099D                     l3566:
  7291  099D  3000               	movlw	0
  7292  099E  00CB               	movwf	?___flmul+3
  7293  099F  3000               	movlw	0
  7294  09A0  00CA               	movwf	?___flmul+2
  7295  09A1  3000               	movlw	0
  7296  09A2  00C9               	movwf	?___flmul+1
  7297  09A3  3000               	movlw	0
  7298  09A4  00C8               	movwf	?___flmul
  7299  09A5  2C99               	goto	l737
  7300  09A6                     l3570:
  7301  09A6  0848               	movf	___flmul@b,w
  7302  09A7  00D0               	movwf	??___flmul
  7303  09A8  0850               	movf	??___flmul,w
  7304  09A9  00F2               	movwf	__Umul8_16@multiplicand
  7305  09AA  084E               	movf	___flmul@a+2,w
  7306  09AB  160A  158A  23CD  120A  158A  	fcall	__Umul8_16
  7307  09B0  0873               	movf	?__Umul8_16+1,w
  7308  09B1  1283               	bcf	3,5	;RP0=0, select bank0
  7309  09B2  1303               	bcf	3,6	;RP1=0, select bank0
  7310  09B3  00E1               	movwf	___flmul@temp+1
  7311  09B4  0872               	movf	?__Umul8_16,w
  7312  09B5  00E0               	movwf	___flmul@temp
  7313  09B6                     l3572:
  7314  09B6  0860               	movf	___flmul@temp,w
  7315  09B7  00D0               	movwf	??___flmul
  7316  09B8  01D1               	clrf	??___flmul+1
  7317  09B9  01D2               	clrf	??___flmul+2
  7318  09BA  01D3               	clrf	??___flmul+3
  7319  09BB  0853               	movf	??___flmul+3,w
  7320  09BC  00DA               	movwf	___flmul@grs+3
  7321  09BD  0852               	movf	??___flmul+2,w
  7322  09BE  00D9               	movwf	___flmul@grs+2
  7323  09BF  0851               	movf	??___flmul+1,w
  7324  09C0  00D8               	movwf	___flmul@grs+1
  7325  09C1  0850               	movf	??___flmul,w
  7326  09C2  00D7               	movwf	___flmul@grs
  7327  09C3                     l3574:
  7328  09C3  0861               	movf	___flmul@temp+1,w
  7329  09C4  00D0               	movwf	??___flmul
  7330  09C5  01D1               	clrf	??___flmul+1
  7331  09C6  01D2               	clrf	??___flmul+2
  7332  09C7  01D3               	clrf	??___flmul+3
  7333  09C8  0853               	movf	??___flmul+3,w
  7334  09C9  00DF               	movwf	___flmul@prod+3
  7335  09CA  0852               	movf	??___flmul+2,w
  7336  09CB  00DE               	movwf	___flmul@prod+2
  7337  09CC  0851               	movf	??___flmul+1,w
  7338  09CD  00DD               	movwf	___flmul@prod+1
  7339  09CE  0850               	movf	??___flmul,w
  7340  09CF  00DC               	movwf	___flmul@prod
  7341  09D0  0849               	movf	___flmul@b+1,w
  7342  09D1  00D0               	movwf	??___flmul
  7343  09D2  0850               	movf	??___flmul,w
  7344  09D3  00F2               	movwf	__Umul8_16@multiplicand
  7345  09D4  084D               	movf	___flmul@a+1,w
  7346  09D5  160A  158A  23CD  120A  158A  	fcall	__Umul8_16
  7347  09DA  0873               	movf	?__Umul8_16+1,w
  7348  09DB  1283               	bcf	3,5	;RP0=0, select bank0
  7349  09DC  1303               	bcf	3,6	;RP1=0, select bank0
  7350  09DD  00E1               	movwf	___flmul@temp+1
  7351  09DE  0872               	movf	?__Umul8_16,w
  7352  09DF  00E0               	movwf	___flmul@temp
  7353  09E0                     l3576:
  7354  09E0  0860               	movf	___flmul@temp,w
  7355  09E1  00D0               	movwf	??___flmul
  7356  09E2  01D1               	clrf	??___flmul+1
  7357  09E3  01D2               	clrf	??___flmul+2
  7358  09E4  01D3               	clrf	??___flmul+3
  7359  09E5  0850               	movf	??___flmul,w
  7360  09E6  07D7               	addwf	___flmul@grs,f
  7361  09E7  0851               	movf	??___flmul+1,w
  7362  09E8  1103               	clrz
  7363  09E9  1803               	skipnc
  7364  09EA  3E01               	addlw	1
  7365  09EB  1903               	skipnz
  7366  09EC  29EE               	goto	u5641
  7367  09ED  07D8               	addwf	___flmul@grs+1,f
  7368  09EE                     u5641:
  7369  09EE  0852               	movf	??___flmul+2,w
  7370  09EF  1103               	clrz
  7371  09F0  1803               	skipnc
  7372  09F1  3E01               	addlw	1
  7373  09F2  1903               	skipnz
  7374  09F3  29F5               	goto	u5642
  7375  09F4  07D9               	addwf	___flmul@grs+2,f
  7376  09F5                     u5642:
  7377  09F5  0853               	movf	??___flmul+3,w
  7378  09F6  1103               	clrz
  7379  09F7  1803               	skipnc
  7380  09F8  3E01               	addlw	1
  7381  09F9  1903               	skipnz
  7382  09FA  29FC               	goto	u5643
  7383  09FB  07DA               	addwf	___flmul@grs+3,f
  7384  09FC                     u5643:
  7385  09FC                     l3578:
  7386  09FC  0861               	movf	___flmul@temp+1,w
  7387  09FD  00D0               	movwf	??___flmul
  7388  09FE  01D1               	clrf	??___flmul+1
  7389  09FF  01D2               	clrf	??___flmul+2
  7390  0A00  01D3               	clrf	??___flmul+3
  7391  0A01  0850               	movf	??___flmul,w
  7392  0A02  07DC               	addwf	___flmul@prod,f
  7393  0A03  0851               	movf	??___flmul+1,w
  7394  0A04  1103               	clrz
  7395  0A05  1803               	skipnc
  7396  0A06  3E01               	addlw	1
  7397  0A07  1903               	skipnz
  7398  0A08  2A0A               	goto	u5651
  7399  0A09  07DD               	addwf	___flmul@prod+1,f
  7400  0A0A                     u5651:
  7401  0A0A  0852               	movf	??___flmul+2,w
  7402  0A0B  1103               	clrz
  7403  0A0C  1803               	skipnc
  7404  0A0D  3E01               	addlw	1
  7405  0A0E  1903               	skipnz
  7406  0A0F  2A11               	goto	u5652
  7407  0A10  07DE               	addwf	___flmul@prod+2,f
  7408  0A11                     u5652:
  7409  0A11  0853               	movf	??___flmul+3,w
  7410  0A12  1103               	clrz
  7411  0A13  1803               	skipnc
  7412  0A14  3E01               	addlw	1
  7413  0A15  1903               	skipnz
  7414  0A16  2A18               	goto	u5653
  7415  0A17  07DF               	addwf	___flmul@prod+3,f
  7416  0A18                     u5653:
  7417  0A18  084A               	movf	___flmul@b+2,w
  7418  0A19  00D0               	movwf	??___flmul
  7419  0A1A  0850               	movf	??___flmul,w
  7420  0A1B  00F2               	movwf	__Umul8_16@multiplicand
  7421  0A1C  084C               	movf	___flmul@a,w
  7422  0A1D  160A  158A  23CD  120A  158A  	fcall	__Umul8_16
  7423  0A22  0873               	movf	?__Umul8_16+1,w
  7424  0A23  1283               	bcf	3,5	;RP0=0, select bank0
  7425  0A24  1303               	bcf	3,6	;RP1=0, select bank0
  7426  0A25  00E1               	movwf	___flmul@temp+1
  7427  0A26  0872               	movf	?__Umul8_16,w
  7428  0A27  00E0               	movwf	___flmul@temp
  7429  0A28                     l3580:
  7430  0A28  0860               	movf	___flmul@temp,w
  7431  0A29  00D0               	movwf	??___flmul
  7432  0A2A  01D1               	clrf	??___flmul+1
  7433  0A2B  01D2               	clrf	??___flmul+2
  7434  0A2C  01D3               	clrf	??___flmul+3
  7435  0A2D  0850               	movf	??___flmul,w
  7436  0A2E  07D7               	addwf	___flmul@grs,f
  7437  0A2F  0851               	movf	??___flmul+1,w
  7438  0A30  1103               	clrz
  7439  0A31  1803               	skipnc
  7440  0A32  3E01               	addlw	1
  7441  0A33  1903               	skipnz
  7442  0A34  2A36               	goto	u5661
  7443  0A35  07D8               	addwf	___flmul@grs+1,f
  7444  0A36                     u5661:
  7445  0A36  0852               	movf	??___flmul+2,w
  7446  0A37  1103               	clrz
  7447  0A38  1803               	skipnc
  7448  0A39  3E01               	addlw	1
  7449  0A3A  1903               	skipnz
  7450  0A3B  2A3D               	goto	u5662
  7451  0A3C  07D9               	addwf	___flmul@grs+2,f
  7452  0A3D                     u5662:
  7453  0A3D  0853               	movf	??___flmul+3,w
  7454  0A3E  1103               	clrz
  7455  0A3F  1803               	skipnc
  7456  0A40  3E01               	addlw	1
  7457  0A41  1903               	skipnz
  7458  0A42  2A44               	goto	u5663
  7459  0A43  07DA               	addwf	___flmul@grs+3,f
  7460  0A44                     u5663:
  7461  0A44                     l3582:
  7462  0A44  0861               	movf	___flmul@temp+1,w
  7463  0A45  00D0               	movwf	??___flmul
  7464  0A46  01D1               	clrf	??___flmul+1
  7465  0A47  01D2               	clrf	??___flmul+2
  7466  0A48  01D3               	clrf	??___flmul+3
  7467  0A49  0850               	movf	??___flmul,w
  7468  0A4A  07DC               	addwf	___flmul@prod,f
  7469  0A4B  0851               	movf	??___flmul+1,w
  7470  0A4C  1103               	clrz
  7471  0A4D  1803               	skipnc
  7472  0A4E  3E01               	addlw	1
  7473  0A4F  1903               	skipnz
  7474  0A50  2A52               	goto	u5671
  7475  0A51  07DD               	addwf	___flmul@prod+1,f
  7476  0A52                     u5671:
  7477  0A52  0852               	movf	??___flmul+2,w
  7478  0A53  1103               	clrz
  7479  0A54  1803               	skipnc
  7480  0A55  3E01               	addlw	1
  7481  0A56  1903               	skipnz
  7482  0A57  2A59               	goto	u5672
  7483  0A58  07DE               	addwf	___flmul@prod+2,f
  7484  0A59                     u5672:
  7485  0A59  0853               	movf	??___flmul+3,w
  7486  0A5A  1103               	clrz
  7487  0A5B  1803               	skipnc
  7488  0A5C  3E01               	addlw	1
  7489  0A5D  1903               	skipnz
  7490  0A5E  2A60               	goto	u5673
  7491  0A5F  07DF               	addwf	___flmul@prod+3,f
  7492  0A60                     u5673:
  7493  0A60                     l3584:
  7494  0A60  3008               	movlw	8
  7495  0A61  00D0               	movwf	??___flmul
  7496  0A62                     u5685:
  7497  0A62  1003               	clrc
  7498  0A63  0DD7               	rlf	___flmul@grs,f
  7499  0A64  0DD8               	rlf	___flmul@grs+1,f
  7500  0A65  0DD9               	rlf	___flmul@grs+2,f
  7501  0A66  0DDA               	rlf	___flmul@grs+3,f
  7502  0A67  0BD0               	decfsz	??___flmul,f
  7503  0A68  2A62               	goto	u5685
  7504  0A69                     l3586:
  7505  0A69  0849               	movf	___flmul@b+1,w
  7506  0A6A  00D0               	movwf	??___flmul
  7507  0A6B  0850               	movf	??___flmul,w
  7508  0A6C  00F2               	movwf	__Umul8_16@multiplicand
  7509  0A6D  084C               	movf	___flmul@a,w
  7510  0A6E  160A  158A  23CD  120A  158A  	fcall	__Umul8_16
  7511  0A73  0873               	movf	?__Umul8_16+1,w
  7512  0A74  1283               	bcf	3,5	;RP0=0, select bank0
  7513  0A75  1303               	bcf	3,6	;RP1=0, select bank0
  7514  0A76  00E1               	movwf	___flmul@temp+1
  7515  0A77  0872               	movf	?__Umul8_16,w
  7516  0A78  00E0               	movwf	___flmul@temp
  7517  0A79                     l3588:
  7518  0A79  0860               	movf	___flmul@temp,w
  7519  0A7A  00D0               	movwf	??___flmul
  7520  0A7B  0861               	movf	___flmul@temp+1,w
  7521  0A7C  00D1               	movwf	??___flmul+1
  7522  0A7D  01D2               	clrf	??___flmul+2
  7523  0A7E  01D3               	clrf	??___flmul+3
  7524  0A7F  0850               	movf	??___flmul,w
  7525  0A80  07D7               	addwf	___flmul@grs,f
  7526  0A81  0851               	movf	??___flmul+1,w
  7527  0A82  1103               	clrz
  7528  0A83  1803               	skipnc
  7529  0A84  3E01               	addlw	1
  7530  0A85  1903               	skipnz
  7531  0A86  2A88               	goto	u5691
  7532  0A87  07D8               	addwf	___flmul@grs+1,f
  7533  0A88                     u5691:
  7534  0A88  0852               	movf	??___flmul+2,w
  7535  0A89  1103               	clrz
  7536  0A8A  1803               	skipnc
  7537  0A8B  3E01               	addlw	1
  7538  0A8C  1903               	skipnz
  7539  0A8D  2A8F               	goto	u5692
  7540  0A8E  07D9               	addwf	___flmul@grs+2,f
  7541  0A8F                     u5692:
  7542  0A8F  0853               	movf	??___flmul+3,w
  7543  0A90  1103               	clrz
  7544  0A91  1803               	skipnc
  7545  0A92  3E01               	addlw	1
  7546  0A93  1903               	skipnz
  7547  0A94  2A96               	goto	u5693
  7548  0A95  07DA               	addwf	___flmul@grs+3,f
  7549  0A96                     u5693:
  7550  0A96                     l3590:
  7551  0A96  0848               	movf	___flmul@b,w
  7552  0A97  00D0               	movwf	??___flmul
  7553  0A98  0850               	movf	??___flmul,w
  7554  0A99  00F2               	movwf	__Umul8_16@multiplicand
  7555  0A9A  084D               	movf	___flmul@a+1,w
  7556  0A9B  160A  158A  23CD  120A  158A  	fcall	__Umul8_16
  7557  0AA0  0873               	movf	?__Umul8_16+1,w
  7558  0AA1  1283               	bcf	3,5	;RP0=0, select bank0
  7559  0AA2  1303               	bcf	3,6	;RP1=0, select bank0
  7560  0AA3  00E1               	movwf	___flmul@temp+1
  7561  0AA4  0872               	movf	?__Umul8_16,w
  7562  0AA5  00E0               	movwf	___flmul@temp
  7563  0AA6                     l3592:
  7564  0AA6  0860               	movf	___flmul@temp,w
  7565  0AA7  00D0               	movwf	??___flmul
  7566  0AA8  0861               	movf	___flmul@temp+1,w
  7567  0AA9  00D1               	movwf	??___flmul+1
  7568  0AAA  01D2               	clrf	??___flmul+2
  7569  0AAB  01D3               	clrf	??___flmul+3
  7570  0AAC  0850               	movf	??___flmul,w
  7571  0AAD  07D7               	addwf	___flmul@grs,f
  7572  0AAE  0851               	movf	??___flmul+1,w
  7573  0AAF  1103               	clrz
  7574  0AB0  1803               	skipnc
  7575  0AB1  3E01               	addlw	1
  7576  0AB2  1903               	skipnz
  7577  0AB3  2AB5               	goto	u5701
  7578  0AB4  07D8               	addwf	___flmul@grs+1,f
  7579  0AB5                     u5701:
  7580  0AB5  0852               	movf	??___flmul+2,w
  7581  0AB6  1103               	clrz
  7582  0AB7  1803               	skipnc
  7583  0AB8  3E01               	addlw	1
  7584  0AB9  1903               	skipnz
  7585  0ABA  2ABC               	goto	u5702
  7586  0ABB  07D9               	addwf	___flmul@grs+2,f
  7587  0ABC                     u5702:
  7588  0ABC  0853               	movf	??___flmul+3,w
  7589  0ABD  1103               	clrz
  7590  0ABE  1803               	skipnc
  7591  0ABF  3E01               	addlw	1
  7592  0AC0  1903               	skipnz
  7593  0AC1  2AC3               	goto	u5703
  7594  0AC2  07DA               	addwf	___flmul@grs+3,f
  7595  0AC3                     u5703:
  7596  0AC3                     l3594:
  7597  0AC3  3008               	movlw	8
  7598  0AC4  00D0               	movwf	??___flmul
  7599  0AC5                     u5715:
  7600  0AC5  1003               	clrc
  7601  0AC6  0DD7               	rlf	___flmul@grs,f
  7602  0AC7  0DD8               	rlf	___flmul@grs+1,f
  7603  0AC8  0DD9               	rlf	___flmul@grs+2,f
  7604  0AC9  0DDA               	rlf	___flmul@grs+3,f
  7605  0ACA  0BD0               	decfsz	??___flmul,f
  7606  0ACB  2AC5               	goto	u5715
  7607  0ACC  0848               	movf	___flmul@b,w
  7608  0ACD  00D0               	movwf	??___flmul
  7609  0ACE  0850               	movf	??___flmul,w
  7610  0ACF  00F2               	movwf	__Umul8_16@multiplicand
  7611  0AD0  084C               	movf	___flmul@a,w
  7612  0AD1  160A  158A  23CD  120A  158A  	fcall	__Umul8_16
  7613  0AD6  0873               	movf	?__Umul8_16+1,w
  7614  0AD7  1283               	bcf	3,5	;RP0=0, select bank0
  7615  0AD8  1303               	bcf	3,6	;RP1=0, select bank0
  7616  0AD9  00E1               	movwf	___flmul@temp+1
  7617  0ADA  0872               	movf	?__Umul8_16,w
  7618  0ADB  00E0               	movwf	___flmul@temp
  7619  0ADC                     l3596:
  7620  0ADC  0860               	movf	___flmul@temp,w
  7621  0ADD  00D0               	movwf	??___flmul
  7622  0ADE  0861               	movf	___flmul@temp+1,w
  7623  0ADF  00D1               	movwf	??___flmul+1
  7624  0AE0  01D2               	clrf	??___flmul+2
  7625  0AE1  01D3               	clrf	??___flmul+3
  7626  0AE2  0850               	movf	??___flmul,w
  7627  0AE3  07D7               	addwf	___flmul@grs,f
  7628  0AE4  0851               	movf	??___flmul+1,w
  7629  0AE5  1103               	clrz
  7630  0AE6  1803               	skipnc
  7631  0AE7  3E01               	addlw	1
  7632  0AE8  1903               	skipnz
  7633  0AE9  2AEB               	goto	u5721
  7634  0AEA  07D8               	addwf	___flmul@grs+1,f
  7635  0AEB                     u5721:
  7636  0AEB  0852               	movf	??___flmul+2,w
  7637  0AEC  1103               	clrz
  7638  0AED  1803               	skipnc
  7639  0AEE  3E01               	addlw	1
  7640  0AEF  1903               	skipnz
  7641  0AF0  2AF2               	goto	u5722
  7642  0AF1  07D9               	addwf	___flmul@grs+2,f
  7643  0AF2                     u5722:
  7644  0AF2  0853               	movf	??___flmul+3,w
  7645  0AF3  1103               	clrz
  7646  0AF4  1803               	skipnc
  7647  0AF5  3E01               	addlw	1
  7648  0AF6  1903               	skipnz
  7649  0AF7  2AF9               	goto	u5723
  7650  0AF8  07DA               	addwf	___flmul@grs+3,f
  7651  0AF9                     u5723:
  7652  0AF9                     l3598:
  7653  0AF9  0849               	movf	___flmul@b+1,w
  7654  0AFA  00D0               	movwf	??___flmul
  7655  0AFB  0850               	movf	??___flmul,w
  7656  0AFC  00F2               	movwf	__Umul8_16@multiplicand
  7657  0AFD  084E               	movf	___flmul@a+2,w
  7658  0AFE  160A  158A  23CD  120A  158A  	fcall	__Umul8_16
  7659  0B03  0873               	movf	?__Umul8_16+1,w
  7660  0B04  1283               	bcf	3,5	;RP0=0, select bank0
  7661  0B05  1303               	bcf	3,6	;RP1=0, select bank0
  7662  0B06  00E1               	movwf	___flmul@temp+1
  7663  0B07  0872               	movf	?__Umul8_16,w
  7664  0B08  00E0               	movwf	___flmul@temp
  7665  0B09  0860               	movf	___flmul@temp,w
  7666  0B0A  00D0               	movwf	??___flmul
  7667  0B0B  0861               	movf	___flmul@temp+1,w
  7668  0B0C  00D1               	movwf	??___flmul+1
  7669  0B0D  01D2               	clrf	??___flmul+2
  7670  0B0E  01D3               	clrf	??___flmul+3
  7671  0B0F  0850               	movf	??___flmul,w
  7672  0B10  07DC               	addwf	___flmul@prod,f
  7673  0B11  0851               	movf	??___flmul+1,w
  7674  0B12  1103               	clrz
  7675  0B13  1803               	skipnc
  7676  0B14  3E01               	addlw	1
  7677  0B15  1903               	skipnz
  7678  0B16  2B18               	goto	u5731
  7679  0B17  07DD               	addwf	___flmul@prod+1,f
  7680  0B18                     u5731:
  7681  0B18  0852               	movf	??___flmul+2,w
  7682  0B19  1103               	clrz
  7683  0B1A  1803               	skipnc
  7684  0B1B  3E01               	addlw	1
  7685  0B1C  1903               	skipnz
  7686  0B1D  2B1F               	goto	u5732
  7687  0B1E  07DE               	addwf	___flmul@prod+2,f
  7688  0B1F                     u5732:
  7689  0B1F  0853               	movf	??___flmul+3,w
  7690  0B20  1103               	clrz
  7691  0B21  1803               	skipnc
  7692  0B22  3E01               	addlw	1
  7693  0B23  1903               	skipnz
  7694  0B24  2B26               	goto	u5733
  7695  0B25  07DF               	addwf	___flmul@prod+3,f
  7696  0B26                     u5733:
  7697  0B26                     l3600:
  7698  0B26  084A               	movf	___flmul@b+2,w
  7699  0B27  00D0               	movwf	??___flmul
  7700  0B28  0850               	movf	??___flmul,w
  7701  0B29  00F2               	movwf	__Umul8_16@multiplicand
  7702  0B2A  084D               	movf	___flmul@a+1,w
  7703  0B2B  160A  158A  23CD  120A  158A  	fcall	__Umul8_16
  7704  0B30  0873               	movf	?__Umul8_16+1,w
  7705  0B31  1283               	bcf	3,5	;RP0=0, select bank0
  7706  0B32  1303               	bcf	3,6	;RP1=0, select bank0
  7707  0B33  00E1               	movwf	___flmul@temp+1
  7708  0B34  0872               	movf	?__Umul8_16,w
  7709  0B35  00E0               	movwf	___flmul@temp
  7710  0B36                     l3602:
  7711  0B36  0860               	movf	___flmul@temp,w
  7712  0B37  00D0               	movwf	??___flmul
  7713  0B38  0861               	movf	___flmul@temp+1,w
  7714  0B39  00D1               	movwf	??___flmul+1
  7715  0B3A  01D2               	clrf	??___flmul+2
  7716  0B3B  01D3               	clrf	??___flmul+3
  7717  0B3C  0850               	movf	??___flmul,w
  7718  0B3D  07DC               	addwf	___flmul@prod,f
  7719  0B3E  0851               	movf	??___flmul+1,w
  7720  0B3F  1103               	clrz
  7721  0B40  1803               	skipnc
  7722  0B41  3E01               	addlw	1
  7723  0B42  1903               	skipnz
  7724  0B43  2B45               	goto	u5741
  7725  0B44  07DD               	addwf	___flmul@prod+1,f
  7726  0B45                     u5741:
  7727  0B45  0852               	movf	??___flmul+2,w
  7728  0B46  1103               	clrz
  7729  0B47  1803               	skipnc
  7730  0B48  3E01               	addlw	1
  7731  0B49  1903               	skipnz
  7732  0B4A  2B4C               	goto	u5742
  7733  0B4B  07DE               	addwf	___flmul@prod+2,f
  7734  0B4C                     u5742:
  7735  0B4C  0853               	movf	??___flmul+3,w
  7736  0B4D  1103               	clrz
  7737  0B4E  1803               	skipnc
  7738  0B4F  3E01               	addlw	1
  7739  0B50  1903               	skipnz
  7740  0B51  2B53               	goto	u5743
  7741  0B52  07DF               	addwf	___flmul@prod+3,f
  7742  0B53                     u5743:
  7743  0B53  084A               	movf	___flmul@b+2,w
  7744  0B54  00D0               	movwf	??___flmul
  7745  0B55  0850               	movf	??___flmul,w
  7746  0B56  00F2               	movwf	__Umul8_16@multiplicand
  7747  0B57  084E               	movf	___flmul@a+2,w
  7748  0B58  160A  158A  23CD  120A  158A  	fcall	__Umul8_16
  7749  0B5D  0873               	movf	?__Umul8_16+1,w
  7750  0B5E  1283               	bcf	3,5	;RP0=0, select bank0
  7751  0B5F  1303               	bcf	3,6	;RP1=0, select bank0
  7752  0B60  00E1               	movwf	___flmul@temp+1
  7753  0B61  0872               	movf	?__Umul8_16,w
  7754  0B62  00E0               	movwf	___flmul@temp
  7755  0B63                     l3604:
  7756  0B63  0860               	movf	___flmul@temp,w
  7757  0B64  00D0               	movwf	??___flmul
  7758  0B65  0861               	movf	___flmul@temp+1,w
  7759  0B66  00D1               	movwf	??___flmul+1
  7760  0B67  01D2               	clrf	??___flmul+2
  7761  0B68  01D3               	clrf	??___flmul+3
  7762  0B69  3008               	movlw	8
  7763  0B6A                     u5755:
  7764  0B6A  1003               	clrc
  7765  0B6B  0DD0               	rlf	??___flmul,f
  7766  0B6C  0DD1               	rlf	??___flmul+1,f
  7767  0B6D  0DD2               	rlf	??___flmul+2,f
  7768  0B6E  0DD3               	rlf	??___flmul+3,f
  7769  0B6F                     u5750:
  7770  0B6F  3EFF               	addlw	-1
  7771  0B70  1D03               	skipz
  7772  0B71  2B6A               	goto	u5755
  7773  0B72  0850               	movf	??___flmul,w
  7774  0B73  07DC               	addwf	___flmul@prod,f
  7775  0B74  0851               	movf	??___flmul+1,w
  7776  0B75  1103               	clrz
  7777  0B76  1803               	skipnc
  7778  0B77  3E01               	addlw	1
  7779  0B78  1903               	skipnz
  7780  0B79  2B7B               	goto	u5761
  7781  0B7A  07DD               	addwf	___flmul@prod+1,f
  7782  0B7B                     u5761:
  7783  0B7B  0852               	movf	??___flmul+2,w
  7784  0B7C  1103               	clrz
  7785  0B7D  1803               	skipnc
  7786  0B7E  3E01               	addlw	1
  7787  0B7F  1903               	skipnz
  7788  0B80  2B82               	goto	u5762
  7789  0B81  07DE               	addwf	___flmul@prod+2,f
  7790  0B82                     u5762:
  7791  0B82  0853               	movf	??___flmul+3,w
  7792  0B83  1103               	clrz
  7793  0B84  1803               	skipnc
  7794  0B85  3E01               	addlw	1
  7795  0B86  1903               	skipnz
  7796  0B87  2B89               	goto	u5763
  7797  0B88  07DF               	addwf	___flmul@prod+3,f
  7798  0B89                     u5763:
  7799  0B89                     l3606:
  7800  0B89  0857               	movf	___flmul@grs,w
  7801  0B8A  00D0               	movwf	??___flmul
  7802  0B8B  0858               	movf	___flmul@grs+1,w
  7803  0B8C  00D1               	movwf	??___flmul+1
  7804  0B8D  0859               	movf	___flmul@grs+2,w
  7805  0B8E  00D2               	movwf	??___flmul+2
  7806  0B8F  085A               	movf	___flmul@grs+3,w
  7807  0B90  00D3               	movwf	??___flmul+3
  7808  0B91  3018               	movlw	24
  7809  0B92                     u5775:
  7810  0B92  1003               	clrc
  7811  0B93  0CD3               	rrf	??___flmul+3,f
  7812  0B94  0CD2               	rrf	??___flmul+2,f
  7813  0B95  0CD1               	rrf	??___flmul+1,f
  7814  0B96  0CD0               	rrf	??___flmul,f
  7815  0B97                     u5770:
  7816  0B97  3EFF               	addlw	-1
  7817  0B98  1D03               	skipz
  7818  0B99  2B92               	goto	u5775
  7819  0B9A  0850               	movf	??___flmul,w
  7820  0B9B  07DC               	addwf	___flmul@prod,f
  7821  0B9C  0851               	movf	??___flmul+1,w
  7822  0B9D  1103               	clrz
  7823  0B9E  1803               	skipnc
  7824  0B9F  3E01               	addlw	1
  7825  0BA0  1903               	skipnz
  7826  0BA1  2BA3               	goto	u5781
  7827  0BA2  07DD               	addwf	___flmul@prod+1,f
  7828  0BA3                     u5781:
  7829  0BA3  0852               	movf	??___flmul+2,w
  7830  0BA4  1103               	clrz
  7831  0BA5  1803               	skipnc
  7832  0BA6  3E01               	addlw	1
  7833  0BA7  1903               	skipnz
  7834  0BA8  2BAA               	goto	u5782
  7835  0BA9  07DE               	addwf	___flmul@prod+2,f
  7836  0BAA                     u5782:
  7837  0BAA  0853               	movf	??___flmul+3,w
  7838  0BAB  1103               	clrz
  7839  0BAC  1803               	skipnc
  7840  0BAD  3E01               	addlw	1
  7841  0BAE  1903               	skipnz
  7842  0BAF  2BB1               	goto	u5783
  7843  0BB0  07DF               	addwf	___flmul@prod+3,f
  7844  0BB1                     u5783:
  7845  0BB1                     l3608:
  7846  0BB1  3008               	movlw	8
  7847  0BB2  00D0               	movwf	??___flmul
  7848  0BB3                     u5795:
  7849  0BB3  1003               	clrc
  7850  0BB4  0DD7               	rlf	___flmul@grs,f
  7851  0BB5  0DD8               	rlf	___flmul@grs+1,f
  7852  0BB6  0DD9               	rlf	___flmul@grs+2,f
  7853  0BB7  0DDA               	rlf	___flmul@grs+3,f
  7854  0BB8  0BD0               	decfsz	??___flmul,f
  7855  0BB9  2BB3               	goto	u5795
  7856  0BBA                     l3610:
  7857  0BBA  085B               	movf	___flmul@bexp,w
  7858  0BBB  0756               	addwf	___flmul@aexp,w
  7859  0BBC  00D0               	movwf	??___flmul
  7860  0BBD  01D1               	clrf	??___flmul+1
  7861  0BBE  0DD1               	rlf	??___flmul+1,f
  7862  0BBF  0850               	movf	??___flmul,w
  7863  0BC0  3E82               	addlw	130
  7864  0BC1  00E0               	movwf	___flmul@temp
  7865  0BC2  0851               	movf	??___flmul+1,w
  7866  0BC3  1803               	skipnc
  7867  0BC4  3E01               	addlw	1
  7868  0BC5  3EFF               	addlw	255
  7869  0BC6  00E1               	movwf	___flmul@temp+1
  7870  0BC7  2BE5               	goto	l3622
  7871  0BC8                     l3612:
  7872  0BC8  3001               	movlw	1
  7873  0BC9  00D0               	movwf	??___flmul
  7874  0BCA                     u5805:
  7875  0BCA  1003               	clrc
  7876  0BCB  0DDC               	rlf	___flmul@prod,f
  7877  0BCC  0DDD               	rlf	___flmul@prod+1,f
  7878  0BCD  0DDE               	rlf	___flmul@prod+2,f
  7879  0BCE  0DDF               	rlf	___flmul@prod+3,f
  7880  0BCF  0BD0               	decfsz	??___flmul,f
  7881  0BD0  2BCA               	goto	u5805
  7882  0BD1                     l3614:
  7883  0BD1  1FDA               	btfss	___flmul@grs+3,7
  7884  0BD2  2BD4               	goto	u5811
  7885  0BD3  2BD5               	goto	u5810
  7886  0BD4                     u5811:
  7887  0BD4  2BD6               	goto	l3618
  7888  0BD5                     u5810:
  7889  0BD5                     l3616:
  7890  0BD5  145C               	bsf	___flmul@prod,0
  7891  0BD6                     l3618:
  7892  0BD6  3001               	movlw	1
  7893  0BD7  00D0               	movwf	??___flmul
  7894  0BD8                     u5825:
  7895  0BD8  1003               	clrc
  7896  0BD9  0DD7               	rlf	___flmul@grs,f
  7897  0BDA  0DD8               	rlf	___flmul@grs+1,f
  7898  0BDB  0DD9               	rlf	___flmul@grs+2,f
  7899  0BDC  0DDA               	rlf	___flmul@grs+3,f
  7900  0BDD  0BD0               	decfsz	??___flmul,f
  7901  0BDE  2BD8               	goto	u5825
  7902  0BDF                     l3620:
  7903  0BDF  30FF               	movlw	255
  7904  0BE0  07E0               	addwf	___flmul@temp,f
  7905  0BE1  1803               	skipnc
  7906  0BE2  0AE1               	incf	___flmul@temp+1,f
  7907  0BE3  30FF               	movlw	255
  7908  0BE4  07E1               	addwf	___flmul@temp+1,f
  7909  0BE5                     l3622:
  7910  0BE5  1FDE               	btfss	___flmul@prod+2,7
  7911  0BE6  2BE8               	goto	u5831
  7912  0BE7  2BE9               	goto	u5830
  7913  0BE8                     u5831:
  7914  0BE8  2BC8               	goto	l3612
  7915  0BE9                     u5830:
  7916  0BE9                     l3624:
  7917  0BE9  01D6               	clrf	___flmul@aexp
  7918  0BEA                     l3626:
  7919  0BEA  1FDA               	btfss	___flmul@grs+3,7
  7920  0BEB  2BED               	goto	u5841
  7921  0BEC  2BEE               	goto	u5840
  7922  0BED                     u5841:
  7923  0BED  2C0A               	goto	l3634
  7924  0BEE                     u5840:
  7925  0BEE                     l3628:
  7926  0BEE  30FF               	movlw	255
  7927  0BEF  0557               	andwf	___flmul@grs,w
  7928  0BF0  00D0               	movwf	??___flmul
  7929  0BF1  30FF               	movlw	255
  7930  0BF2  0558               	andwf	___flmul@grs+1,w
  7931  0BF3  00D1               	movwf	??___flmul+1
  7932  0BF4  30FF               	movlw	255
  7933  0BF5  0559               	andwf	___flmul@grs+2,w
  7934  0BF6  00D2               	movwf	??___flmul+2
  7935  0BF7  307F               	movlw	127
  7936  0BF8  055A               	andwf	___flmul@grs+3,w
  7937  0BF9  00D3               	movwf	??___flmul+3
  7938  0BFA  0853               	movf	??___flmul+3,w
  7939  0BFB  0452               	iorwf	??___flmul+2,w
  7940  0BFC  0451               	iorwf	??___flmul+1,w
  7941  0BFD  0450               	iorwf	??___flmul,w
  7942  0BFE  1903               	skipnz
  7943  0BFF  2C01               	goto	u5851
  7944  0C00  2C02               	goto	u5850
  7945  0C01                     u5851:
  7946  0C01  2C05               	goto	l743
  7947  0C02                     u5850:
  7948  0C02                     l3630:
  7949  0C02  01D6               	clrf	___flmul@aexp
  7950  0C03  0AD6               	incf	___flmul@aexp,f
  7951  0C04  2C0A               	goto	l3634
  7952  0C05                     l743:
  7953  0C05  1C5C               	btfss	___flmul@prod,0
  7954  0C06  2C08               	goto	u5861
  7955  0C07  2C09               	goto	u5860
  7956  0C08                     u5861:
  7957  0C08  2C0A               	goto	l3634
  7958  0C09                     u5860:
  7959  0C09  2C02               	goto	l3630
  7960  0C0A                     l3634:
  7961  0C0A  0856               	movf	___flmul@aexp,w
  7962  0C0B  1903               	btfsc	3,2
  7963  0C0C  2C0E               	goto	u5871
  7964  0C0D  2C0F               	goto	u5870
  7965  0C0E                     u5871:
  7966  0C0E  2C40               	goto	l3644
  7967  0C0F                     u5870:
  7968  0C0F                     l3636:
  7969  0C0F  3001               	movlw	1
  7970  0C10  07DC               	addwf	___flmul@prod,f
  7971  0C11  3000               	movlw	0
  7972  0C12  1803               	skipnc
  7973  0C13  3001               	movlw	1
  7974  0C14  07DD               	addwf	___flmul@prod+1,f
  7975  0C15  3000               	movlw	0
  7976  0C16  1803               	skipnc
  7977  0C17  3001               	movlw	1
  7978  0C18  07DE               	addwf	___flmul@prod+2,f
  7979  0C19  3000               	movlw	0
  7980  0C1A  1803               	skipnc
  7981  0C1B  3001               	movlw	1
  7982  0C1C  07DF               	addwf	___flmul@prod+3,f
  7983  0C1D                     l3638:
  7984  0C1D  1C5F               	btfss	___flmul@prod+3,0
  7985  0C1E  2C20               	goto	u5881
  7986  0C1F  2C21               	goto	u5880
  7987  0C20                     u5881:
  7988  0C20  2C40               	goto	l3644
  7989  0C21                     u5880:
  7990  0C21                     l3640:
  7991  0C21  085C               	movf	___flmul@prod,w
  7992  0C22  00D0               	movwf	??___flmul
  7993  0C23  085D               	movf	___flmul@prod+1,w
  7994  0C24  00D1               	movwf	??___flmul+1
  7995  0C25  085E               	movf	___flmul@prod+2,w
  7996  0C26  00D2               	movwf	??___flmul+2
  7997  0C27  085F               	movf	___flmul@prod+3,w
  7998  0C28  00D3               	movwf	??___flmul+3
  7999  0C29  3001               	movlw	1
  8000  0C2A  00D4               	movwf	??___flmul+4
  8001  0C2B                     u5895:
  8002  0C2B  0D53               	rlf	??___flmul+3,w
  8003  0C2C  0CD3               	rrf	??___flmul+3,f
  8004  0C2D  0CD2               	rrf	??___flmul+2,f
  8005  0C2E  0CD1               	rrf	??___flmul+1,f
  8006  0C2F  0CD0               	rrf	??___flmul,f
  8007  0C30                     u5890:
  8008  0C30  0BD4               	decfsz	??___flmul+4,f
  8009  0C31  2C2B               	goto	u5895
  8010  0C32  0853               	movf	??___flmul+3,w
  8011  0C33  00DF               	movwf	___flmul@prod+3
  8012  0C34  0852               	movf	??___flmul+2,w
  8013  0C35  00DE               	movwf	___flmul@prod+2
  8014  0C36  0851               	movf	??___flmul+1,w
  8015  0C37  00DD               	movwf	___flmul@prod+1
  8016  0C38  0850               	movf	??___flmul,w
  8017  0C39  00DC               	movwf	___flmul@prod
  8018  0C3A                     l3642:
  8019  0C3A  3001               	movlw	1
  8020  0C3B  07E0               	addwf	___flmul@temp,f
  8021  0C3C  1803               	skipnc
  8022  0C3D  0AE1               	incf	___flmul@temp+1,f
  8023  0C3E  3000               	movlw	0
  8024  0C3F  07E1               	addwf	___flmul@temp+1,f
  8025  0C40                     l3644:
  8026  0C40  0861               	movf	___flmul@temp+1,w
  8027  0C41  3A80               	xorlw	128
  8028  0C42  00FF               	movwf	btemp+1
  8029  0C43  3080               	movlw	128
  8030  0C44  027F               	subwf	btemp+1,w
  8031  0C45  1D03               	skipz
  8032  0C46  2C49               	goto	u5905
  8033  0C47  30FF               	movlw	255
  8034  0C48  0260               	subwf	___flmul@temp,w
  8035  0C49                     u5905:
  8036  0C49  1C03               	skipc
  8037  0C4A  2C4C               	goto	u5901
  8038  0C4B  2C4D               	goto	u5900
  8039  0C4C                     u5901:
  8040  0C4C  2C58               	goto	l3648
  8041  0C4D                     u5900:
  8042  0C4D                     l3646:
  8043  0C4D  307F               	movlw	127
  8044  0C4E  1283               	bcf	3,5	;RP0=0, select bank0
  8045  0C4F  1303               	bcf	3,6	;RP1=0, select bank0
  8046  0C50  00DF               	movwf	___flmul@prod+3
  8047  0C51  3080               	movlw	128
  8048  0C52  00DE               	movwf	___flmul@prod+2
  8049  0C53  3000               	movlw	0
  8050  0C54  00DD               	movwf	___flmul@prod+1
  8051  0C55  3000               	movlw	0
  8052  0C56  00DC               	movwf	___flmul@prod
  8053  0C57  2C8D               	goto	l749
  8054  0C58                     l3648:
  8055  0C58  1283               	bcf	3,5	;RP0=0, select bank0
  8056  0C59  1303               	bcf	3,6	;RP1=0, select bank0
  8057  0C5A  0861               	movf	___flmul@temp+1,w
  8058  0C5B  3A80               	xorlw	128
  8059  0C5C  00FF               	movwf	btemp+1
  8060  0C5D  3080               	movlw	128
  8061  0C5E  027F               	subwf	btemp+1,w
  8062  0C5F  1D03               	skipz
  8063  0C60  2C63               	goto	u5915
  8064  0C61  3001               	movlw	1
  8065  0C62  0260               	subwf	___flmul@temp,w
  8066  0C63                     u5915:
  8067  0C63  1803               	skipnc
  8068  0C64  2C66               	goto	u5911
  8069  0C65  2C67               	goto	u5910
  8070  0C66                     u5911:
  8071  0C66  2C73               	goto	l3654
  8072  0C67                     u5910:
  8073  0C67                     l3650:
  8074  0C67  3000               	movlw	0
  8075  0C68  1283               	bcf	3,5	;RP0=0, select bank0
  8076  0C69  1303               	bcf	3,6	;RP1=0, select bank0
  8077  0C6A  00DF               	movwf	___flmul@prod+3
  8078  0C6B  3000               	movlw	0
  8079  0C6C  00DE               	movwf	___flmul@prod+2
  8080  0C6D  3000               	movlw	0
  8081  0C6E  00DD               	movwf	___flmul@prod+1
  8082  0C6F  3000               	movlw	0
  8083  0C70  00DC               	movwf	___flmul@prod
  8084  0C71                     l3652:
  8085  0C71  01D5               	clrf	___flmul@sign
  8086  0C72  2C8D               	goto	l749
  8087  0C73                     l3654:
  8088  0C73  1283               	bcf	3,5	;RP0=0, select bank0
  8089  0C74  1303               	bcf	3,6	;RP1=0, select bank0
  8090  0C75  0860               	movf	___flmul@temp,w
  8091  0C76  00D0               	movwf	??___flmul
  8092  0C77  0850               	movf	??___flmul,w
  8093  0C78  00DB               	movwf	___flmul@bexp
  8094  0C79  30FF               	movlw	255
  8095  0C7A  05DC               	andwf	___flmul@prod,f
  8096  0C7B  30FF               	movlw	255
  8097  0C7C  05DD               	andwf	___flmul@prod+1,f
  8098  0C7D  307F               	movlw	127
  8099  0C7E  05DE               	andwf	___flmul@prod+2,f
  8100  0C7F  3000               	movlw	0
  8101  0C80  05DF               	andwf	___flmul@prod+3,f
  8102  0C81                     l3656:
  8103  0C81  1C5B               	btfss	___flmul@bexp,0
  8104  0C82  2C84               	goto	u5921
  8105  0C83  2C85               	goto	u5920
  8106  0C84                     u5921:
  8107  0C84  2C86               	goto	l3660
  8108  0C85                     u5920:
  8109  0C85                     l3658:
  8110  0C85  17DE               	bsf	___flmul@prod+2,7
  8111  0C86                     l3660:
  8112  0C86  085B               	movf	___flmul@bexp,w
  8113  0C87  00D0               	movwf	??___flmul
  8114  0C88  1003               	clrc
  8115  0C89  0C50               	rrf	??___flmul,w
  8116  0C8A  00D1               	movwf	??___flmul+1
  8117  0C8B  0851               	movf	??___flmul+1,w
  8118  0C8C  00DF               	movwf	___flmul@prod+3
  8119  0C8D                     l749:
  8120  0C8D  0855               	movf	___flmul@sign,w
  8121  0C8E  00D0               	movwf	??___flmul
  8122  0C8F  0850               	movf	??___flmul,w
  8123  0C90  04DF               	iorwf	___flmul@prod+3,f
  8124  0C91                     l3662:
  8125  0C91  085F               	movf	___flmul@prod+3,w
  8126  0C92  00CB               	movwf	?___flmul+3
  8127  0C93  085E               	movf	___flmul@prod+2,w
  8128  0C94  00CA               	movwf	?___flmul+2
  8129  0C95  085D               	movf	___flmul@prod+1,w
  8130  0C96  00C9               	movwf	?___flmul+1
  8131  0C97  085C               	movf	___flmul@prod,w
  8132  0C98  00C8               	movwf	?___flmul
  8133  0C99                     l737:
  8134  0C99  0008               	return
  8135  0C9A                     __end_of___flmul:
  8136                           
  8137                           	psect	text18
  8138  1BCD                     __ptext18:	
  8139 ;; *************** function __Umul8_16 *****************
  8140 ;; Defined at:
  8141 ;;		line 4 in file "E:\Program Files\Microchip\xc8\v2.30\pic\sources\c90\common\Umul8_16.c"
  8142 ;; Parameters:    Size  Location     Type
  8143 ;;  multiplier      1    wreg     unsigned char 
  8144 ;;  multiplicand    1    2[COMMON] unsigned char 
  8145 ;; Auto vars:     Size  Location     Type
  8146 ;;  multiplier      1    4[BANK0 ] unsigned char 
  8147 ;;  word_mpld       2    2[BANK0 ] unsigned int 
  8148 ;;  product         2    0[BANK0 ] unsigned int 
  8149 ;; Return value:  Size  Location     Type
  8150 ;;                  2    2[COMMON] unsigned int 
  8151 ;; Registers used:
  8152 ;;		wreg, status,2, status,0
  8153 ;; Tracked objects:
  8154 ;;		On entry : 0/0
  8155 ;;		On exit  : 0/0
  8156 ;;		Unchanged: 0/0
  8157 ;; Data sizes:     COMMON   BANK0   BANK1   BANK3   BANK2
  8158 ;;      Params:         2       0       0       0       0
  8159 ;;      Locals:         0       5       0       0       0
  8160 ;;      Temps:          2       0       0       0       0
  8161 ;;      Totals:         4       5       0       0       0
  8162 ;;Total ram usage:        9 bytes
  8163 ;; Hardware stack levels used:    1
  8164 ;; Hardware stack levels required when called:    1
  8165 ;; This function calls:
  8166 ;;		Nothing
  8167 ;; This function is called by:
  8168 ;;		___flmul
  8169 ;; This function uses a non-reentrant model
  8170 ;;
  8171                           
  8172                           
  8173                           ;psect for function __Umul8_16
  8174  1BCD                     __Umul8_16:
  8175                           
  8176                           ;incstack = 0
  8177                           ; Regs used in __Umul8_16: [wreg+status,2+status,0]
  8178                           ;__Umul8_16@multiplier stored from wreg
  8179  1BCD  1283               	bcf	3,5	;RP0=0, select bank0
  8180  1BCE  1303               	bcf	3,6	;RP1=0, select bank0
  8181  1BCF  00A4               	movwf	__Umul8_16@multiplier
  8182  1BD0                     l3126:
  8183  1BD0  01A0               	clrf	__Umul8_16@product
  8184  1BD1  01A1               	clrf	__Umul8_16@product+1
  8185  1BD2                     l3128:
  8186  1BD2  0872               	movf	__Umul8_16@multiplicand,w
  8187  1BD3  00F4               	movwf	??__Umul8_16
  8188  1BD4  01F5               	clrf	??__Umul8_16+1
  8189  1BD5  0874               	movf	??__Umul8_16,w
  8190  1BD6  00A2               	movwf	__Umul8_16@word_mpld
  8191  1BD7  0875               	movf	??__Umul8_16+1,w
  8192  1BD8  00A3               	movwf	__Umul8_16@word_mpld+1
  8193  1BD9                     l3130:
  8194  1BD9  1C24               	btfss	__Umul8_16@multiplier,0
  8195  1BDA  2BDC               	goto	u4631
  8196  1BDB  2BDD               	goto	u4630
  8197  1BDC                     u4631:
  8198  1BDC  2BE3               	goto	l756
  8199  1BDD                     u4630:
  8200  1BDD                     l3132:
  8201  1BDD  0822               	movf	__Umul8_16@word_mpld,w
  8202  1BDE  07A0               	addwf	__Umul8_16@product,f
  8203  1BDF  1803               	skipnc
  8204  1BE0  0AA1               	incf	__Umul8_16@product+1,f
  8205  1BE1  0823               	movf	__Umul8_16@word_mpld+1,w
  8206  1BE2  07A1               	addwf	__Umul8_16@product+1,f
  8207  1BE3                     l756:
  8208  1BE3  3001               	movlw	1
  8209  1BE4                     u4645:
  8210  1BE4  1003               	clrc
  8211  1BE5  0DA2               	rlf	__Umul8_16@word_mpld,f
  8212  1BE6  0DA3               	rlf	__Umul8_16@word_mpld+1,f
  8213  1BE7  3EFF               	addlw	-1
  8214  1BE8  1D03               	skipz
  8215  1BE9  2BE4               	goto	u4645
  8216  1BEA  1003               	clrc
  8217  1BEB  0CA4               	rrf	__Umul8_16@multiplier,f
  8218  1BEC                     l3134:
  8219  1BEC  0824               	movf	__Umul8_16@multiplier,w
  8220  1BED  1D03               	btfss	3,2
  8221  1BEE  2BF0               	goto	u4651
  8222  1BEF  2BF1               	goto	u4650
  8223  1BF0                     u4651:
  8224  1BF0  2BD9               	goto	l3130
  8225  1BF1                     u4650:
  8226  1BF1                     l3136:
  8227  1BF1  0821               	movf	__Umul8_16@product+1,w
  8228  1BF2  00F3               	movwf	?__Umul8_16+1
  8229  1BF3  0820               	movf	__Umul8_16@product,w
  8230  1BF4  00F2               	movwf	?__Umul8_16
  8231  1BF5                     l758:
  8232  1BF5  0008               	return
  8233  1BF6                     __end_of__Umul8_16:
  8234                           
  8235                           	psect	text19
  8236  12E6                     __ptext19:	
  8237 ;; *************** function ___fldiv *****************
  8238 ;; Defined at:
  8239 ;;		line 8 in file "E:\Program Files\Microchip\xc8\v2.30\pic\sources\c90\common\sprcdiv.c"
  8240 ;; Parameters:    Size  Location     Type
  8241 ;;  a               4    8[BANK1 ] unsigned int 
  8242 ;;  b               4   12[BANK1 ] unsigned int 
  8243 ;; Auto vars:     Size  Location     Type
  8244 ;;  grs             4   28[BANK1 ] unsigned long 
  8245 ;;  rem             4   21[BANK1 ] unsigned long 
  8246 ;;  new_exp         2   26[BANK1 ] int 
  8247 ;;  aexp            1   33[BANK1 ] unsigned char 
  8248 ;;  bexp            1   32[BANK1 ] unsigned char 
  8249 ;;  sign            1   25[BANK1 ] unsigned char 
  8250 ;; Return value:  Size  Location     Type
  8251 ;;                  4    8[BANK1 ] unsigned char 
  8252 ;; Registers used:
  8253 ;;		wreg, status,2, status,0, btemp+1
  8254 ;; Tracked objects:
  8255 ;;		On entry : 0/0
  8256 ;;		On exit  : 0/0
  8257 ;;		Unchanged: 0/0
  8258 ;; Data sizes:     COMMON   BANK0   BANK1   BANK3   BANK2
  8259 ;;      Params:         0       0       8       0       0
  8260 ;;      Locals:         0       0      13       0       0
  8261 ;;      Temps:          0       0       5       0       0
  8262 ;;      Totals:         0       0      26       0       0
  8263 ;;Total ram usage:       26 bytes
  8264 ;; Hardware stack levels used:    1
  8265 ;; Hardware stack levels required when called:    1
  8266 ;; This function calls:
  8267 ;;		Nothing
  8268 ;; This function is called by:
  8269 ;;		_PWM1_Duty
  8270 ;;		_PWM2_Duty
  8271 ;;		_tinh_pid
  8272 ;; This function uses a non-reentrant model
  8273 ;;
  8274                           
  8275                           
  8276                           ;psect for function ___fldiv
  8277  12E6                     ___fldiv:
  8278  12E6                     l3384:	
  8279                           ;incstack = 0
  8280                           ; Regs used in ___fldiv: [wreg+status,2+status,0+btemp+1]
  8281                           
  8282  12E6  1683               	bsf	3,5	;RP0=1, select bank1
  8283  12E7  1303               	bcf	3,6	;RP1=0, select bank1
  8284  12E8  082F               	movf	(___fldiv@b^(0+128)+3),w
  8285  12E9  3980               	andlw	128
  8286  12EA  00B0               	movwf	??___fldiv^(0+128)
  8287  12EB  0830               	movf	??___fldiv^(0+128),w
  8288  12EC  00B9               	movwf	___fldiv@sign^(0+128)
  8289  12ED                     l3386:
  8290  12ED  082F               	movf	(___fldiv@b^(0+128)+3),w
  8291  12EE  00B0               	movwf	??___fldiv^(0+128)
  8292  12EF  0730               	addwf	??___fldiv^(0+128),w
  8293  12F0  00B1               	movwf	(??___fldiv+1)^(0+128)
  8294  12F1  0831               	movf	(??___fldiv+1)^(0+128),w
  8295  12F2  00C0               	movwf	___fldiv@bexp^(0+128)
  8296  12F3                     l3388:
  8297  12F3  1FAE               	btfss	(___fldiv@b^(0+128)+2),7
  8298  12F4  2AF6               	goto	u5271
  8299  12F5  2AF7               	goto	u5270
  8300  12F6                     u5271:
  8301  12F6  2AF8               	goto	l3392
  8302  12F7                     u5270:
  8303  12F7                     l3390:
  8304  12F7  1440               	bsf	___fldiv@bexp^(0+128),0
  8305  12F8                     l3392:
  8306  12F8  0840               	movf	___fldiv@bexp^(0+128),w
  8307  12F9  1903               	btfsc	3,2
  8308  12FA  2AFC               	goto	u5281
  8309  12FB  2AFD               	goto	u5280
  8310  12FC                     u5281:
  8311  12FC  2B0D               	goto	l3402
  8312  12FD                     u5280:
  8313  12FD                     l3394:
  8314  12FD  0A40               	incf	___fldiv@bexp^(0+128),w
  8315  12FE  1D03               	btfss	3,2
  8316  12FF  2B01               	goto	u5291
  8317  1300  2B02               	goto	u5290
  8318  1301                     u5291:
  8319  1301  2B0A               	goto	l3398
  8320  1302                     u5290:
  8321  1302                     l3396:
  8322  1302  3000               	movlw	0
  8323  1303  00AF               	movwf	(___fldiv@b+3)^(0+128)
  8324  1304  3000               	movlw	0
  8325  1305  00AE               	movwf	(___fldiv@b+2)^(0+128)
  8326  1306  3000               	movlw	0
  8327  1307  00AD               	movwf	(___fldiv@b+1)^(0+128)
  8328  1308  3000               	movlw	0
  8329  1309  00AC               	movwf	___fldiv@b^(0+128)
  8330  130A                     l3398:
  8331  130A  17AE               	bsf	(___fldiv@b^(0+128)+2),7
  8332  130B                     l3400:
  8333  130B  01AF               	clrf	(___fldiv@b^(0+128)+3)
  8334  130C  2B15               	goto	l3404
  8335  130D                     l3402:
  8336  130D  3000               	movlw	0
  8337  130E  00AF               	movwf	(___fldiv@b+3)^(0+128)
  8338  130F  3000               	movlw	0
  8339  1310  00AE               	movwf	(___fldiv@b+2)^(0+128)
  8340  1311  3000               	movlw	0
  8341  1312  00AD               	movwf	(___fldiv@b+1)^(0+128)
  8342  1313  3000               	movlw	0
  8343  1314  00AC               	movwf	___fldiv@b^(0+128)
  8344  1315                     l3404:
  8345  1315  082B               	movf	(___fldiv@a^(0+128)+3),w
  8346  1316  3980               	andlw	128
  8347  1317  00B0               	movwf	??___fldiv^(0+128)
  8348  1318  0830               	movf	??___fldiv^(0+128),w
  8349  1319  06B9               	xorwf	___fldiv@sign^(0+128),f
  8350  131A                     l3406:
  8351  131A  082B               	movf	(___fldiv@a^(0+128)+3),w
  8352  131B  00B0               	movwf	??___fldiv^(0+128)
  8353  131C  0730               	addwf	??___fldiv^(0+128),w
  8354  131D  00B1               	movwf	(??___fldiv+1)^(0+128)
  8355  131E  0831               	movf	(??___fldiv+1)^(0+128),w
  8356  131F  00C1               	movwf	___fldiv@aexp^(0+128)
  8357  1320                     l3408:
  8358  1320  1FAA               	btfss	(___fldiv@a^(0+128)+2),7
  8359  1321  2B23               	goto	u5301
  8360  1322  2B24               	goto	u5300
  8361  1323                     u5301:
  8362  1323  2B25               	goto	l3412
  8363  1324                     u5300:
  8364  1324                     l3410:
  8365  1324  1441               	bsf	___fldiv@aexp^(0+128),0
  8366  1325                     l3412:
  8367  1325  0841               	movf	___fldiv@aexp^(0+128),w
  8368  1326  1903               	btfsc	3,2
  8369  1327  2B29               	goto	u5311
  8370  1328  2B2A               	goto	u5310
  8371  1329                     u5311:
  8372  1329  2B3A               	goto	l3422
  8373  132A                     u5310:
  8374  132A                     l3414:
  8375  132A  0A41               	incf	___fldiv@aexp^(0+128),w
  8376  132B  1D03               	btfss	3,2
  8377  132C  2B2E               	goto	u5321
  8378  132D  2B2F               	goto	u5320
  8379  132E                     u5321:
  8380  132E  2B37               	goto	l3418
  8381  132F                     u5320:
  8382  132F                     l3416:
  8383  132F  3000               	movlw	0
  8384  1330  00AB               	movwf	(___fldiv@a+3)^(0+128)
  8385  1331  3000               	movlw	0
  8386  1332  00AA               	movwf	(___fldiv@a+2)^(0+128)
  8387  1333  3000               	movlw	0
  8388  1334  00A9               	movwf	(___fldiv@a+1)^(0+128)
  8389  1335  3000               	movlw	0
  8390  1336  00A8               	movwf	___fldiv@a^(0+128)
  8391  1337                     l3418:
  8392  1337  17AA               	bsf	(___fldiv@a^(0+128)+2),7
  8393  1338                     l3420:
  8394  1338  01AB               	clrf	(___fldiv@a^(0+128)+3)
  8395  1339  2B42               	goto	l697
  8396  133A                     l3422:
  8397  133A  3000               	movlw	0
  8398  133B  00AB               	movwf	(___fldiv@a+3)^(0+128)
  8399  133C  3000               	movlw	0
  8400  133D  00AA               	movwf	(___fldiv@a+2)^(0+128)
  8401  133E  3000               	movlw	0
  8402  133F  00A9               	movwf	(___fldiv@a+1)^(0+128)
  8403  1340  3000               	movlw	0
  8404  1341  00A8               	movwf	___fldiv@a^(0+128)
  8405  1342                     l697:
  8406  1342  082B               	movf	(___fldiv@a+3)^(0+128),w
  8407  1343  042A               	iorwf	(___fldiv@a+2)^(0+128),w
  8408  1344  0429               	iorwf	(___fldiv@a+1)^(0+128),w
  8409  1345  0428               	iorwf	___fldiv@a^(0+128),w
  8410  1346  1D03               	skipz
  8411  1347  2B49               	goto	u5331
  8412  1348  2B4A               	goto	u5330
  8413  1349                     u5331:
  8414  1349  2B63               	goto	l3432
  8415  134A                     u5330:
  8416  134A                     l3424:
  8417  134A  3000               	movlw	0
  8418  134B  00AF               	movwf	(___fldiv@b+3)^(0+128)
  8419  134C  3000               	movlw	0
  8420  134D  00AE               	movwf	(___fldiv@b+2)^(0+128)
  8421  134E  3000               	movlw	0
  8422  134F  00AD               	movwf	(___fldiv@b+1)^(0+128)
  8423  1350  3000               	movlw	0
  8424  1351  00AC               	movwf	___fldiv@b^(0+128)
  8425  1352  3080               	movlw	128
  8426  1353  04AE               	iorwf	(___fldiv@b^(0+128)+2),f
  8427  1354  307F               	movlw	127
  8428  1355  04AF               	iorwf	((___fldiv@b+1)^(0+128)+2),f
  8429  1356                     l3426:
  8430  1356  0839               	movf	___fldiv@sign^(0+128),w
  8431  1357  00B0               	movwf	??___fldiv^(0+128)
  8432  1358  0830               	movf	??___fldiv^(0+128),w
  8433  1359  04AF               	iorwf	(___fldiv@b^(0+128)+3),f
  8434  135A                     l3428:
  8435  135A  082F               	movf	(___fldiv@b+3)^(0+128),w
  8436  135B  00AB               	movwf	(?___fldiv+3)^(0+128)
  8437  135C  082E               	movf	(___fldiv@b+2)^(0+128),w
  8438  135D  00AA               	movwf	(?___fldiv+2)^(0+128)
  8439  135E  082D               	movf	(___fldiv@b+1)^(0+128),w
  8440  135F  00A9               	movwf	(?___fldiv+1)^(0+128)
  8441  1360  082C               	movf	___fldiv@b^(0+128),w
  8442  1361  00A8               	movwf	?___fldiv^(0+128)
  8443  1362  2CC2               	goto	l699
  8444  1363                     l3432:
  8445  1363  0840               	movf	___fldiv@bexp^(0+128),w
  8446  1364  1D03               	btfss	3,2
  8447  1365  2B67               	goto	u5341
  8448  1366  2B68               	goto	u5340
  8449  1367                     u5341:
  8450  1367  2B71               	goto	l3438
  8451  1368                     u5340:
  8452  1368                     l3434:
  8453  1368  3000               	movlw	0
  8454  1369  00AB               	movwf	(?___fldiv+3)^(0+128)
  8455  136A  3000               	movlw	0
  8456  136B  00AA               	movwf	(?___fldiv+2)^(0+128)
  8457  136C  3000               	movlw	0
  8458  136D  00A9               	movwf	(?___fldiv+1)^(0+128)
  8459  136E  3000               	movlw	0
  8460  136F  00A8               	movwf	?___fldiv^(0+128)
  8461  1370  2CC2               	goto	l699
  8462  1371                     l3438:
  8463  1371  0840               	movf	___fldiv@bexp^(0+128),w
  8464  1372  00B0               	movwf	??___fldiv^(0+128)
  8465  1373  01B1               	clrf	(??___fldiv^(0+128)+1)
  8466  1374  0831               	movf	(??___fldiv+1)^(0+128),w
  8467  1375  00B3               	movwf	((??___fldiv+2)^(0+128)+1)
  8468  1376  0841               	movf	___fldiv@aexp^(0+128),w
  8469  1377  0230               	subwf	??___fldiv^(0+128),w
  8470  1378  00B2               	movwf	(??___fldiv+2)^(0+128)
  8471  1379  1C03               	skipc
  8472  137A  03B3               	decf	((??___fldiv+2)^(0+128)+1),f
  8473  137B  0832               	movf	(??___fldiv+2)^(0+128),w
  8474  137C  3E7F               	addlw	127
  8475  137D  00BA               	movwf	___fldiv@new_exp^(0+128)
  8476  137E  0833               	movf	(??___fldiv+3)^(0+128),w
  8477  137F  1803               	skipnc
  8478  1380  3E01               	addlw	1
  8479  1381  3E00               	addlw	0
  8480  1382  00BB               	movwf	(___fldiv@new_exp+1)^(0+128)
  8481  1383                     l3440:
  8482  1383  082F               	movf	(___fldiv@b+3)^(0+128),w
  8483  1384  00B8               	movwf	(___fldiv@rem+3)^(0+128)
  8484  1385  082E               	movf	(___fldiv@b+2)^(0+128),w
  8485  1386  00B7               	movwf	(___fldiv@rem+2)^(0+128)
  8486  1387  082D               	movf	(___fldiv@b+1)^(0+128),w
  8487  1388  00B6               	movwf	(___fldiv@rem+1)^(0+128)
  8488  1389  082C               	movf	___fldiv@b^(0+128),w
  8489  138A  00B5               	movwf	___fldiv@rem^(0+128)
  8490  138B                     l3442:
  8491  138B  3000               	movlw	0
  8492  138C  00AF               	movwf	(___fldiv@b+3)^(0+128)
  8493  138D  3000               	movlw	0
  8494  138E  00AE               	movwf	(___fldiv@b+2)^(0+128)
  8495  138F  3000               	movlw	0
  8496  1390  00AD               	movwf	(___fldiv@b+1)^(0+128)
  8497  1391  3000               	movlw	0
  8498  1392  00AC               	movwf	___fldiv@b^(0+128)
  8499  1393                     l3444:
  8500  1393  3000               	movlw	0
  8501  1394  00BF               	movwf	(___fldiv@grs+3)^(0+128)
  8502  1395  3000               	movlw	0
  8503  1396  00BE               	movwf	(___fldiv@grs+2)^(0+128)
  8504  1397  3000               	movlw	0
  8505  1398  00BD               	movwf	(___fldiv@grs+1)^(0+128)
  8506  1399  3000               	movlw	0
  8507  139A  00BC               	movwf	___fldiv@grs^(0+128)
  8508  139B                     l3446:
  8509  139B  01C1               	clrf	___fldiv@aexp^(0+128)
  8510  139C  2BE7               	goto	l3466
  8511  139D                     l3448:
  8512  139D  0841               	movf	___fldiv@aexp^(0+128),w
  8513  139E  1903               	btfsc	3,2
  8514  139F  2BA1               	goto	u5351
  8515  13A0  2BA2               	goto	u5350
  8516  13A1                     u5351:
  8517  13A1  2BC2               	goto	l3458
  8518  13A2                     u5350:
  8519  13A2                     l3450:
  8520  13A2  3001               	movlw	1
  8521  13A3  00B0               	movwf	??___fldiv^(0+128)
  8522  13A4                     u5365:
  8523  13A4  1003               	clrc
  8524  13A5  0DB5               	rlf	___fldiv@rem^(0+128),f
  8525  13A6  0DB6               	rlf	(___fldiv@rem+1)^(0+128),f
  8526  13A7  0DB7               	rlf	(___fldiv@rem+2)^(0+128),f
  8527  13A8  0DB8               	rlf	(___fldiv@rem+3)^(0+128),f
  8528  13A9  0BB0               	decfsz	??___fldiv^(0+128),f
  8529  13AA  2BA4               	goto	u5365
  8530  13AB  3001               	movlw	1
  8531  13AC  00B0               	movwf	??___fldiv^(0+128)
  8532  13AD                     u5375:
  8533  13AD  1003               	clrc
  8534  13AE  0DAC               	rlf	___fldiv@b^(0+128),f
  8535  13AF  0DAD               	rlf	(___fldiv@b+1)^(0+128),f
  8536  13B0  0DAE               	rlf	(___fldiv@b+2)^(0+128),f
  8537  13B1  0DAF               	rlf	(___fldiv@b+3)^(0+128),f
  8538  13B2  0BB0               	decfsz	??___fldiv^(0+128),f
  8539  13B3  2BAD               	goto	u5375
  8540  13B4                     l3452:
  8541  13B4  1FBF               	btfss	(___fldiv@grs+3)^(0+128),7
  8542  13B5  2BB7               	goto	u5381
  8543  13B6  2BB8               	goto	u5380
  8544  13B7                     u5381:
  8545  13B7  2BB9               	goto	l3456
  8546  13B8                     u5380:
  8547  13B8                     l3454:
  8548  13B8  142C               	bsf	___fldiv@b^(0+128),0
  8549  13B9                     l3456:
  8550  13B9  3001               	movlw	1
  8551  13BA  00B0               	movwf	??___fldiv^(0+128)
  8552  13BB                     u5395:
  8553  13BB  1003               	clrc
  8554  13BC  0DBC               	rlf	___fldiv@grs^(0+128),f
  8555  13BD  0DBD               	rlf	(___fldiv@grs+1)^(0+128),f
  8556  13BE  0DBE               	rlf	(___fldiv@grs+2)^(0+128),f
  8557  13BF  0DBF               	rlf	(___fldiv@grs+3)^(0+128),f
  8558  13C0  0BB0               	decfsz	??___fldiv^(0+128),f
  8559  13C1  2BBB               	goto	u5395
  8560  13C2                     l3458:
  8561  13C2  082B               	movf	(___fldiv@a+3)^(0+128),w
  8562  13C3  0238               	subwf	(___fldiv@rem+3)^(0+128),w
  8563  13C4  1D03               	skipz
  8564  13C5  2BD0               	goto	u5405
  8565  13C6  082A               	movf	(___fldiv@a+2)^(0+128),w
  8566  13C7  0237               	subwf	(___fldiv@rem+2)^(0+128),w
  8567  13C8  1D03               	skipz
  8568  13C9  2BD0               	goto	u5405
  8569  13CA  0829               	movf	(___fldiv@a+1)^(0+128),w
  8570  13CB  0236               	subwf	(___fldiv@rem+1)^(0+128),w
  8571  13CC  1D03               	skipz
  8572  13CD  2BD0               	goto	u5405
  8573  13CE  0828               	movf	___fldiv@a^(0+128),w
  8574  13CF  0235               	subwf	___fldiv@rem^(0+128),w
  8575  13D0                     u5405:
  8576  13D0  1C03               	skipc
  8577  13D1  2BD3               	goto	u5401
  8578  13D2  2BD4               	goto	u5400
  8579  13D3                     u5401:
  8580  13D3  2BE3               	goto	l3464
  8581  13D4                     u5400:
  8582  13D4                     l3460:
  8583  13D4  173F               	bsf	(___fldiv@grs^(0+128)+3),6
  8584  13D5                     l3462:
  8585  13D5  0828               	movf	___fldiv@a^(0+128),w
  8586  13D6  02B5               	subwf	___fldiv@rem^(0+128),f
  8587  13D7  0829               	movf	(___fldiv@a+1)^(0+128),w
  8588  13D8  1C03               	skipc
  8589  13D9  0F29               	incfsz	(___fldiv@a+1)^(0+128),w
  8590  13DA  02B6               	subwf	(___fldiv@rem+1)^(0+128),f
  8591  13DB  082A               	movf	(___fldiv@a+2)^(0+128),w
  8592  13DC  1C03               	skipc
  8593  13DD  0F2A               	incfsz	(___fldiv@a+2)^(0+128),w
  8594  13DE  02B7               	subwf	(___fldiv@rem+2)^(0+128),f
  8595  13DF  082B               	movf	(___fldiv@a+3)^(0+128),w
  8596  13E0  1C03               	skipc
  8597  13E1  0F2B               	incfsz	(___fldiv@a+3)^(0+128),w
  8598  13E2  02B8               	subwf	(___fldiv@rem+3)^(0+128),f
  8599  13E3                     l3464:
  8600  13E3  3001               	movlw	1
  8601  13E4  00B0               	movwf	??___fldiv^(0+128)
  8602  13E5  0830               	movf	??___fldiv^(0+128),w
  8603  13E6  07C1               	addwf	___fldiv@aexp^(0+128),f
  8604  13E7                     l3466:
  8605  13E7  301A               	movlw	26
  8606  13E8  0241               	subwf	___fldiv@aexp^(0+128),w
  8607  13E9  1C03               	skipc
  8608  13EA  2BEC               	goto	u5411
  8609  13EB  2BED               	goto	u5410
  8610  13EC                     u5411:
  8611  13EC  2B9D               	goto	l3448
  8612  13ED                     u5410:
  8613  13ED                     l3468:
  8614  13ED  0838               	movf	(___fldiv@rem+3)^(0+128),w
  8615  13EE  0437               	iorwf	(___fldiv@rem+2)^(0+128),w
  8616  13EF  0436               	iorwf	(___fldiv@rem+1)^(0+128),w
  8617  13F0  0435               	iorwf	___fldiv@rem^(0+128),w
  8618  13F1  1903               	skipnz
  8619  13F2  2BF4               	goto	u5421
  8620  13F3  2BF5               	goto	u5420
  8621  13F4                     u5421:
  8622  13F4  2C14               	goto	l3482
  8623  13F5                     u5420:
  8624  13F5                     l3470:
  8625  13F5  143C               	bsf	___fldiv@grs^(0+128),0
  8626  13F6  2C14               	goto	l3482
  8627  13F7                     l3472:
  8628  13F7  3001               	movlw	1
  8629  13F8  00B0               	movwf	??___fldiv^(0+128)
  8630  13F9                     u5435:
  8631  13F9  1003               	clrc
  8632  13FA  0DAC               	rlf	___fldiv@b^(0+128),f
  8633  13FB  0DAD               	rlf	(___fldiv@b+1)^(0+128),f
  8634  13FC  0DAE               	rlf	(___fldiv@b+2)^(0+128),f
  8635  13FD  0DAF               	rlf	(___fldiv@b+3)^(0+128),f
  8636  13FE  0BB0               	decfsz	??___fldiv^(0+128),f
  8637  13FF  2BF9               	goto	u5435
  8638  1400                     l3474:
  8639  1400  1FBF               	btfss	(___fldiv@grs+3)^(0+128),7
  8640  1401  2C03               	goto	u5441
  8641  1402  2C04               	goto	u5440
  8642  1403                     u5441:
  8643  1403  2C05               	goto	l3478
  8644  1404                     u5440:
  8645  1404                     l3476:
  8646  1404  142C               	bsf	___fldiv@b^(0+128),0
  8647  1405                     l3478:
  8648  1405  3001               	movlw	1
  8649  1406  00B0               	movwf	??___fldiv^(0+128)
  8650  1407                     u5455:
  8651  1407  1003               	clrc
  8652  1408  0DBC               	rlf	___fldiv@grs^(0+128),f
  8653  1409  0DBD               	rlf	(___fldiv@grs+1)^(0+128),f
  8654  140A  0DBE               	rlf	(___fldiv@grs+2)^(0+128),f
  8655  140B  0DBF               	rlf	(___fldiv@grs+3)^(0+128),f
  8656  140C  0BB0               	decfsz	??___fldiv^(0+128),f
  8657  140D  2C07               	goto	u5455
  8658  140E                     l3480:
  8659  140E  30FF               	movlw	255
  8660  140F  07BA               	addwf	___fldiv@new_exp^(0+128),f
  8661  1410  1803               	skipnc
  8662  1411  0ABB               	incf	(___fldiv@new_exp+1)^(0+128),f
  8663  1412  30FF               	movlw	255
  8664  1413  07BB               	addwf	(___fldiv@new_exp+1)^(0+128),f
  8665  1414                     l3482:
  8666  1414  1FAE               	btfss	(___fldiv@b+2)^(0+128),7
  8667  1415  2C17               	goto	u5461
  8668  1416  2C18               	goto	u5460
  8669  1417                     u5461:
  8670  1417  2BF7               	goto	l3472
  8671  1418                     u5460:
  8672  1418                     l3484:
  8673  1418  01C1               	clrf	___fldiv@aexp^(0+128)
  8674  1419                     l3486:
  8675  1419  1FBF               	btfss	(___fldiv@grs+3)^(0+128),7
  8676  141A  2C1C               	goto	u5471
  8677  141B  2C1D               	goto	u5470
  8678  141C                     u5471:
  8679  141C  2C39               	goto	l3494
  8680  141D                     u5470:
  8681  141D                     l3488:
  8682  141D  30FF               	movlw	255
  8683  141E  053C               	andwf	___fldiv@grs^(0+128),w
  8684  141F  00B0               	movwf	??___fldiv^(0+128)
  8685  1420  30FF               	movlw	255
  8686  1421  053D               	andwf	(___fldiv@grs+1)^(0+128),w
  8687  1422  00B1               	movwf	(??___fldiv^(0+128)+1)
  8688  1423  30FF               	movlw	255
  8689  1424  053E               	andwf	(___fldiv@grs+2)^(0+128),w
  8690  1425  00B2               	movwf	(??___fldiv^(0+128)+2)
  8691  1426  307F               	movlw	127
  8692  1427  053F               	andwf	(___fldiv@grs+3)^(0+128),w
  8693  1428  00B3               	movwf	(??___fldiv^(0+128)+3)
  8694  1429  0833               	movf	(??___fldiv+3)^(0+128),w
  8695  142A  0432               	iorwf	(??___fldiv+2)^(0+128),w
  8696  142B  0431               	iorwf	(??___fldiv+1)^(0+128),w
  8697  142C  0430               	iorwf	??___fldiv^(0+128),w
  8698  142D  1903               	skipnz
  8699  142E  2C30               	goto	u5481
  8700  142F  2C31               	goto	u5480
  8701  1430                     u5481:
  8702  1430  2C34               	goto	l713
  8703  1431                     u5480:
  8704  1431                     l3490:
  8705  1431  01C1               	clrf	___fldiv@aexp^(0+128)
  8706  1432  0AC1               	incf	___fldiv@aexp^(0+128),f
  8707  1433  2C39               	goto	l3494
  8708  1434                     l713:
  8709  1434  1C2C               	btfss	___fldiv@b^(0+128),0
  8710  1435  2C37               	goto	u5491
  8711  1436  2C38               	goto	u5490
  8712  1437                     u5491:
  8713  1437  2C39               	goto	l3494
  8714  1438                     u5490:
  8715  1438  2C31               	goto	l3490
  8716  1439                     l3494:
  8717  1439  0841               	movf	___fldiv@aexp^(0+128),w
  8718  143A  1903               	btfsc	3,2
  8719  143B  2C3D               	goto	u5501
  8720  143C  2C3E               	goto	u5500
  8721  143D                     u5501:
  8722  143D  2C6F               	goto	l3504
  8723  143E                     u5500:
  8724  143E                     l3496:
  8725  143E  3001               	movlw	1
  8726  143F  07AC               	addwf	___fldiv@b^(0+128),f
  8727  1440  3000               	movlw	0
  8728  1441  1803               	skipnc
  8729  1442  3001               	movlw	1
  8730  1443  07AD               	addwf	(___fldiv@b+1)^(0+128),f
  8731  1444  3000               	movlw	0
  8732  1445  1803               	skipnc
  8733  1446  3001               	movlw	1
  8734  1447  07AE               	addwf	(___fldiv@b+2)^(0+128),f
  8735  1448  3000               	movlw	0
  8736  1449  1803               	skipnc
  8737  144A  3001               	movlw	1
  8738  144B  07AF               	addwf	(___fldiv@b+3)^(0+128),f
  8739  144C                     l3498:
  8740  144C  1C2F               	btfss	(___fldiv@b+3)^(0+128),0
  8741  144D  2C4F               	goto	u5511
  8742  144E  2C50               	goto	u5510
  8743  144F                     u5511:
  8744  144F  2C6F               	goto	l3504
  8745  1450                     u5510:
  8746  1450                     l3500:
  8747  1450  082C               	movf	___fldiv@b^(0+128),w
  8748  1451  00B0               	movwf	??___fldiv^(0+128)
  8749  1452  082D               	movf	(___fldiv@b+1)^(0+128),w
  8750  1453  00B1               	movwf	(??___fldiv^(0+128)+1)
  8751  1454  082E               	movf	(___fldiv@b+2)^(0+128),w
  8752  1455  00B2               	movwf	(??___fldiv^(0+128)+2)
  8753  1456  082F               	movf	(___fldiv@b+3)^(0+128),w
  8754  1457  00B3               	movwf	(??___fldiv^(0+128)+3)
  8755  1458  3001               	movlw	1
  8756  1459  00B4               	movwf	(??___fldiv+4)^(0+128)
  8757  145A                     u5525:
  8758  145A  0D33               	rlf	(??___fldiv^(0+128)+3),w
  8759  145B  0CB3               	rrf	(??___fldiv^(0+128)+3),f
  8760  145C  0CB2               	rrf	(??___fldiv^(0+128)+2),f
  8761  145D  0CB1               	rrf	(??___fldiv^(0+128)+1),f
  8762  145E  0CB0               	rrf	??___fldiv^(0+128),f
  8763  145F                     u5520:
  8764  145F  0BB4               	decfsz	(??___fldiv+4)^(0+128),f
  8765  1460  2C5A               	goto	u5525
  8766  1461  0833               	movf	(??___fldiv+3)^(0+128),w
  8767  1462  00AF               	movwf	(___fldiv@b+3)^(0+128)
  8768  1463  0832               	movf	(??___fldiv+2)^(0+128),w
  8769  1464  00AE               	movwf	(___fldiv@b+2)^(0+128)
  8770  1465  0831               	movf	(??___fldiv+1)^(0+128),w
  8771  1466  00AD               	movwf	(___fldiv@b+1)^(0+128)
  8772  1467  0830               	movf	??___fldiv^(0+128),w
  8773  1468  00AC               	movwf	___fldiv@b^(0+128)
  8774  1469                     l3502:
  8775  1469  3001               	movlw	1
  8776  146A  07BA               	addwf	___fldiv@new_exp^(0+128),f
  8777  146B  1803               	skipnc
  8778  146C  0ABB               	incf	(___fldiv@new_exp+1)^(0+128),f
  8779  146D  3000               	movlw	0
  8780  146E  07BB               	addwf	(___fldiv@new_exp+1)^(0+128),f
  8781  146F                     l3504:
  8782  146F  083B               	movf	(___fldiv@new_exp+1)^(0+128),w
  8783  1470  3A80               	xorlw	128
  8784  1471  00FF               	movwf	btemp+1
  8785  1472  3080               	movlw	128
  8786  1473  027F               	subwf	btemp+1,w
  8787  1474  1D03               	skipz
  8788  1475  2C78               	goto	u5535
  8789  1476  30FF               	movlw	255
  8790  1477  023A               	subwf	___fldiv@new_exp^(0+128),w
  8791  1478                     u5535:
  8792  1478  1C03               	skipc
  8793  1479  2C7B               	goto	u5531
  8794  147A  2C7C               	goto	u5530
  8795  147B                     u5531:
  8796  147B  2C8A               	goto	l3508
  8797  147C                     u5530:
  8798  147C                     l3506:
  8799  147C  30FF               	movlw	255
  8800  147D  1683               	bsf	3,5	;RP0=1, select bank1
  8801  147E  1303               	bcf	3,6	;RP1=0, select bank1
  8802  147F  00BA               	movwf	___fldiv@new_exp^(0+128)
  8803  1480  3000               	movlw	0
  8804  1481  00BB               	movwf	(___fldiv@new_exp^(0+128)+1)
  8805  1482  3000               	movlw	0
  8806  1483  00AF               	movwf	(___fldiv@b+3)^(0+128)
  8807  1484  3000               	movlw	0
  8808  1485  00AE               	movwf	(___fldiv@b+2)^(0+128)
  8809  1486  3000               	movlw	0
  8810  1487  00AD               	movwf	(___fldiv@b+1)^(0+128)
  8811  1488  3000               	movlw	0
  8812  1489  00AC               	movwf	___fldiv@b^(0+128)
  8813  148A                     l3508:
  8814  148A  1683               	bsf	3,5	;RP0=1, select bank1
  8815  148B  1303               	bcf	3,6	;RP1=0, select bank1
  8816  148C  083B               	movf	(___fldiv@new_exp+1)^(0+128),w
  8817  148D  3A80               	xorlw	128
  8818  148E  00FF               	movwf	btemp+1
  8819  148F  3080               	movlw	128
  8820  1490  027F               	subwf	btemp+1,w
  8821  1491  1D03               	skipz
  8822  1492  2C95               	goto	u5545
  8823  1493  3001               	movlw	1
  8824  1494  023A               	subwf	___fldiv@new_exp^(0+128),w
  8825  1495                     u5545:
  8826  1495  1803               	skipnc
  8827  1496  2C98               	goto	u5541
  8828  1497  2C99               	goto	u5540
  8829  1498                     u5541:
  8830  1498  2CA6               	goto	l719
  8831  1499                     u5540:
  8832  1499                     l3510:
  8833  1499  1683               	bsf	3,5	;RP0=1, select bank1
  8834  149A  1303               	bcf	3,6	;RP1=0, select bank1
  8835  149B  01BA               	clrf	___fldiv@new_exp^(0+128)
  8836  149C  01BB               	clrf	(___fldiv@new_exp+1)^(0+128)
  8837  149D                     l3512:
  8838  149D  3000               	movlw	0
  8839  149E  00AF               	movwf	(___fldiv@b+3)^(0+128)
  8840  149F  3000               	movlw	0
  8841  14A0  00AE               	movwf	(___fldiv@b+2)^(0+128)
  8842  14A1  3000               	movlw	0
  8843  14A2  00AD               	movwf	(___fldiv@b+1)^(0+128)
  8844  14A3  3000               	movlw	0
  8845  14A4  00AC               	movwf	___fldiv@b^(0+128)
  8846  14A5                     l3514:
  8847  14A5  01B9               	clrf	___fldiv@sign^(0+128)
  8848  14A6                     l719:
  8849  14A6  1683               	bsf	3,5	;RP0=1, select bank1
  8850  14A7  1303               	bcf	3,6	;RP1=0, select bank1
  8851  14A8  083A               	movf	___fldiv@new_exp^(0+128),w
  8852  14A9  00B0               	movwf	??___fldiv^(0+128)
  8853  14AA  0830               	movf	??___fldiv^(0+128),w
  8854  14AB  00C0               	movwf	___fldiv@bexp^(0+128)
  8855  14AC                     l3516:
  8856  14AC  1C40               	btfss	___fldiv@bexp^(0+128),0
  8857  14AD  2CAF               	goto	u5551
  8858  14AE  2CB0               	goto	u5550
  8859  14AF                     u5551:
  8860  14AF  2CB2               	goto	l3520
  8861  14B0                     u5550:
  8862  14B0                     l3518:
  8863  14B0  17AE               	bsf	(___fldiv@b^(0+128)+2),7
  8864  14B1  2CB6               	goto	l721
  8865  14B2                     l3520:
  8866  14B2  307F               	movlw	127
  8867  14B3  00B0               	movwf	??___fldiv^(0+128)
  8868  14B4  0830               	movf	??___fldiv^(0+128),w
  8869  14B5  05AE               	andwf	(___fldiv@b^(0+128)+2),f
  8870  14B6                     l721:
  8871  14B6  0840               	movf	___fldiv@bexp^(0+128),w
  8872  14B7  00B0               	movwf	??___fldiv^(0+128)
  8873  14B8  1003               	clrc
  8874  14B9  0C30               	rrf	??___fldiv^(0+128),w
  8875  14BA  00B1               	movwf	(??___fldiv+1)^(0+128)
  8876  14BB  0831               	movf	(??___fldiv+1)^(0+128),w
  8877  14BC  00AF               	movwf	(___fldiv@b^(0+128)+3)
  8878  14BD  0839               	movf	___fldiv@sign^(0+128),w
  8879  14BE  00B0               	movwf	??___fldiv^(0+128)
  8880  14BF  0830               	movf	??___fldiv^(0+128),w
  8881  14C0  04AF               	iorwf	(___fldiv@b^(0+128)+3),f
  8882  14C1  2B5A               	goto	l3428
  8883  14C2                     l699:
  8884  14C2  0008               	return
  8885  14C3                     __end_of___fldiv:
  8886                           
  8887                           	psect	text20
  8888  1C2F                     __ptext20:	
  8889 ;; *************** function _PWM_Max_Duty *****************
  8890 ;; Defined at:
  8891 ;;		line 3 in file "./pwm.h"
  8892 ;; Parameters:    Size  Location     Type
  8893 ;;		None
  8894 ;; Auto vars:     Size  Location     Type
  8895 ;;		None
  8896 ;; Return value:  Size  Location     Type
  8897 ;;                  2   20[BANK0 ] int 
  8898 ;; Registers used:
  8899 ;;		wreg, status,2, status,0, pclath, cstack
  8900 ;; Tracked objects:
  8901 ;;		On entry : 0/0
  8902 ;;		On exit  : 0/0
  8903 ;;		Unchanged: 0/0
  8904 ;; Data sizes:     COMMON   BANK0   BANK1   BANK3   BANK2
  8905 ;;      Params:         0       2       0       0       0
  8906 ;;      Locals:         0       0       0       0       0
  8907 ;;      Temps:          0       4       0       0       0
  8908 ;;      Totals:         0       6       0       0       0
  8909 ;;Total ram usage:        6 bytes
  8910 ;; Hardware stack levels used:    1
  8911 ;; Hardware stack levels required when called:    2
  8912 ;; This function calls:
  8913 ;;		___aldiv
  8914 ;; This function is called by:
  8915 ;;		_PWM1_Duty
  8916 ;;		_PWM2_Duty
  8917 ;; This function uses a non-reentrant model
  8918 ;;
  8919                           
  8920                           
  8921                           ;psect for function _PWM_Max_Duty
  8922  1C2F                     _PWM_Max_Duty:
  8923  1C2F                     l3150:	
  8924                           ;incstack = 0
  8925                           ; Regs used in _PWM_Max_Duty: [wreg+status,2+status,0+pclath+cstack]
  8926                           
  8927                           
  8928                           ;./pwm.h: 5:   return(20000000/(freq*16));
  8929  1C2F  1683               	bsf	3,5	;RP0=1, select bank3
  8930  1C30  1703               	bsf	3,6	;RP1=1, select bank3
  8931  1C31  0862               	movf	_freq^(0+384),w
  8932  1C32  1283               	bcf	3,5	;RP0=0, select bank0
  8933  1C33  1303               	bcf	3,6	;RP1=0, select bank0
  8934  1C34  00B6               	movwf	??_PWM_Max_Duty
  8935  1C35  1683               	bsf	3,5	;RP0=1, select bank3
  8936  1C36  1703               	bsf	3,6	;RP1=1, select bank3
  8937  1C37  0863               	movf	(_freq+1)^(0+384),w
  8938  1C38  1283               	bcf	3,5	;RP0=0, select bank0
  8939  1C39  1303               	bcf	3,6	;RP1=0, select bank0
  8940  1C3A  00B7               	movwf	??_PWM_Max_Duty+1
  8941  1C3B  1683               	bsf	3,5	;RP0=1, select bank3
  8942  1C3C  1703               	bsf	3,6	;RP1=1, select bank3
  8943  1C3D  0864               	movf	(_freq+2)^(0+384),w
  8944  1C3E  1283               	bcf	3,5	;RP0=0, select bank0
  8945  1C3F  1303               	bcf	3,6	;RP1=0, select bank0
  8946  1C40  00B8               	movwf	??_PWM_Max_Duty+2
  8947  1C41  1683               	bsf	3,5	;RP0=1, select bank3
  8948  1C42  1703               	bsf	3,6	;RP1=1, select bank3
  8949  1C43  0865               	movf	(_freq+3)^(0+384),w
  8950  1C44  1283               	bcf	3,5	;RP0=0, select bank0
  8951  1C45  1303               	bcf	3,6	;RP1=0, select bank0
  8952  1C46  00B9               	movwf	??_PWM_Max_Duty+3
  8953  1C47  3004               	movlw	4
  8954  1C48                     u4705:
  8955  1C48  1003               	clrc
  8956  1C49  0DB6               	rlf	??_PWM_Max_Duty,f
  8957  1C4A  0DB7               	rlf	??_PWM_Max_Duty+1,f
  8958  1C4B  0DB8               	rlf	??_PWM_Max_Duty+2,f
  8959  1C4C  0DB9               	rlf	??_PWM_Max_Duty+3,f
  8960  1C4D                     u4700:
  8961  1C4D  3EFF               	addlw	-1
  8962  1C4E  1D03               	skipz
  8963  1C4F  2C48               	goto	u4705
  8964  1C50  0839               	movf	??_PWM_Max_Duty+3,w
  8965  1C51  00A8               	movwf	___aldiv@divisor+3
  8966  1C52  0838               	movf	??_PWM_Max_Duty+2,w
  8967  1C53  00A7               	movwf	___aldiv@divisor+2
  8968  1C54  0837               	movf	??_PWM_Max_Duty+1,w
  8969  1C55  00A6               	movwf	___aldiv@divisor+1
  8970  1C56  0836               	movf	??_PWM_Max_Duty,w
  8971  1C57  00A5               	movwf	___aldiv@divisor
  8972  1C58  3001               	movlw	1
  8973  1C59  00AC               	movwf	___aldiv@dividend+3
  8974  1C5A  3031               	movlw	49
  8975  1C5B  00AB               	movwf	___aldiv@dividend+2
  8976  1C5C  302D               	movlw	45
  8977  1C5D  00AA               	movwf	___aldiv@dividend+1
  8978  1C5E  3000               	movlw	0
  8979  1C5F  00A9               	movwf	___aldiv@dividend
  8980  1C60  160A  118A  20E9  160A  158A  	fcall	___aldiv
  8981  1C65  1283               	bcf	3,5	;RP0=0, select bank0
  8982  1C66  1303               	bcf	3,6	;RP1=0, select bank0
  8983  1C67  0826               	movf	?___aldiv+1,w
  8984  1C68  00B5               	movwf	?_PWM_Max_Duty+1
  8985  1C69  0825               	movf	?___aldiv,w
  8986  1C6A  00B4               	movwf	?_PWM_Max_Duty
  8987  1C6B                     l110:
  8988  1C6B  0008               	return
  8989  1C6C                     __end_of_PWM_Max_Duty:
  8990                           
  8991                           	psect	text21
  8992  1CB4                     __ptext21:	
  8993 ;; *************** function _nn_dw *****************
  8994 ;; Defined at:
  8995 ;;		line 150 in file "Mach_encoder_4NN_LCD_PID_Pic16F887_MPlab.c"
  8996 ;; Parameters:    Size  Location     Type
  8997 ;;		None
  8998 ;; Auto vars:     Size  Location     Type
  8999 ;;		None
  9000 ;; Return value:  Size  Location     Type
  9001 ;;                  1    wreg      void 
  9002 ;; Registers used:
  9003 ;;		wreg
  9004 ;; Tracked objects:
  9005 ;;		On entry : 0/0
  9006 ;;		On exit  : 0/0
  9007 ;;		Unchanged: 0/0
  9008 ;; Data sizes:     COMMON   BANK0   BANK1   BANK3   BANK2
  9009 ;;      Params:         0       0       0       0       0
  9010 ;;      Locals:         0       0       0       0       0
  9011 ;;      Temps:          4       0       0       0       0
  9012 ;;      Totals:         4       0       0       0       0
  9013 ;;Total ram usage:        4 bytes
  9014 ;; Hardware stack levels used:    1
  9015 ;; Hardware stack levels required when called:    1
  9016 ;; This function calls:
  9017 ;;		Nothing
  9018 ;; This function is called by:
  9019 ;;		_main
  9020 ;; This function uses a non-reentrant model
  9021 ;;
  9022                           
  9023                           
  9024                           ;psect for function _nn_dw
  9025  1CB4                     _nn_dw:
  9026  1CB4                     l2822:	
  9027                           ;incstack = 0
  9028                           ; Regs used in _nn_dw: [wreg]
  9029                           
  9030                           
  9031                           ;Mach_encoder_4NN_LCD_PID_Pic16F887_MPlab.c: 152:    if((PORTAbits.RA3)==0)
  9032  1CB4  1283               	bcf	3,5	;RP0=0, select bank0
  9033  1CB5  1303               	bcf	3,6	;RP1=0, select bank0
  9034  1CB6  1985               	btfsc	5,3	;volatile
  9035  1CB7  2CB9               	goto	u4231
  9036  1CB8  2CBA               	goto	u4230
  9037  1CB9                     u4231:
  9038  1CB9  2CFF               	goto	l236
  9039  1CBA                     u4230:
  9040  1CBA                     l2824:
  9041                           
  9042                           ;Mach_encoder_4NN_LCD_PID_Pic16F887_MPlab.c: 153:    {;Mach_encoder_4NN_LCD_PID_Pic16F88
      +                          7_MPlab.c: 154:       _delay((unsigned long)((20)*(20000000/4000.0)));
  9043  1CBA  3082               	movlw	130
  9044  1CBB  00F3               	movwf	??_nn_dw+1
  9045  1CBC  30DD               	movlw	221
  9046  1CBD  00F2               	movwf	??_nn_dw
  9047  1CBE                     u6607:
  9048  1CBE  0BF2               	decfsz	??_nn_dw,f
  9049  1CBF  2CBE               	goto	u6607
  9050  1CC0  0BF3               	decfsz	??_nn_dw+1,f
  9051  1CC1  2CBE               	goto	u6607
  9052  1CC2  2CC3               	nop2
  9053  1CC3                     l2826:
  9054                           
  9055                           ;Mach_encoder_4NN_LCD_PID_Pic16F887_MPlab.c: 155:       if((PORTAbits.RA3)==0)
  9056  1CC3  1283               	bcf	3,5	;RP0=0, select bank0
  9057  1CC4  1303               	bcf	3,6	;RP1=0, select bank0
  9058  1CC5  1985               	btfsc	5,3	;volatile
  9059  1CC6  2CC8               	goto	u4241
  9060  1CC7  2CC9               	goto	u4240
  9061  1CC8                     u4241:
  9062  1CC8  2CFF               	goto	l236
  9063  1CC9                     u4240:
  9064  1CC9                     l2828:
  9065                           
  9066                           ;Mach_encoder_4NN_LCD_PID_Pic16F887_MPlab.c: 156:       {;Mach_encoder_4NN_LCD_PID_Pic16
      +                          F887_MPlab.c: 157:          dat=dat-10;
  9067  1CC9  30F6               	movlw	246
  9068  1CCA  00F2               	movwf	??_nn_dw
  9069  1CCB  30FF               	movlw	255
  9070  1CCC  00F3               	movwf	??_nn_dw+1
  9071  1CCD  30FF               	movlw	255
  9072  1CCE  00F4               	movwf	??_nn_dw+2
  9073  1CCF  30FF               	movlw	255
  9074  1CD0  00F5               	movwf	??_nn_dw+3
  9075  1CD1  1683               	bsf	3,5	;RP0=1, select bank3
  9076  1CD2  1703               	bsf	3,6	;RP1=1, select bank3
  9077  1CD3  0818               	movf	_dat^(0+384),w
  9078  1CD4  07F2               	addwf	??_nn_dw,f
  9079  1CD5  0819               	movf	(_dat+1)^(0+384),w
  9080  1CD6  1803               	skipnc
  9081  1CD7  0F19               	incfsz	(_dat+1)^(0+384),w
  9082  1CD8  2CDA               	goto	u4250
  9083  1CD9  2CDB               	goto	u4251
  9084  1CDA                     u4250:
  9085  1CDA  07F3               	addwf	??_nn_dw+1,f
  9086  1CDB                     u4251:
  9087  1CDB  081A               	movf	(_dat+2)^(0+384),w
  9088  1CDC  1803               	skipnc
  9089  1CDD  0F1A               	incfsz	(_dat+2)^(0+384),w
  9090  1CDE  2CE0               	goto	u4252
  9091  1CDF  2CE1               	goto	u4253
  9092  1CE0                     u4252:
  9093  1CE0  07F4               	addwf	??_nn_dw+2,f
  9094  1CE1                     u4253:
  9095  1CE1  081B               	movf	(_dat+3)^(0+384),w
  9096  1CE2  1803               	skipnc
  9097  1CE3  0A1B               	incf	(_dat+3)^(0+384),w
  9098  1CE4  07F5               	addwf	??_nn_dw+3,f
  9099  1CE5  0875               	movf	??_nn_dw+3,w
  9100  1CE6  009B               	movwf	(_dat+3)^(0+384)
  9101  1CE7  0874               	movf	??_nn_dw+2,w
  9102  1CE8  009A               	movwf	(_dat+2)^(0+384)
  9103  1CE9  0873               	movf	??_nn_dw+1,w
  9104  1CEA  0099               	movwf	(_dat+1)^(0+384)
  9105  1CEB  0872               	movf	??_nn_dw,w
  9106  1CEC  0098               	movwf	_dat^(0+384)
  9107  1CED                     l2830:
  9108                           
  9109                           ;Mach_encoder_4NN_LCD_PID_Pic16F887_MPlab.c: 158:          if(dat<0) dat=0;
  9110  1CED  1F9B               	btfss	(_dat+3)^(0+384),7
  9111  1CEE  2CF0               	goto	u4261
  9112  1CEF  2CF1               	goto	u4260
  9113  1CF0                     u4261:
  9114  1CF0  2CF9               	goto	l233
  9115  1CF1                     u4260:
  9116  1CF1                     l2832:
  9117  1CF1  3000               	movlw	0
  9118  1CF2  009B               	movwf	(_dat+3)^(0+384)
  9119  1CF3  3000               	movlw	0
  9120  1CF4  009A               	movwf	(_dat+2)^(0+384)
  9121  1CF5  3000               	movlw	0
  9122  1CF6  0099               	movwf	(_dat+1)^(0+384)
  9123  1CF7  3000               	movlw	0
  9124  1CF8  0098               	movwf	_dat^(0+384)
  9125  1CF9                     l233:
  9126  1CF9  1283               	bcf	3,5	;RP0=0, select bank0
  9127  1CFA  1303               	bcf	3,6	;RP1=0, select bank0
  9128  1CFB  1D85               	btfss	5,3	;volatile
  9129  1CFC  2CFE               	goto	u4271
  9130  1CFD  2CFF               	goto	u4270
  9131  1CFE                     u4271:
  9132  1CFE  2CF9               	goto	l233
  9133  1CFF                     u4270:
  9134  1CFF                     l236:
  9135  1CFF  0008               	return
  9136  1D00                     __end_of_nn_dw:
  9137                           
  9138                           	psect	text22
  9139  1F79                     __ptext22:	
  9140 ;; *************** function ___almod *****************
  9141 ;; Defined at:
  9142 ;;		line 5 in file "E:\Program Files\Microchip\xc8\v2.30\pic\sources\c90\common\almod.c"
  9143 ;; Parameters:    Size  Location     Type
  9144 ;;  divisor         4   20[BANK0 ] long 
  9145 ;;  dividend        4   24[BANK0 ] long 
  9146 ;; Auto vars:     Size  Location     Type
  9147 ;;  sign            1   30[BANK0 ] unsigned char 
  9148 ;;  counter         1   29[BANK0 ] unsigned char 
  9149 ;; Return value:  Size  Location     Type
  9150 ;;                  4   20[BANK0 ] long 
  9151 ;; Registers used:
  9152 ;;		wreg, status,2, status,0
  9153 ;; Tracked objects:
  9154 ;;		On entry : 0/0
  9155 ;;		On exit  : 0/0
  9156 ;;		Unchanged: 0/0
  9157 ;; Data sizes:     COMMON   BANK0   BANK1   BANK3   BANK2
  9158 ;;      Params:         0       8       0       0       0
  9159 ;;      Locals:         0       2       0       0       0
  9160 ;;      Temps:          0       1       0       0       0
  9161 ;;      Totals:         0      11       0       0       0
  9162 ;;Total ram usage:       11 bytes
  9163 ;; Hardware stack levels used:    1
  9164 ;; Hardware stack levels required when called:    1
  9165 ;; This function calls:
  9166 ;;		Nothing
  9167 ;; This function is called by:
  9168 ;;		_main
  9169 ;; This function uses a non-reentrant model
  9170 ;;
  9171                           
  9172                           
  9173                           ;psect for function ___almod
  9174  1F79                     ___almod:
  9175  1F79                     l2892:	
  9176                           ;incstack = 0
  9177                           ; Regs used in ___almod: [wreg+status,2+status,0]
  9178                           
  9179  1F79  1283               	bcf	3,5	;RP0=0, select bank0
  9180  1F7A  1303               	bcf	3,6	;RP1=0, select bank0
  9181  1F7B  01BE               	clrf	___almod@sign
  9182  1F7C                     l2894:
  9183  1F7C  1FBB               	btfss	___almod@dividend+3,7
  9184  1F7D  2F7F               	goto	u4331
  9185  1F7E  2F80               	goto	u4330
  9186  1F7F                     u4331:
  9187  1F7F  2F8D               	goto	l426
  9188  1F80                     u4330:
  9189  1F80                     l2896:
  9190  1F80  09B8               	comf	___almod@dividend,f
  9191  1F81  09B9               	comf	___almod@dividend+1,f
  9192  1F82  09BA               	comf	___almod@dividend+2,f
  9193  1F83  09BB               	comf	___almod@dividend+3,f
  9194  1F84  0AB8               	incf	___almod@dividend,f
  9195  1F85  1903               	skipnz
  9196  1F86  0AB9               	incf	___almod@dividend+1,f
  9197  1F87  1903               	skipnz
  9198  1F88  0ABA               	incf	___almod@dividend+2,f
  9199  1F89  1903               	skipnz
  9200  1F8A  0ABB               	incf	___almod@dividend+3,f
  9201  1F8B  01BE               	clrf	___almod@sign
  9202  1F8C  0ABE               	incf	___almod@sign,f
  9203  1F8D                     l426:
  9204  1F8D  1FB7               	btfss	___almod@divisor+3,7
  9205  1F8E  2F90               	goto	u4341
  9206  1F8F  2F91               	goto	u4340
  9207  1F90                     u4341:
  9208  1F90  2F9C               	goto	l2900
  9209  1F91                     u4340:
  9210  1F91                     l2898:
  9211  1F91  09B4               	comf	___almod@divisor,f
  9212  1F92  09B5               	comf	___almod@divisor+1,f
  9213  1F93  09B6               	comf	___almod@divisor+2,f
  9214  1F94  09B7               	comf	___almod@divisor+3,f
  9215  1F95  0AB4               	incf	___almod@divisor,f
  9216  1F96  1903               	skipnz
  9217  1F97  0AB5               	incf	___almod@divisor+1,f
  9218  1F98  1903               	skipnz
  9219  1F99  0AB6               	incf	___almod@divisor+2,f
  9220  1F9A  1903               	skipnz
  9221  1F9B  0AB7               	incf	___almod@divisor+3,f
  9222  1F9C                     l2900:
  9223  1F9C  0837               	movf	___almod@divisor+3,w
  9224  1F9D  0436               	iorwf	___almod@divisor+2,w
  9225  1F9E  0435               	iorwf	___almod@divisor+1,w
  9226  1F9F  0434               	iorwf	___almod@divisor,w
  9227  1FA0  1903               	skipnz
  9228  1FA1  2FA3               	goto	u4351
  9229  1FA2  2FA4               	goto	u4350
  9230  1FA3                     u4351:
  9231  1FA3  2FE7               	goto	l2916
  9232  1FA4                     u4350:
  9233  1FA4                     l2902:
  9234  1FA4  01BD               	clrf	___almod@counter
  9235  1FA5  0ABD               	incf	___almod@counter,f
  9236  1FA6  2FB4               	goto	l2906
  9237  1FA7                     l2904:
  9238  1FA7  3001               	movlw	1
  9239  1FA8  00BC               	movwf	??___almod
  9240  1FA9                     u4365:
  9241  1FA9  1003               	clrc
  9242  1FAA  0DB4               	rlf	___almod@divisor,f
  9243  1FAB  0DB5               	rlf	___almod@divisor+1,f
  9244  1FAC  0DB6               	rlf	___almod@divisor+2,f
  9245  1FAD  0DB7               	rlf	___almod@divisor+3,f
  9246  1FAE  0BBC               	decfsz	??___almod,f
  9247  1FAF  2FA9               	goto	u4365
  9248  1FB0  3001               	movlw	1
  9249  1FB1  00BC               	movwf	??___almod
  9250  1FB2  083C               	movf	??___almod,w
  9251  1FB3  07BD               	addwf	___almod@counter,f
  9252  1FB4                     l2906:
  9253  1FB4  1FB7               	btfss	___almod@divisor+3,7
  9254  1FB5  2FB7               	goto	u4371
  9255  1FB6  2FB8               	goto	u4370
  9256  1FB7                     u4371:
  9257  1FB7  2FA7               	goto	l2904
  9258  1FB8                     u4370:
  9259  1FB8                     l2908:
  9260  1FB8  0837               	movf	___almod@divisor+3,w
  9261  1FB9  023B               	subwf	___almod@dividend+3,w
  9262  1FBA  1D03               	skipz
  9263  1FBB  2FC6               	goto	u4385
  9264  1FBC  0836               	movf	___almod@divisor+2,w
  9265  1FBD  023A               	subwf	___almod@dividend+2,w
  9266  1FBE  1D03               	skipz
  9267  1FBF  2FC6               	goto	u4385
  9268  1FC0  0835               	movf	___almod@divisor+1,w
  9269  1FC1  0239               	subwf	___almod@dividend+1,w
  9270  1FC2  1D03               	skipz
  9271  1FC3  2FC6               	goto	u4385
  9272  1FC4  0834               	movf	___almod@divisor,w
  9273  1FC5  0238               	subwf	___almod@dividend,w
  9274  1FC6                     u4385:
  9275  1FC6  1C03               	skipc
  9276  1FC7  2FC9               	goto	u4381
  9277  1FC8  2FCA               	goto	u4380
  9278  1FC9                     u4381:
  9279  1FC9  2FD8               	goto	l2912
  9280  1FCA                     u4380:
  9281  1FCA                     l2910:
  9282  1FCA  0834               	movf	___almod@divisor,w
  9283  1FCB  02B8               	subwf	___almod@dividend,f
  9284  1FCC  0835               	movf	___almod@divisor+1,w
  9285  1FCD  1C03               	skipc
  9286  1FCE  0F35               	incfsz	___almod@divisor+1,w
  9287  1FCF  02B9               	subwf	___almod@dividend+1,f
  9288  1FD0  0836               	movf	___almod@divisor+2,w
  9289  1FD1  1C03               	skipc
  9290  1FD2  0F36               	incfsz	___almod@divisor+2,w
  9291  1FD3  02BA               	subwf	___almod@dividend+2,f
  9292  1FD4  0837               	movf	___almod@divisor+3,w
  9293  1FD5  1C03               	skipc
  9294  1FD6  0F37               	incfsz	___almod@divisor+3,w
  9295  1FD7  02BB               	subwf	___almod@dividend+3,f
  9296  1FD8                     l2912:
  9297  1FD8  3001               	movlw	1
  9298  1FD9                     u4395:
  9299  1FD9  1003               	clrc
  9300  1FDA  0CB7               	rrf	___almod@divisor+3,f
  9301  1FDB  0CB6               	rrf	___almod@divisor+2,f
  9302  1FDC  0CB5               	rrf	___almod@divisor+1,f
  9303  1FDD  0CB4               	rrf	___almod@divisor,f
  9304  1FDE  3EFF               	addlw	-1
  9305  1FDF  1D03               	skipz
  9306  1FE0  2FD9               	goto	u4395
  9307  1FE1                     l2914:
  9308  1FE1  3001               	movlw	1
  9309  1FE2  02BD               	subwf	___almod@counter,f
  9310  1FE3  1D03               	btfss	3,2
  9311  1FE4  2FE6               	goto	u4401
  9312  1FE5  2FE7               	goto	u4400
  9313  1FE6                     u4401:
  9314  1FE6  2FB8               	goto	l2908
  9315  1FE7                     u4400:
  9316  1FE7                     l2916:
  9317  1FE7  083E               	movf	___almod@sign,w
  9318  1FE8  1903               	btfsc	3,2
  9319  1FE9  2FEB               	goto	u4411
  9320  1FEA  2FEC               	goto	u4410
  9321  1FEB                     u4411:
  9322  1FEB  2FF7               	goto	l2920
  9323  1FEC                     u4410:
  9324  1FEC                     l2918:
  9325  1FEC  09B8               	comf	___almod@dividend,f
  9326  1FED  09B9               	comf	___almod@dividend+1,f
  9327  1FEE  09BA               	comf	___almod@dividend+2,f
  9328  1FEF  09BB               	comf	___almod@dividend+3,f
  9329  1FF0  0AB8               	incf	___almod@dividend,f
  9330  1FF1  1903               	skipnz
  9331  1FF2  0AB9               	incf	___almod@dividend+1,f
  9332  1FF3  1903               	skipnz
  9333  1FF4  0ABA               	incf	___almod@dividend+2,f
  9334  1FF5  1903               	skipnz
  9335  1FF6  0ABB               	incf	___almod@dividend+3,f
  9336  1FF7                     l2920:
  9337  1FF7  083B               	movf	___almod@dividend+3,w
  9338  1FF8  00B7               	movwf	?___almod+3
  9339  1FF9  083A               	movf	___almod@dividend+2,w
  9340  1FFA  00B6               	movwf	?___almod+2
  9341  1FFB  0839               	movf	___almod@dividend+1,w
  9342  1FFC  00B5               	movwf	?___almod+1
  9343  1FFD  0838               	movf	___almod@dividend,w
  9344  1FFE  00B4               	movwf	?___almod
  9345  1FFF                     l436:
  9346  1FFF  0008               	return
  9347  2000                     __end_of___almod:
  9348                           
  9349                           	psect	text23
  9350  1006                     __ptext23:	
  9351 ;; *************** function _PWM1_Init *****************
  9352 ;; Defined at:
  9353 ;;		line 7 in file "./pwm.h"
  9354 ;; Parameters:    Size  Location     Type
  9355 ;;  fre             4   20[BANK0 ] long 
  9356 ;; Auto vars:     Size  Location     Type
  9357 ;;		None
  9358 ;; Return value:  Size  Location     Type
  9359 ;;                  2   20[BANK0 ] int 
  9360 ;; Registers used:
  9361 ;;		wreg, status,2, status,0, pclath, cstack
  9362 ;; Tracked objects:
  9363 ;;		On entry : 0/0
  9364 ;;		On exit  : 0/0
  9365 ;;		Unchanged: 0/0
  9366 ;; Data sizes:     COMMON   BANK0   BANK1   BANK3   BANK2
  9367 ;;      Params:         0       4       0       0       0
  9368 ;;      Locals:         0       0       0       0       0
  9369 ;;      Temps:          0       4       0       0       0
  9370 ;;      Totals:         0       8       0       0       0
  9371 ;;Total ram usage:        8 bytes
  9372 ;; Hardware stack levels used:    1
  9373 ;; Hardware stack levels required when called:    2
  9374 ;; This function calls:
  9375 ;;		___aldiv
  9376 ;; This function is called by:
  9377 ;;		_main
  9378 ;; This function uses a non-reentrant model
  9379 ;;
  9380                           
  9381                           
  9382                           ;psect for function _PWM1_Init
  9383  1006                     _PWM1_Init:
  9384  1006                     l3840:	
  9385                           ;incstack = 0
  9386                           ; Regs used in _PWM1_Init: [wreg+status,2+status,0+pclath+cstack]
  9387                           
  9388                           
  9389                           ;./pwm.h: 7: PWM1_Init(long fre);./pwm.h: 8: {;./pwm.h: 9:   PR2 = (20000000/(fre*4*16))
      +                           - 1;
  9390  1006  1283               	bcf	3,5	;RP0=0, select bank0
  9391  1007  1303               	bcf	3,6	;RP1=0, select bank0
  9392  1008  0834               	movf	PWM1_Init@fre,w
  9393  1009  00B8               	movwf	??_PWM1_Init
  9394  100A  0835               	movf	PWM1_Init@fre+1,w
  9395  100B  00B9               	movwf	??_PWM1_Init+1
  9396  100C  0836               	movf	PWM1_Init@fre+2,w
  9397  100D  00BA               	movwf	??_PWM1_Init+2
  9398  100E  0837               	movf	PWM1_Init@fre+3,w
  9399  100F  00BB               	movwf	??_PWM1_Init+3
  9400  1010  3002               	movlw	2
  9401  1011                     u6315:
  9402  1011  1003               	clrc
  9403  1012  0DB8               	rlf	??_PWM1_Init,f
  9404  1013  0DB9               	rlf	??_PWM1_Init+1,f
  9405  1014  0DBA               	rlf	??_PWM1_Init+2,f
  9406  1015  0DBB               	rlf	??_PWM1_Init+3,f
  9407  1016                     u6310:
  9408  1016  3EFF               	addlw	-1
  9409  1017  1D03               	skipz
  9410  1018  2811               	goto	u6315
  9411  1019  3004               	movlw	4
  9412  101A                     u6325:
  9413  101A  1003               	clrc
  9414  101B  0DB8               	rlf	??_PWM1_Init,f
  9415  101C  0DB9               	rlf	??_PWM1_Init+1,f
  9416  101D  0DBA               	rlf	??_PWM1_Init+2,f
  9417  101E  0DBB               	rlf	??_PWM1_Init+3,f
  9418  101F                     u6320:
  9419  101F  3EFF               	addlw	-1
  9420  1020  1D03               	skipz
  9421  1021  281A               	goto	u6325
  9422  1022  083B               	movf	??_PWM1_Init+3,w
  9423  1023  00A8               	movwf	___aldiv@divisor+3
  9424  1024  083A               	movf	??_PWM1_Init+2,w
  9425  1025  00A7               	movwf	___aldiv@divisor+2
  9426  1026  0839               	movf	??_PWM1_Init+1,w
  9427  1027  00A6               	movwf	___aldiv@divisor+1
  9428  1028  0838               	movf	??_PWM1_Init,w
  9429  1029  00A5               	movwf	___aldiv@divisor
  9430  102A  3001               	movlw	1
  9431  102B  00AC               	movwf	___aldiv@dividend+3
  9432  102C  3031               	movlw	49
  9433  102D  00AB               	movwf	___aldiv@dividend+2
  9434  102E  302D               	movlw	45
  9435  102F  00AA               	movwf	___aldiv@dividend+1
  9436  1030  3000               	movlw	0
  9437  1031  00A9               	movwf	___aldiv@dividend
  9438  1032  160A  118A  20E9  160A  118A  	fcall	___aldiv
  9439  1037  1283               	bcf	3,5	;RP0=0, select bank0
  9440  1038  1303               	bcf	3,6	;RP1=0, select bank0
  9441  1039  0825               	movf	?___aldiv,w
  9442  103A  3EFF               	addlw	255
  9443  103B  1683               	bsf	3,5	;RP0=1, select bank1
  9444  103C  1303               	bcf	3,6	;RP1=0, select bank1
  9445  103D  0092               	movwf	18	;volatile
  9446  103E                     l3842:
  9447                           
  9448                           ;./pwm.h: 10:   freq = fre;
  9449  103E  1283               	bcf	3,5	;RP0=0, select bank0
  9450  103F  1303               	bcf	3,6	;RP1=0, select bank0
  9451  1040  0837               	movf	PWM1_Init@fre+3,w
  9452  1041  1683               	bsf	3,5	;RP0=1, select bank3
  9453  1042  1703               	bsf	3,6	;RP1=1, select bank3
  9454  1043  00E5               	movwf	(_freq+3)^(0+384)
  9455  1044  1283               	bcf	3,5	;RP0=0, select bank0
  9456  1045  1303               	bcf	3,6	;RP1=0, select bank0
  9457  1046  0836               	movf	PWM1_Init@fre+2,w
  9458  1047  1683               	bsf	3,5	;RP0=1, select bank3
  9459  1048  1703               	bsf	3,6	;RP1=1, select bank3
  9460  1049  00E4               	movwf	(_freq+2)^(0+384)
  9461  104A  1283               	bcf	3,5	;RP0=0, select bank0
  9462  104B  1303               	bcf	3,6	;RP1=0, select bank0
  9463  104C  0835               	movf	PWM1_Init@fre+1,w
  9464  104D  1683               	bsf	3,5	;RP0=1, select bank3
  9465  104E  1703               	bsf	3,6	;RP1=1, select bank3
  9466  104F  00E3               	movwf	(_freq+1)^(0+384)
  9467  1050  1283               	bcf	3,5	;RP0=0, select bank0
  9468  1051  1303               	bcf	3,6	;RP1=0, select bank0
  9469  1052  0834               	movf	PWM1_Init@fre,w
  9470  1053  1683               	bsf	3,5	;RP0=1, select bank3
  9471  1054  1703               	bsf	3,6	;RP1=1, select bank3
  9472  1055  00E2               	movwf	_freq^(0+384)
  9473  1056                     l113:
  9474  1056  0008               	return
  9475  1057                     __end_of_PWM1_Init:
  9476                           
  9477                           	psect	text24
  9478  10E9                     __ptext24:	
  9479 ;; *************** function ___aldiv *****************
  9480 ;; Defined at:
  9481 ;;		line 5 in file "E:\Program Files\Microchip\xc8\v2.30\pic\sources\c90\common\aldiv.c"
  9482 ;; Parameters:    Size  Location     Type
  9483 ;;  divisor         4    5[BANK0 ] long 
  9484 ;;  dividend        4    9[BANK0 ] long 
  9485 ;; Auto vars:     Size  Location     Type
  9486 ;;  quotient        4   16[BANK0 ] long 
  9487 ;;  sign            1   15[BANK0 ] unsigned char 
  9488 ;;  counter         1   14[BANK0 ] unsigned char 
  9489 ;; Return value:  Size  Location     Type
  9490 ;;                  4    5[BANK0 ] long 
  9491 ;; Registers used:
  9492 ;;		wreg, status,2, status,0
  9493 ;; Tracked objects:
  9494 ;;		On entry : 0/0
  9495 ;;		On exit  : 0/0
  9496 ;;		Unchanged: 0/0
  9497 ;; Data sizes:     COMMON   BANK0   BANK1   BANK3   BANK2
  9498 ;;      Params:         0       8       0       0       0
  9499 ;;      Locals:         0       6       0       0       0
  9500 ;;      Temps:          0       1       0       0       0
  9501 ;;      Totals:         0      15       0       0       0
  9502 ;;Total ram usage:       15 bytes
  9503 ;; Hardware stack levels used:    1
  9504 ;; Hardware stack levels required when called:    1
  9505 ;; This function calls:
  9506 ;;		Nothing
  9507 ;; This function is called by:
  9508 ;;		_PWM_Max_Duty
  9509 ;;		_PWM1_Init
  9510 ;;		_tinh_pid
  9511 ;;		_main
  9512 ;;		_PWM2_Init
  9513 ;; This function uses a non-reentrant model
  9514 ;;
  9515                           
  9516                           
  9517                           ;psect for function ___aldiv
  9518  10E9                     ___aldiv:
  9519  10E9                     l3086:	
  9520                           ;incstack = 0
  9521                           ; Regs used in ___aldiv: [wreg+status,2+status,0]
  9522                           
  9523  10E9  1283               	bcf	3,5	;RP0=0, select bank0
  9524  10EA  1303               	bcf	3,6	;RP1=0, select bank0
  9525  10EB  01AF               	clrf	___aldiv@sign
  9526  10EC                     l3088:
  9527  10EC  1FA8               	btfss	___aldiv@divisor+3,7
  9528  10ED  28EF               	goto	u4531
  9529  10EE  28F0               	goto	u4530
  9530  10EF                     u4531:
  9531  10EF  28FD               	goto	l413
  9532  10F0                     u4530:
  9533  10F0                     l3090:
  9534  10F0  09A5               	comf	___aldiv@divisor,f
  9535  10F1  09A6               	comf	___aldiv@divisor+1,f
  9536  10F2  09A7               	comf	___aldiv@divisor+2,f
  9537  10F3  09A8               	comf	___aldiv@divisor+3,f
  9538  10F4  0AA5               	incf	___aldiv@divisor,f
  9539  10F5  1903               	skipnz
  9540  10F6  0AA6               	incf	___aldiv@divisor+1,f
  9541  10F7  1903               	skipnz
  9542  10F8  0AA7               	incf	___aldiv@divisor+2,f
  9543  10F9  1903               	skipnz
  9544  10FA  0AA8               	incf	___aldiv@divisor+3,f
  9545  10FB  01AF               	clrf	___aldiv@sign
  9546  10FC  0AAF               	incf	___aldiv@sign,f
  9547  10FD                     l413:
  9548  10FD  1FAC               	btfss	___aldiv@dividend+3,7
  9549  10FE  2900               	goto	u4541
  9550  10FF  2901               	goto	u4540
  9551  1100                     u4541:
  9552  1100  2910               	goto	l3096
  9553  1101                     u4540:
  9554  1101                     l3092:
  9555  1101  09A9               	comf	___aldiv@dividend,f
  9556  1102  09AA               	comf	___aldiv@dividend+1,f
  9557  1103  09AB               	comf	___aldiv@dividend+2,f
  9558  1104  09AC               	comf	___aldiv@dividend+3,f
  9559  1105  0AA9               	incf	___aldiv@dividend,f
  9560  1106  1903               	skipnz
  9561  1107  0AAA               	incf	___aldiv@dividend+1,f
  9562  1108  1903               	skipnz
  9563  1109  0AAB               	incf	___aldiv@dividend+2,f
  9564  110A  1903               	skipnz
  9565  110B  0AAC               	incf	___aldiv@dividend+3,f
  9566  110C                     l3094:
  9567  110C  3001               	movlw	1
  9568  110D  00AD               	movwf	??___aldiv
  9569  110E  082D               	movf	??___aldiv,w
  9570  110F  06AF               	xorwf	___aldiv@sign,f
  9571  1110                     l3096:
  9572  1110  3000               	movlw	0
  9573  1111  00B3               	movwf	___aldiv@quotient+3
  9574  1112  3000               	movlw	0
  9575  1113  00B2               	movwf	___aldiv@quotient+2
  9576  1114  3000               	movlw	0
  9577  1115  00B1               	movwf	___aldiv@quotient+1
  9578  1116  3000               	movlw	0
  9579  1117  00B0               	movwf	___aldiv@quotient
  9580  1118                     l3098:
  9581  1118  0828               	movf	___aldiv@divisor+3,w
  9582  1119  0427               	iorwf	___aldiv@divisor+2,w
  9583  111A  0426               	iorwf	___aldiv@divisor+1,w
  9584  111B  0425               	iorwf	___aldiv@divisor,w
  9585  111C  1903               	skipnz
  9586  111D  291F               	goto	u4551
  9587  111E  2920               	goto	u4550
  9588  111F                     u4551:
  9589  111F  296D               	goto	l3118
  9590  1120                     u4550:
  9591  1120                     l3100:
  9592  1120  01AE               	clrf	___aldiv@counter
  9593  1121  0AAE               	incf	___aldiv@counter,f
  9594  1122  2930               	goto	l3104
  9595  1123                     l3102:
  9596  1123  3001               	movlw	1
  9597  1124  00AD               	movwf	??___aldiv
  9598  1125                     u4565:
  9599  1125  1003               	clrc
  9600  1126  0DA5               	rlf	___aldiv@divisor,f
  9601  1127  0DA6               	rlf	___aldiv@divisor+1,f
  9602  1128  0DA7               	rlf	___aldiv@divisor+2,f
  9603  1129  0DA8               	rlf	___aldiv@divisor+3,f
  9604  112A  0BAD               	decfsz	??___aldiv,f
  9605  112B  2925               	goto	u4565
  9606  112C  3001               	movlw	1
  9607  112D  00AD               	movwf	??___aldiv
  9608  112E  082D               	movf	??___aldiv,w
  9609  112F  07AE               	addwf	___aldiv@counter,f
  9610  1130                     l3104:
  9611  1130  1FA8               	btfss	___aldiv@divisor+3,7
  9612  1131  2933               	goto	u4571
  9613  1132  2934               	goto	u4570
  9614  1133                     u4571:
  9615  1133  2923               	goto	l3102
  9616  1134                     u4570:
  9617  1134                     l3106:
  9618  1134  3001               	movlw	1
  9619  1135  00AD               	movwf	??___aldiv
  9620  1136                     u4585:
  9621  1136  1003               	clrc
  9622  1137  0DB0               	rlf	___aldiv@quotient,f
  9623  1138  0DB1               	rlf	___aldiv@quotient+1,f
  9624  1139  0DB2               	rlf	___aldiv@quotient+2,f
  9625  113A  0DB3               	rlf	___aldiv@quotient+3,f
  9626  113B  0BAD               	decfsz	??___aldiv,f
  9627  113C  2936               	goto	u4585
  9628  113D                     l3108:
  9629  113D  0828               	movf	___aldiv@divisor+3,w
  9630  113E  022C               	subwf	___aldiv@dividend+3,w
  9631  113F  1D03               	skipz
  9632  1140  294B               	goto	u4595
  9633  1141  0827               	movf	___aldiv@divisor+2,w
  9634  1142  022B               	subwf	___aldiv@dividend+2,w
  9635  1143  1D03               	skipz
  9636  1144  294B               	goto	u4595
  9637  1145  0826               	movf	___aldiv@divisor+1,w
  9638  1146  022A               	subwf	___aldiv@dividend+1,w
  9639  1147  1D03               	skipz
  9640  1148  294B               	goto	u4595
  9641  1149  0825               	movf	___aldiv@divisor,w
  9642  114A  0229               	subwf	___aldiv@dividend,w
  9643  114B                     u4595:
  9644  114B  1C03               	skipc
  9645  114C  294E               	goto	u4591
  9646  114D  294F               	goto	u4590
  9647  114E                     u4591:
  9648  114E  295E               	goto	l3114
  9649  114F                     u4590:
  9650  114F                     l3110:
  9651  114F  0825               	movf	___aldiv@divisor,w
  9652  1150  02A9               	subwf	___aldiv@dividend,f
  9653  1151  0826               	movf	___aldiv@divisor+1,w
  9654  1152  1C03               	skipc
  9655  1153  0F26               	incfsz	___aldiv@divisor+1,w
  9656  1154  02AA               	subwf	___aldiv@dividend+1,f
  9657  1155  0827               	movf	___aldiv@divisor+2,w
  9658  1156  1C03               	skipc
  9659  1157  0F27               	incfsz	___aldiv@divisor+2,w
  9660  1158  02AB               	subwf	___aldiv@dividend+2,f
  9661  1159  0828               	movf	___aldiv@divisor+3,w
  9662  115A  1C03               	skipc
  9663  115B  0F28               	incfsz	___aldiv@divisor+3,w
  9664  115C  02AC               	subwf	___aldiv@dividend+3,f
  9665  115D                     l3112:
  9666  115D  1430               	bsf	___aldiv@quotient,0
  9667  115E                     l3114:
  9668  115E  3001               	movlw	1
  9669  115F                     u4605:
  9670  115F  1003               	clrc
  9671  1160  0CA8               	rrf	___aldiv@divisor+3,f
  9672  1161  0CA7               	rrf	___aldiv@divisor+2,f
  9673  1162  0CA6               	rrf	___aldiv@divisor+1,f
  9674  1163  0CA5               	rrf	___aldiv@divisor,f
  9675  1164  3EFF               	addlw	-1
  9676  1165  1D03               	skipz
  9677  1166  295F               	goto	u4605
  9678  1167                     l3116:
  9679  1167  3001               	movlw	1
  9680  1168  02AE               	subwf	___aldiv@counter,f
  9681  1169  1D03               	btfss	3,2
  9682  116A  296C               	goto	u4611
  9683  116B  296D               	goto	u4610
  9684  116C                     u4611:
  9685  116C  2934               	goto	l3106
  9686  116D                     u4610:
  9687  116D                     l3118:
  9688  116D  082F               	movf	___aldiv@sign,w
  9689  116E  1903               	btfsc	3,2
  9690  116F  2971               	goto	u4621
  9691  1170  2972               	goto	u4620
  9692  1171                     u4621:
  9693  1171  297D               	goto	l3122
  9694  1172                     u4620:
  9695  1172                     l3120:
  9696  1172  09B0               	comf	___aldiv@quotient,f
  9697  1173  09B1               	comf	___aldiv@quotient+1,f
  9698  1174  09B2               	comf	___aldiv@quotient+2,f
  9699  1175  09B3               	comf	___aldiv@quotient+3,f
  9700  1176  0AB0               	incf	___aldiv@quotient,f
  9701  1177  1903               	skipnz
  9702  1178  0AB1               	incf	___aldiv@quotient+1,f
  9703  1179  1903               	skipnz
  9704  117A  0AB2               	incf	___aldiv@quotient+2,f
  9705  117B  1903               	skipnz
  9706  117C  0AB3               	incf	___aldiv@quotient+3,f
  9707  117D                     l3122:
  9708  117D  0833               	movf	___aldiv@quotient+3,w
  9709  117E  00A8               	movwf	?___aldiv+3
  9710  117F  0832               	movf	___aldiv@quotient+2,w
  9711  1180  00A7               	movwf	?___aldiv+2
  9712  1181  0831               	movf	___aldiv@quotient+1,w
  9713  1182  00A6               	movwf	?___aldiv+1
  9714  1183  0830               	movf	___aldiv@quotient,w
  9715  1184  00A5               	movwf	?___aldiv
  9716  1185                     l423:
  9717  1185  0008               	return
  9718  1186                     __end_of___aldiv:
  9719                           
  9720                           	psect	text25
  9721  1BA8                     __ptext25:	
  9722 ;; *************** function _Lcd_Write_String *****************
  9723 ;; Defined at:
  9724 ;;		line 104 in file "./lcd.h"
  9725 ;; Parameters:    Size  Location     Type
  9726 ;;  a               1    wreg     PTR unsigned char 
  9727 ;;		 -> STR_8(3), STR_7(3), STR_6(4), STR_5(4), 
  9728 ;;		 -> STR_4(8), STR_3(5), STR_2(7), STR_1(5), 
  9729 ;; Auto vars:     Size  Location     Type
  9730 ;;  a               1    9[COMMON] PTR unsigned char 
  9731 ;;		 -> STR_8(3), STR_7(3), STR_6(4), STR_5(4), 
  9732 ;;		 -> STR_4(8), STR_3(5), STR_2(7), STR_1(5), 
  9733 ;;  i               2    7[COMMON] int 
  9734 ;; Return value:  Size  Location     Type
  9735 ;;                  1    wreg      void 
  9736 ;; Registers used:
  9737 ;;		wreg, fsr0l, fsr0h, status,2, status,0, pclath, cstack
  9738 ;; Tracked objects:
  9739 ;;		On entry : 0/0
  9740 ;;		On exit  : 0/0
  9741 ;;		Unchanged: 0/0
  9742 ;; Data sizes:     COMMON   BANK0   BANK1   BANK3   BANK2
  9743 ;;      Params:         0       0       0       0       0
  9744 ;;      Locals:         3       0       0       0       0
  9745 ;;      Temps:          0       0       0       0       0
  9746 ;;      Totals:         3       0       0       0       0
  9747 ;;Total ram usage:        3 bytes
  9748 ;; Hardware stack levels used:    1
  9749 ;; Hardware stack levels required when called:    3
  9750 ;; This function calls:
  9751 ;;		_Lcd_Write_Char
  9752 ;; This function is called by:
  9753 ;;		_main
  9754 ;; This function uses a non-reentrant model
  9755 ;;
  9756                           
  9757                           
  9758                           ;psect for function _Lcd_Write_String
  9759  1BA8                     _Lcd_Write_String:
  9760                           
  9761                           ;incstack = 0
  9762                           ; Regs used in _Lcd_Write_String: [wreg-fsr0h+status,2+status,0+pclath+cstack]
  9763                           ;Lcd_Write_String@a stored from wreg
  9764  1BA8  00F9               	movwf	Lcd_Write_String@a
  9765  1BA9                     l3832:
  9766                           
  9767                           ;./lcd.h: 104: void Lcd_Write_String(char *a);./lcd.h: 105: {;./lcd.h: 106:    int i;;./
      +                          lcd.h: 107:    for(i=0;a[i]!='\0';i++)
  9768  1BA9  01F7               	clrf	Lcd_Write_String@i
  9769  1BAA  01F8               	clrf	Lcd_Write_String@i+1
  9770  1BAB  2BBF               	goto	l3838
  9771  1BAC                     l3834:
  9772                           
  9773                           ;./lcd.h: 108:       Lcd_Write_Char(a[i]);
  9774  1BAC  0877               	movf	Lcd_Write_String@i,w
  9775  1BAD  0779               	addwf	Lcd_Write_String@a,w
  9776  1BAE  0084               	movwf	4
  9777  1BAF  160A  158A  2000  160A  158A  	fcall	stringdir
  9778  1BB4  160A  158A  23F6  160A  158A  	fcall	_Lcd_Write_Char
  9779  1BB9                     l3836:
  9780  1BB9  3001               	movlw	1
  9781  1BBA  07F7               	addwf	Lcd_Write_String@i,f
  9782  1BBB  1803               	skipnc
  9783  1BBC  0AF8               	incf	Lcd_Write_String@i+1,f
  9784  1BBD  3000               	movlw	0
  9785  1BBE  07F8               	addwf	Lcd_Write_String@i+1,f
  9786  1BBF                     l3838:
  9787  1BBF  0877               	movf	Lcd_Write_String@i,w
  9788  1BC0  0779               	addwf	Lcd_Write_String@a,w
  9789  1BC1  0084               	movwf	4
  9790  1BC2  160A  158A  2000  160A  158A  	fcall	stringdir
  9791  1BC7  3A00               	xorlw	0
  9792  1BC8  1D03               	skipz
  9793  1BC9  2BCB               	goto	u6301
  9794  1BCA  2BCC               	goto	u6300
  9795  1BCB                     u6301:
  9796  1BCB  2BAC               	goto	l3834
  9797  1BCC                     u6300:
  9798  1BCC                     l105:
  9799  1BCC  0008               	return
  9800  1BCD                     __end_of_Lcd_Write_String:
  9801                           
  9802                           	psect	text26
  9803  1BF6                     __ptext26:	
  9804 ;; *************** function _Lcd_Write_Char *****************
  9805 ;; Defined at:
  9806 ;;		line 88 in file "./lcd.h"
  9807 ;; Parameters:    Size  Location     Type
  9808 ;;  a               1    wreg     unsigned char 
  9809 ;; Auto vars:     Size  Location     Type
  9810 ;;  a               1    6[COMMON] unsigned char 
  9811 ;;  y               1    5[COMMON] unsigned char 
  9812 ;;  temp            1    4[COMMON] unsigned char 
  9813 ;; Return value:  Size  Location     Type
  9814 ;;                  1    wreg      void 
  9815 ;; Registers used:
  9816 ;;		wreg, status,2, status,0, pclath, cstack
  9817 ;; Tracked objects:
  9818 ;;		On entry : 0/0
  9819 ;;		On exit  : 0/0
  9820 ;;		Unchanged: 0/0
  9821 ;; Data sizes:     COMMON   BANK0   BANK1   BANK3   BANK2
  9822 ;;      Params:         0       0       0       0       0
  9823 ;;      Locals:         3       0       0       0       0
  9824 ;;      Temps:          1       0       0       0       0
  9825 ;;      Totals:         4       0       0       0       0
  9826 ;;Total ram usage:        4 bytes
  9827 ;; Hardware stack levels used:    1
  9828 ;; Hardware stack levels required when called:    2
  9829 ;; This function calls:
  9830 ;;		_Lcd_Port
  9831 ;; This function is called by:
  9832 ;;		_Lcd_Write_String
  9833 ;;		_main
  9834 ;; This function uses a non-reentrant model
  9835 ;;
  9836                           
  9837                           
  9838                           ;psect for function _Lcd_Write_Char
  9839  1BF6                     _Lcd_Write_Char:
  9840                           
  9841                           ;incstack = 0
  9842                           ; Regs used in _Lcd_Write_Char: [wreg+status,2+status,0+pclath+cstack]
  9843                           ;Lcd_Write_Char@a stored from wreg
  9844  1BF6  00F6               	movwf	Lcd_Write_Char@a
  9845  1BF7                     l3720:
  9846                           
  9847                           ;./lcd.h: 88: void Lcd_Write_Char(char a);./lcd.h: 89: {;./lcd.h: 90:    char temp,y;;./
      +                          lcd.h: 91:    temp = a&0x0F;
  9848  1BF7  0876               	movf	Lcd_Write_Char@a,w
  9849  1BF8  390F               	andlw	15
  9850  1BF9  00F3               	movwf	??_Lcd_Write_Char
  9851  1BFA  0873               	movf	??_Lcd_Write_Char,w
  9852  1BFB  00F4               	movwf	Lcd_Write_Char@temp
  9853                           
  9854                           ;./lcd.h: 92:    y = a&0xF0;
  9855  1BFC  0876               	movf	Lcd_Write_Char@a,w
  9856  1BFD  39F0               	andlw	240
  9857  1BFE  00F3               	movwf	??_Lcd_Write_Char
  9858  1BFF  0873               	movf	??_Lcd_Write_Char,w
  9859  1C00  00F5               	movwf	Lcd_Write_Char@y
  9860  1C01                     l3722:
  9861                           
  9862                           ;./lcd.h: 93:    RB4 = 1;
  9863  1C01  1283               	bcf	3,5	;RP0=0, select bank0
  9864  1C02  1303               	bcf	3,6	;RP1=0, select bank0
  9865  1C03  1606               	bsf	6,4	;volatile
  9866  1C04                     l3724:
  9867                           
  9868                           ;./lcd.h: 94:    Lcd_Port(y>>4);
  9869  1C04  0875               	movf	Lcd_Write_Char@y,w
  9870  1C05  00F3               	movwf	??_Lcd_Write_Char
  9871  1C06  3004               	movlw	4
  9872  1C07                     u6075:
  9873  1C07  1003               	clrc
  9874  1C08  0CF3               	rrf	??_Lcd_Write_Char,f
  9875  1C09  3EFF               	addlw	-1
  9876  1C0A  1D03               	skipz
  9877  1C0B  2C07               	goto	u6075
  9878  1C0C  0873               	movf	??_Lcd_Write_Char,w
  9879  1C0D  160A  158A  2386  160A  158A  	fcall	_Lcd_Port
  9880  1C12                     l3726:
  9881                           
  9882                           ;./lcd.h: 95:    RB2 = 1;
  9883  1C12  1283               	bcf	3,5	;RP0=0, select bank0
  9884  1C13  1303               	bcf	3,6	;RP1=0, select bank0
  9885  1C14  1506               	bsf	6,2	;volatile
  9886  1C15                     l3728:
  9887                           
  9888                           ;./lcd.h: 96:    _delay((unsigned long)((40)*(20000000/4000000.0)));
  9889  1C15  3042               	movlw	66
  9890  1C16  00F3               	movwf	??_Lcd_Write_Char
  9891  1C17                     u6617:
  9892  1C17  0BF3               	decfsz	??_Lcd_Write_Char,f
  9893  1C18  2C17               	goto	u6617
  9894  1C19  0000               	nop
  9895  1C1A                     l3730:
  9896                           
  9897                           ;./lcd.h: 97:    RB2 = 0;
  9898  1C1A  1283               	bcf	3,5	;RP0=0, select bank0
  9899  1C1B  1303               	bcf	3,6	;RP1=0, select bank0
  9900  1C1C  1106               	bcf	6,2	;volatile
  9901  1C1D                     l3732:
  9902                           
  9903                           ;./lcd.h: 98:    Lcd_Port(temp);
  9904  1C1D  0874               	movf	Lcd_Write_Char@temp,w
  9905  1C1E  160A  158A  2386  160A  158A  	fcall	_Lcd_Port
  9906  1C23                     l3734:
  9907                           
  9908                           ;./lcd.h: 99:    RB2 = 1;
  9909  1C23  1283               	bcf	3,5	;RP0=0, select bank0
  9910  1C24  1303               	bcf	3,6	;RP1=0, select bank0
  9911  1C25  1506               	bsf	6,2	;volatile
  9912  1C26                     l3736:
  9913                           
  9914                           ;./lcd.h: 100:    _delay((unsigned long)((40)*(20000000/4000000.0)));
  9915  1C26  3042               	movlw	66
  9916  1C27  00F3               	movwf	??_Lcd_Write_Char
  9917  1C28                     u6627:
  9918  1C28  0BF3               	decfsz	??_Lcd_Write_Char,f
  9919  1C29  2C28               	goto	u6627
  9920  1C2A  0000               	nop
  9921  1C2B                     l3738:
  9922                           
  9923                           ;./lcd.h: 101:    RB2 = 0;
  9924  1C2B  1283               	bcf	3,5	;RP0=0, select bank0
  9925  1C2C  1303               	bcf	3,6	;RP1=0, select bank0
  9926  1C2D  1106               	bcf	6,2	;volatile
  9927  1C2E                     l99:
  9928  1C2E  0008               	return
  9929  1C2F                     __end_of_Lcd_Write_Char:
  9930                           
  9931                           	psect	text27
  9932  1D50                     __ptext27:	
  9933 ;; *************** function _Lcd_Set_Cursor *****************
  9934 ;; Defined at:
  9935 ;;		line 47 in file "./lcd.h"
  9936 ;; Parameters:    Size  Location     Type
  9937 ;;  a               1    wreg     unsigned char 
  9938 ;;  b               1    5[COMMON] unsigned char 
  9939 ;; Auto vars:     Size  Location     Type
  9940 ;;  a               1    0[BANK0 ] unsigned char 
  9941 ;;  temp            1    3[BANK0 ] unsigned char 
  9942 ;;  y               1    2[BANK0 ] unsigned char 
  9943 ;;  z               1    1[BANK0 ] unsigned char 
  9944 ;; Return value:  Size  Location     Type
  9945 ;;                  1    wreg      void 
  9946 ;; Registers used:
  9947 ;;		wreg, status,2, status,0, pclath, cstack
  9948 ;; Tracked objects:
  9949 ;;		On entry : 0/0
  9950 ;;		On exit  : 0/0
  9951 ;;		Unchanged: 0/0
  9952 ;; Data sizes:     COMMON   BANK0   BANK1   BANK3   BANK2
  9953 ;;      Params:         1       0       0       0       0
  9954 ;;      Locals:         0       4       0       0       0
  9955 ;;      Temps:          2       0       0       0       0
  9956 ;;      Totals:         3       4       0       0       0
  9957 ;;Total ram usage:        7 bytes
  9958 ;; Hardware stack levels used:    1
  9959 ;; Hardware stack levels required when called:    3
  9960 ;; This function calls:
  9961 ;;		_Lcd_Cmd
  9962 ;; This function is called by:
  9963 ;;		_main
  9964 ;; This function uses a non-reentrant model
  9965 ;;
  9966                           
  9967                           
  9968                           ;psect for function _Lcd_Set_Cursor
  9969  1D50                     _Lcd_Set_Cursor:
  9970                           
  9971                           ;incstack = 0
  9972                           ; Regs used in _Lcd_Set_Cursor: [wreg+status,2+status,0+pclath+cstack]
  9973                           ;Lcd_Set_Cursor@a stored from wreg
  9974  1D50  1283               	bcf	3,5	;RP0=0, select bank0
  9975  1D51  1303               	bcf	3,6	;RP1=0, select bank0
  9976  1D52  00A0               	movwf	Lcd_Set_Cursor@a
  9977  1D53                     l3800:
  9978                           
  9979                           ;./lcd.h: 47: void Lcd_Set_Cursor(char a, char b);./lcd.h: 48: {;./lcd.h: 49:    char te
      +                          mp,z,y;;./lcd.h: 50:    if(a == 1)
  9980  1D53  0320               	decf	Lcd_Set_Cursor@a,w
  9981  1D54  1D03               	btfss	3,2
  9982  1D55  2D57               	goto	u6261
  9983  1D56  2D58               	goto	u6260
  9984  1D57                     u6261:
  9985  1D57  2D7D               	goto	l3810
  9986  1D58                     u6260:
  9987  1D58                     l3802:
  9988                           
  9989                           ;./lcd.h: 51:    {;./lcd.h: 52:      temp = 0x80 + b - 1;
  9990  1D58  0875               	movf	Lcd_Set_Cursor@b,w
  9991  1D59  3E7F               	addlw	127
  9992  1D5A  00F6               	movwf	??_Lcd_Set_Cursor
  9993  1D5B  0876               	movf	??_Lcd_Set_Cursor,w
  9994  1D5C  00A3               	movwf	Lcd_Set_Cursor@temp
  9995                           
  9996                           ;./lcd.h: 53:       z = temp>>4;
  9997  1D5D  0823               	movf	Lcd_Set_Cursor@temp,w
  9998  1D5E  00F6               	movwf	??_Lcd_Set_Cursor
  9999  1D5F  3004               	movlw	4
 10000  1D60                     u6275:
 10001  1D60  1003               	clrc
 10002  1D61  0CF6               	rrf	??_Lcd_Set_Cursor,f
 10003  1D62  3EFF               	addlw	-1
 10004  1D63  1D03               	skipz
 10005  1D64  2D60               	goto	u6275
 10006  1D65  0876               	movf	??_Lcd_Set_Cursor,w
 10007  1D66  00F7               	movwf	??_Lcd_Set_Cursor+1
 10008  1D67  0877               	movf	??_Lcd_Set_Cursor+1,w
 10009  1D68  00A1               	movwf	Lcd_Set_Cursor@z
 10010  1D69                     l3804:
 10011                           
 10012                           ;./lcd.h: 54:       y = temp & 0x0F;
 10013  1D69  0823               	movf	Lcd_Set_Cursor@temp,w
 10014  1D6A  390F               	andlw	15
 10015  1D6B  00F6               	movwf	??_Lcd_Set_Cursor
 10016  1D6C  0876               	movf	??_Lcd_Set_Cursor,w
 10017  1D6D  00A2               	movwf	Lcd_Set_Cursor@y
 10018  1D6E                     l3806:
 10019                           
 10020                           ;./lcd.h: 55:       Lcd_Cmd(z);
 10021  1D6E  0821               	movf	Lcd_Set_Cursor@z,w
 10022  1D6F  120A  158A  2000  160A  158A  	fcall	_Lcd_Cmd
 10023  1D74                     l3808:
 10024                           
 10025                           ;./lcd.h: 56:       Lcd_Cmd(y);
 10026  1D74  1283               	bcf	3,5	;RP0=0, select bank0
 10027  1D75  1303               	bcf	3,6	;RP1=0, select bank0
 10028  1D76  0822               	movf	Lcd_Set_Cursor@y,w
 10029  1D77  120A  158A  2000  160A  158A  	fcall	_Lcd_Cmd
 10030                           
 10031                           ;./lcd.h: 57:    }
 10032  1D7C  2DA7               	goto	l93
 10033  1D7D                     l3810:
 10034  1D7D  3002               	movlw	2
 10035  1D7E  0620               	xorwf	Lcd_Set_Cursor@a,w
 10036  1D7F  1D03               	btfss	3,2
 10037  1D80  2D82               	goto	u6281
 10038  1D81  2D83               	goto	u6280
 10039  1D82                     u6281:
 10040  1D82  2DA7               	goto	l93
 10041  1D83                     u6280:
 10042  1D83                     l3812:
 10043                           
 10044                           ;./lcd.h: 59:    {;./lcd.h: 60:       temp = 0xC0 + b - 1;
 10045  1D83  0875               	movf	Lcd_Set_Cursor@b,w
 10046  1D84  3EBF               	addlw	191
 10047  1D85  00F6               	movwf	??_Lcd_Set_Cursor
 10048  1D86  0876               	movf	??_Lcd_Set_Cursor,w
 10049  1D87  00A3               	movwf	Lcd_Set_Cursor@temp
 10050                           
 10051                           ;./lcd.h: 61:       z = temp>>4;
 10052  1D88  0823               	movf	Lcd_Set_Cursor@temp,w
 10053  1D89  00F6               	movwf	??_Lcd_Set_Cursor
 10054  1D8A  3004               	movlw	4
 10055  1D8B                     u6295:
 10056  1D8B  1003               	clrc
 10057  1D8C  0CF6               	rrf	??_Lcd_Set_Cursor,f
 10058  1D8D  3EFF               	addlw	-1
 10059  1D8E  1D03               	skipz
 10060  1D8F  2D8B               	goto	u6295
 10061  1D90  0876               	movf	??_Lcd_Set_Cursor,w
 10062  1D91  00F7               	movwf	??_Lcd_Set_Cursor+1
 10063  1D92  0877               	movf	??_Lcd_Set_Cursor+1,w
 10064  1D93  00A1               	movwf	Lcd_Set_Cursor@z
 10065  1D94                     l3814:
 10066                           
 10067                           ;./lcd.h: 62:       y = temp & 0x0F;
 10068  1D94  0823               	movf	Lcd_Set_Cursor@temp,w
 10069  1D95  390F               	andlw	15
 10070  1D96  00F6               	movwf	??_Lcd_Set_Cursor
 10071  1D97  0876               	movf	??_Lcd_Set_Cursor,w
 10072  1D98  00A2               	movwf	Lcd_Set_Cursor@y
 10073  1D99                     l3816:
 10074                           
 10075                           ;./lcd.h: 63:       Lcd_Cmd(z);
 10076  1D99  0821               	movf	Lcd_Set_Cursor@z,w
 10077  1D9A  120A  158A  2000  160A  158A  	fcall	_Lcd_Cmd
 10078  1D9F                     l3818:
 10079                           
 10080                           ;./lcd.h: 64:       Lcd_Cmd(y);
 10081  1D9F  1283               	bcf	3,5	;RP0=0, select bank0
 10082  1DA0  1303               	bcf	3,6	;RP1=0, select bank0
 10083  1DA1  0822               	movf	Lcd_Set_Cursor@y,w
 10084  1DA2  120A  158A  2000  160A  158A  	fcall	_Lcd_Cmd
 10085  1DA7                     l93:
 10086  1DA7  0008               	return
 10087  1DA8                     __end_of_Lcd_Set_Cursor:
 10088                           
 10089                           	psect	text28
 10090  0816                     __ptext28:	
 10091 ;; *************** function _Lcd_Init *****************
 10092 ;; Defined at:
 10093 ;;		line 68 in file "./lcd.h"
 10094 ;; Parameters:    Size  Location     Type
 10095 ;;		None
 10096 ;; Auto vars:     Size  Location     Type
 10097 ;;		None
 10098 ;; Return value:  Size  Location     Type
 10099 ;;                  1    wreg      void 
 10100 ;; Registers used:
 10101 ;;		wreg, status,2, status,0, pclath, cstack
 10102 ;; Tracked objects:
 10103 ;;		On entry : 0/0
 10104 ;;		On exit  : 0/0
 10105 ;;		Unchanged: 0/0
 10106 ;; Data sizes:     COMMON   BANK0   BANK1   BANK3   BANK2
 10107 ;;      Params:         0       0       0       0       0
 10108 ;;      Locals:         0       0       0       0       0
 10109 ;;      Temps:          2       0       0       0       0
 10110 ;;      Totals:         2       0       0       0       0
 10111 ;;Total ram usage:        2 bytes
 10112 ;; Hardware stack levels used:    1
 10113 ;; Hardware stack levels required when called:    3
 10114 ;; This function calls:
 10115 ;;		_Lcd_Cmd
 10116 ;;		_Lcd_Port
 10117 ;; This function is called by:
 10118 ;;		_main
 10119 ;; This function uses a non-reentrant model
 10120 ;;
 10121                           
 10122                           
 10123                           ;psect for function _Lcd_Init
 10124  0816                     _Lcd_Init:
 10125  0816                     l3820:	
 10126                           ;incstack = 0
 10127                           ; Regs used in _Lcd_Init: [wreg+status,2+status,0+pclath+cstack]
 10128                           
 10129                           
 10130                           ;./lcd.h: 70:     RB3=0;
 10131  0816  1283               	bcf	3,5	;RP0=0, select bank0
 10132  0817  1303               	bcf	3,6	;RP1=0, select bank0
 10133  0818  1186               	bcf	6,3	;volatile
 10134  0819                     l3822:
 10135                           
 10136                           ;./lcd.h: 71:   Lcd_Port(0x00);
 10137  0819  3000               	movlw	0
 10138  081A  160A  158A  2386  120A  158A  	fcall	_Lcd_Port
 10139  081F                     l3824:
 10140                           
 10141                           ;./lcd.h: 72:    _delay((unsigned long)((20)*(20000000/4000.0)));
 10142  081F  3082               	movlw	130
 10143  0820  00F6               	movwf	??_Lcd_Init+1
 10144  0821  30DD               	movlw	221
 10145  0822  00F5               	movwf	??_Lcd_Init
 10146  0823                     u6637:
 10147  0823  0BF5               	decfsz	??_Lcd_Init,f
 10148  0824  2823               	goto	u6637
 10149  0825  0BF6               	decfsz	??_Lcd_Init+1,f
 10150  0826  2823               	goto	u6637
 10151  0827  2828               	nop2
 10152  0828                     l3826:
 10153                           
 10154                           ;./lcd.h: 73:   Lcd_Cmd(0x03);
 10155  0828  3003               	movlw	3
 10156  0829  120A  158A  2000  120A  158A  	fcall	_Lcd_Cmd
 10157                           
 10158                           ;./lcd.h: 74:    _delay((unsigned long)((5)*(20000000/4000.0)));
 10159  082E  3021               	movlw	33
 10160  082F  00F6               	movwf	??_Lcd_Init+1
 10161  0830  3076               	movlw	118
 10162  0831  00F5               	movwf	??_Lcd_Init
 10163  0832                     u6647:
 10164  0832  0BF5               	decfsz	??_Lcd_Init,f
 10165  0833  2832               	goto	u6647
 10166  0834  0BF6               	decfsz	??_Lcd_Init+1,f
 10167  0835  2832               	goto	u6647
 10168  0836  0000               	nop
 10169  0837                     l3828:
 10170                           
 10171                           ;./lcd.h: 75:   Lcd_Cmd(0x03);
 10172  0837  3003               	movlw	3
 10173  0838  120A  158A  2000  120A  158A  	fcall	_Lcd_Cmd
 10174  083D                     l3830:
 10175                           
 10176                           ;./lcd.h: 76:    _delay((unsigned long)((11)*(20000000/4000.0)));
 10177  083D  3048               	movlw	72
 10178  083E  00F6               	movwf	??_Lcd_Init+1
 10179  083F  306C               	movlw	108
 10180  0840  00F5               	movwf	??_Lcd_Init
 10181  0841                     u6657:
 10182  0841  0BF5               	decfsz	??_Lcd_Init,f
 10183  0842  2841               	goto	u6657
 10184  0843  0BF6               	decfsz	??_Lcd_Init+1,f
 10185  0844  2841               	goto	u6657
 10186  0845  0000               	nop
 10187                           
 10188                           ;./lcd.h: 77:   Lcd_Cmd(0x03);
 10189  0846  3003               	movlw	3
 10190  0847  120A  158A  2000  120A  158A  	fcall	_Lcd_Cmd
 10191                           
 10192                           ;./lcd.h: 79:   Lcd_Cmd(0x02);
 10193  084C  3002               	movlw	2
 10194  084D  120A  158A  2000  120A  158A  	fcall	_Lcd_Cmd
 10195                           
 10196                           ;./lcd.h: 80:   Lcd_Cmd(0x02);
 10197  0852  3002               	movlw	2
 10198  0853  120A  158A  2000  120A  158A  	fcall	_Lcd_Cmd
 10199                           
 10200                           ;./lcd.h: 81:   Lcd_Cmd(0x08);
 10201  0858  3008               	movlw	8
 10202  0859  120A  158A  2000  120A  158A  	fcall	_Lcd_Cmd
 10203                           
 10204                           ;./lcd.h: 82:   Lcd_Cmd(0x00);
 10205  085E  3000               	movlw	0
 10206  085F  120A  158A  2000  120A  158A  	fcall	_Lcd_Cmd
 10207                           
 10208                           ;./lcd.h: 83:   Lcd_Cmd(0x0C);
 10209  0864  300C               	movlw	12
 10210  0865  120A  158A  2000  120A  158A  	fcall	_Lcd_Cmd
 10211                           
 10212                           ;./lcd.h: 84:   Lcd_Cmd(0x00);
 10213  086A  3000               	movlw	0
 10214  086B  120A  158A  2000  120A  158A  	fcall	_Lcd_Cmd
 10215                           
 10216                           ;./lcd.h: 85:   Lcd_Cmd(0x06);
 10217  0870  3006               	movlw	6
 10218  0871  120A  158A  2000  120A  158A  	fcall	_Lcd_Cmd
 10219  0876                     l96:
 10220  0876  0008               	return
 10221  0877                     __end_of_Lcd_Init:
 10222                           
 10223                           	psect	text29
 10224  0800                     __ptext29:	
 10225 ;; *************** function _Lcd_Cmd *****************
 10226 ;; Defined at:
 10227 ;;		line 32 in file "./lcd.h"
 10228 ;; Parameters:    Size  Location     Type
 10229 ;;  a               1    wreg     unsigned char 
 10230 ;; Auto vars:     Size  Location     Type
 10231 ;;  a               1    4[COMMON] unsigned char 
 10232 ;; Return value:  Size  Location     Type
 10233 ;;                  1    wreg      void 
 10234 ;; Registers used:
 10235 ;;		wreg, status,2, status,0, pclath, cstack
 10236 ;; Tracked objects:
 10237 ;;		On entry : 0/0
 10238 ;;		On exit  : 0/0
 10239 ;;		Unchanged: 0/0
 10240 ;; Data sizes:     COMMON   BANK0   BANK1   BANK3   BANK2
 10241 ;;      Params:         0       0       0       0       0
 10242 ;;      Locals:         1       0       0       0       0
 10243 ;;      Temps:          1       0       0       0       0
 10244 ;;      Totals:         2       0       0       0       0
 10245 ;;Total ram usage:        2 bytes
 10246 ;; Hardware stack levels used:    1
 10247 ;; Hardware stack levels required when called:    2
 10248 ;; This function calls:
 10249 ;;		_Lcd_Port
 10250 ;; This function is called by:
 10251 ;;		_Lcd_Set_Cursor
 10252 ;;		_Lcd_Init
 10253 ;;		_Lcd_Clear
 10254 ;; This function uses a non-reentrant model
 10255 ;;
 10256                           
 10257                           
 10258                           ;psect for function _Lcd_Cmd
 10259  0800                     _Lcd_Cmd:
 10260                           
 10261                           ;incstack = 0
 10262                           ; Regs used in _Lcd_Cmd: [wreg+status,2+status,0+pclath+cstack]
 10263                           ;Lcd_Cmd@a stored from wreg
 10264  0800  00F4               	movwf	Lcd_Cmd@a
 10265  0801                     l3710:
 10266                           
 10267                           ;./lcd.h: 32: void Lcd_Cmd(char a);./lcd.h: 33: {;./lcd.h: 34:    RB4 = 0;
 10268  0801  1283               	bcf	3,5	;RP0=0, select bank0
 10269  0802  1303               	bcf	3,6	;RP1=0, select bank0
 10270  0803  1206               	bcf	6,4	;volatile
 10271  0804                     l3712:
 10272                           
 10273                           ;./lcd.h: 35:    Lcd_Port(a);
 10274  0804  0874               	movf	Lcd_Cmd@a,w
 10275  0805  160A  158A  2386  120A  158A  	fcall	_Lcd_Port
 10276  080A                     l3714:
 10277                           
 10278                           ;./lcd.h: 36:    RB2 = 1;
 10279  080A  1283               	bcf	3,5	;RP0=0, select bank0
 10280  080B  1303               	bcf	3,6	;RP1=0, select bank0
 10281  080C  1506               	bsf	6,2	;volatile
 10282  080D                     l3716:
 10283                           
 10284                           ;./lcd.h: 37:     _delay((unsigned long)((100)*(20000000/4000000.0)));
 10285  080D  30A6               	movlw	166
 10286  080E  00F3               	movwf	??_Lcd_Cmd
 10287  080F                     u6667:
 10288  080F  0BF3               	decfsz	??_Lcd_Cmd,f
 10289  0810  280F               	goto	u6667
 10290  0811  0000               	nop
 10291  0812                     l3718:
 10292                           
 10293                           ;./lcd.h: 38:     RB2 = 0;
 10294  0812  1283               	bcf	3,5	;RP0=0, select bank0
 10295  0813  1303               	bcf	3,6	;RP1=0, select bank0
 10296  0814  1106               	bcf	6,2	;volatile
 10297  0815                     l84:
 10298  0815  0008               	return
 10299  0816                     __end_of_Lcd_Cmd:
 10300                           
 10301                           	psect	text30
 10302  1B86                     __ptext30:	
 10303 ;; *************** function _Lcd_Port *****************
 10304 ;; Defined at:
 10305 ;;		line 10 in file "./lcd.h"
 10306 ;; Parameters:    Size  Location     Type
 10307 ;;  a               1    wreg     unsigned char 
 10308 ;; Auto vars:     Size  Location     Type
 10309 ;;  a               1    2[COMMON] unsigned char 
 10310 ;; Return value:  Size  Location     Type
 10311 ;;                  1    wreg      void 
 10312 ;; Registers used:
 10313 ;;		wreg
 10314 ;; Tracked objects:
 10315 ;;		On entry : 0/0
 10316 ;;		On exit  : 0/0
 10317 ;;		Unchanged: 0/0
 10318 ;; Data sizes:     COMMON   BANK0   BANK1   BANK3   BANK2
 10319 ;;      Params:         0       0       0       0       0
 10320 ;;      Locals:         1       0       0       0       0
 10321 ;;      Temps:          0       0       0       0       0
 10322 ;;      Totals:         1       0       0       0       0
 10323 ;;Total ram usage:        1 bytes
 10324 ;; Hardware stack levels used:    1
 10325 ;; Hardware stack levels required when called:    1
 10326 ;; This function calls:
 10327 ;;		Nothing
 10328 ;; This function is called by:
 10329 ;;		_Lcd_Cmd
 10330 ;;		_Lcd_Init
 10331 ;;		_Lcd_Write_Char
 10332 ;; This function uses a non-reentrant model
 10333 ;;
 10334                           
 10335                           
 10336                           ;psect for function _Lcd_Port
 10337  1B86                     _Lcd_Port:
 10338                           
 10339                           ;incstack = 0
 10340                           ; Regs used in _Lcd_Port: [wreg]
 10341                           ;Lcd_Port@a stored from wreg
 10342  1B86  00F2               	movwf	Lcd_Port@a
 10343  1B87                     l3140:
 10344                           
 10345                           ;./lcd.h: 10: void Lcd_Port(char a);./lcd.h: 11: {;./lcd.h: 12:    if(a & 1)
 10346  1B87  1C72               	btfss	Lcd_Port@a,0
 10347  1B88  2B8A               	goto	u4661
 10348  1B89  2B8B               	goto	u4660
 10349  1B8A                     u4661:
 10350  1B8A  2B8F               	goto	l73
 10351  1B8B                     u4660:
 10352  1B8B                     l3142:
 10353                           
 10354                           ;./lcd.h: 13:       RD7 = 1;
 10355  1B8B  1283               	bcf	3,5	;RP0=0, select bank0
 10356  1B8C  1303               	bcf	3,6	;RP1=0, select bank0
 10357  1B8D  1788               	bsf	8,7	;volatile
 10358  1B8E  2B92               	goto	l74
 10359  1B8F                     l73:	
 10360                           ;./lcd.h: 14:    else
 10361                           
 10362                           
 10363                           ;./lcd.h: 15:       RD7 = 0;
 10364  1B8F  1283               	bcf	3,5	;RP0=0, select bank0
 10365  1B90  1303               	bcf	3,6	;RP1=0, select bank0
 10366  1B91  1388               	bcf	8,7	;volatile
 10367  1B92                     l74:
 10368                           
 10369                           ;./lcd.h: 17:    if(a & 2)
 10370  1B92  1CF2               	btfss	Lcd_Port@a,1
 10371  1B93  2B95               	goto	u4671
 10372  1B94  2B96               	goto	u4670
 10373  1B95                     u4671:
 10374  1B95  2B98               	goto	l75
 10375  1B96                     u4670:
 10376  1B96                     l3144:
 10377                           
 10378                           ;./lcd.h: 18:       RD6 = 1;
 10379  1B96  1708               	bsf	8,6	;volatile
 10380  1B97  2B99               	goto	l76
 10381  1B98                     l75:	
 10382                           ;./lcd.h: 19:    else
 10383                           
 10384                           
 10385                           ;./lcd.h: 20:       RD6 = 0;
 10386  1B98  1308               	bcf	8,6	;volatile
 10387  1B99                     l76:
 10388                           
 10389                           ;./lcd.h: 22:    if(a & 4)
 10390  1B99  1D72               	btfss	Lcd_Port@a,2
 10391  1B9A  2B9C               	goto	u4681
 10392  1B9B  2B9D               	goto	u4680
 10393  1B9C                     u4681:
 10394  1B9C  2B9F               	goto	l77
 10395  1B9D                     u4680:
 10396  1B9D                     l3146:
 10397                           
 10398                           ;./lcd.h: 23:       RD5 = 1;
 10399  1B9D  1688               	bsf	8,5	;volatile
 10400  1B9E  2BA0               	goto	l78
 10401  1B9F                     l77:	
 10402                           ;./lcd.h: 24:    else
 10403                           
 10404                           
 10405                           ;./lcd.h: 25:       RD5 = 0;
 10406  1B9F  1288               	bcf	8,5	;volatile
 10407  1BA0                     l78:
 10408                           
 10409                           ;./lcd.h: 27:    if(a & 8)
 10410  1BA0  1DF2               	btfss	Lcd_Port@a,3
 10411  1BA1  2BA3               	goto	u4691
 10412  1BA2  2BA4               	goto	u4690
 10413  1BA3                     u4691:
 10414  1BA3  2BA6               	goto	l79
 10415  1BA4                     u4690:
 10416  1BA4                     l3148:
 10417                           
 10418                           ;./lcd.h: 28:       RD4 = 1;
 10419  1BA4  1608               	bsf	8,4	;volatile
 10420  1BA5  2BA7               	goto	l81
 10421  1BA6                     l79:	
 10422                           ;./lcd.h: 29:    else
 10423                           
 10424                           
 10425                           ;./lcd.h: 30:       RD4 = 0;
 10426  1BA6  1208               	bcf	8,4	;volatile
 10427  1BA7                     l81:
 10428  1BA7  0008               	return
 10429  1BA8                     __end_of_Lcd_Port:
 10430                           
 10431                           	psect	text31
 10432  1E7E                     __ptext31:	
 10433 ;; *************** function _ISR *****************
 10434 ;; Defined at:
 10435 ;;		line 40 in file "Mach_encoder_4NN_LCD_PID_Pic16F887_MPlab.c"
 10436 ;; Parameters:    Size  Location     Type
 10437 ;;		None
 10438 ;; Auto vars:     Size  Location     Type
 10439 ;;		None
 10440 ;; Return value:  Size  Location     Type
 10441 ;;                  1    wreg      void 
 10442 ;; Registers used:
 10443 ;;		wreg, status,2, status,0
 10444 ;; Tracked objects:
 10445 ;;		On entry : 0/0
 10446 ;;		On exit  : 0/0
 10447 ;;		Unchanged: 0/0
 10448 ;; Data sizes:     COMMON   BANK0   BANK1   BANK3   BANK2
 10449 ;;      Params:         0       0       0       0       0
 10450 ;;      Locals:         0       0       0       0       0
 10451 ;;      Temps:          2       0       0       0       0
 10452 ;;      Totals:         2       0       0       0       0
 10453 ;;Total ram usage:        2 bytes
 10454 ;; Hardware stack levels used:    1
 10455 ;; This function calls:
 10456 ;;		Nothing
 10457 ;; This function is called by:
 10458 ;;		Interrupt level 1
 10459 ;; This function uses a non-reentrant model
 10460 ;;
 10461                           
 10462                           
 10463                           ;psect for function _ISR
 10464  1E7E                     _ISR:
 10465  1E7E                     i1l2930:
 10466                           
 10467                           ;Mach_encoder_4NN_LCD_PID_Pic16F887_MPlab.c: 43:     if(INTCONbits.TMR0IF==1)
 10468  1E7E  1D0B               	btfss	11,2	;volatile
 10469  1E7F  2E81               	goto	u444_21
 10470  1E80  2E82               	goto	u444_20
 10471  1E81                     u444_21:
 10472  1E81  2EDB               	goto	i1l2948
 10473  1E82                     u444_20:
 10474  1E82                     i1l2932:
 10475                           
 10476                           ;Mach_encoder_4NN_LCD_PID_Pic16F887_MPlab.c: 44:     {;Mach_encoder_4NN_LCD_PID_Pic16F88
      +                          7_MPlab.c: 45:        INTCONbits.TMR0IF=0;
 10477  1E82  110B               	bcf	11,2	;volatile
 10478  1E83                     i1l2934:
 10479                           
 10480                           ;Mach_encoder_4NN_LCD_PID_Pic16F887_MPlab.c: 46:        TMR0 = 6;
 10481  1E83  3006               	movlw	6
 10482  1E84  1283               	bcf	3,5	;RP0=0, select bank0
 10483  1E85  1303               	bcf	3,6	;RP1=0, select bank0
 10484  1E86  0081               	movwf	1	;volatile
 10485                           
 10486                           ;Mach_encoder_4NN_LCD_PID_Pic16F887_MPlab.c: 48:        dem++;
 10487  1E87  3001               	movlw	1
 10488  1E88  1683               	bsf	3,5	;RP0=1, select bank3
 10489  1E89  1703               	bsf	3,6	;RP1=1, select bank3
 10490  1E8A  07C8               	addwf	_dem^(0+384),f
 10491  1E8B  3000               	movlw	0
 10492  1E8C  1803               	skipnc
 10493  1E8D  3001               	movlw	1
 10494  1E8E  07C9               	addwf	(_dem+1)^(0+384),f
 10495  1E8F  3000               	movlw	0
 10496  1E90  1803               	skipnc
 10497  1E91  3001               	movlw	1
 10498  1E92  07CA               	addwf	(_dem+2)^(0+384),f
 10499  1E93  3000               	movlw	0
 10500  1E94  1803               	skipnc
 10501  1E95  3001               	movlw	1
 10502  1E96  07CB               	addwf	(_dem+3)^(0+384),f
 10503                           
 10504                           ;Mach_encoder_4NN_LCD_PID_Pic16F887_MPlab.c: 49:        chay++;
 10505  1E97  3001               	movlw	1
 10506  1E98  0794               	addwf	_chay^(0+384),f
 10507  1E99  3000               	movlw	0
 10508  1E9A  1803               	skipnc
 10509  1E9B  3001               	movlw	1
 10510  1E9C  0795               	addwf	(_chay+1)^(0+384),f
 10511  1E9D  3000               	movlw	0
 10512  1E9E  1803               	skipnc
 10513  1E9F  3001               	movlw	1
 10514  1EA0  0796               	addwf	(_chay+2)^(0+384),f
 10515  1EA1  3000               	movlw	0
 10516  1EA2  1803               	skipnc
 10517  1EA3  3001               	movlw	1
 10518  1EA4  0797               	addwf	(_chay+3)^(0+384),f
 10519  1EA5                     i1l2936:
 10520                           
 10521                           ;Mach_encoder_4NN_LCD_PID_Pic16F887_MPlab.c: 50:        if(dem>500)
 10522  1EA5  1BCB               	btfsc	(_dem+3)^(0+384),7
 10523  1EA6  2EB8               	goto	u445_21
 10524  1EA7  084B               	movf	(_dem+3)^(0+384),w
 10525  1EA8  1D03               	btfss	3,2
 10526  1EA9  2EB9               	goto	u445_20
 10527  1EAA  084A               	movf	(_dem+2)^(0+384),w
 10528  1EAB  1D03               	btfss	3,2
 10529  1EAC  2EB9               	goto	u445_20
 10530  1EAD  3001               	movlw	1
 10531  1EAE  0249               	subwf	(_dem+1)^(0+384),w
 10532  1EAF  1D03               	skipz
 10533  1EB0  2EB5               	goto	u445_23
 10534  1EB1  30F5               	movlw	245
 10535  1EB2  0248               	subwf	_dem^(0+384),w
 10536  1EB3  1D03               	skipz
 10537  1EB4  2EB5               	goto	u445_23
 10538  1EB5                     u445_23:
 10539  1EB5  1C03               	btfss	3,0
 10540  1EB6  2EB8               	goto	u445_21
 10541  1EB7  2EB9               	goto	u445_20
 10542  1EB8                     u445_21:
 10543  1EB8  2EDB               	goto	i1l2948
 10544  1EB9                     u445_20:
 10545  1EB9                     i1l2938:
 10546                           
 10547                           ;Mach_encoder_4NN_LCD_PID_Pic16F887_MPlab.c: 51:        {;Mach_encoder_4NN_LCD_PID_Pic16
      +                          F887_MPlab.c: 52:            dem=0;
 10548  1EB9  3000               	movlw	0
 10549  1EBA  1683               	bsf	3,5	;RP0=1, select bank3
 10550  1EBB  1703               	bsf	3,6	;RP1=1, select bank3
 10551  1EBC  00CB               	movwf	(_dem+3)^(0+384)
 10552  1EBD  3000               	movlw	0
 10553  1EBE  00CA               	movwf	(_dem+2)^(0+384)
 10554  1EBF  3000               	movlw	0
 10555  1EC0  00C9               	movwf	(_dem+1)^(0+384)
 10556  1EC1  3000               	movlw	0
 10557  1EC2  00C8               	movwf	_dem^(0+384)
 10558  1EC3                     i1l2940:
 10559                           
 10560                           ;Mach_encoder_4NN_LCD_PID_Pic16F887_MPlab.c: 53:            INTCONbits.INTE = 0;
 10561  1EC3  120B               	bcf	11,4	;volatile
 10562  1EC4                     i1l2942:
 10563                           
 10564                           ;Mach_encoder_4NN_LCD_PID_Pic16F887_MPlab.c: 54:            INTCONbits.TMR0IE=0;
 10565  1EC4  128B               	bcf	11,5	;volatile
 10566                           
 10567                           ;Mach_encoder_4NN_LCD_PID_Pic16F887_MPlab.c: 55:            luu=xung;
 10568  1EC5  0857               	movf	(_xung+3)^(0+384),w
 10569  1EC6  00D3               	movwf	(_luu+3)^(0+384)
 10570  1EC7  0856               	movf	(_xung+2)^(0+384),w
 10571  1EC8  00D2               	movwf	(_luu+2)^(0+384)
 10572  1EC9  0855               	movf	(_xung+1)^(0+384),w
 10573  1ECA  00D1               	movwf	(_luu+1)^(0+384)
 10574  1ECB  0854               	movf	_xung^(0+384),w
 10575  1ECC  00D0               	movwf	_luu^(0+384)
 10576                           
 10577                           ;Mach_encoder_4NN_LCD_PID_Pic16F887_MPlab.c: 56:            xung=0;
 10578  1ECD  3000               	movlw	0
 10579  1ECE  00D7               	movwf	(_xung+3)^(0+384)
 10580  1ECF  3000               	movlw	0
 10581  1ED0  00D6               	movwf	(_xung+2)^(0+384)
 10582  1ED1  3000               	movlw	0
 10583  1ED2  00D5               	movwf	(_xung+1)^(0+384)
 10584  1ED3  3000               	movlw	0
 10585  1ED4  00D4               	movwf	_xung^(0+384)
 10586  1ED5                     i1l2944:
 10587                           
 10588                           ;Mach_encoder_4NN_LCD_PID_Pic16F887_MPlab.c: 57:            INTCONbits.INTE = 1;
 10589  1ED5  160B               	bsf	11,4	;volatile
 10590  1ED6                     i1l2946:
 10591                           
 10592                           ;Mach_encoder_4NN_LCD_PID_Pic16F887_MPlab.c: 58:            INTCONbits.TMR0IE=1;
 10593  1ED6  168B               	bsf	11,5	;volatile
 10594                           
 10595                           ;Mach_encoder_4NN_LCD_PID_Pic16F887_MPlab.c: 59:            tt=1;
 10596  1ED7  3001               	movlw	1
 10597  1ED8  00DC               	movwf	_tt^(0+384)
 10598  1ED9  3000               	movlw	0
 10599  1EDA  00DD               	movwf	(_tt^(0+384)+1)
 10600  1EDB                     i1l2948:
 10601                           
 10602                           ;Mach_encoder_4NN_LCD_PID_Pic16F887_MPlab.c: 62:     if(INTCONbits.INTF == 1)
 10603  1EDB  1C8B               	btfss	11,1	;volatile
 10604  1EDC  2EDE               	goto	u446_21
 10605  1EDD  2EDF               	goto	u446_20
 10606  1EDE                     u446_21:
 10607  1EDE  2EF0               	goto	i1l194
 10608  1EDF                     u446_20:
 10609  1EDF                     i1l2950:
 10610                           
 10611                           ;Mach_encoder_4NN_LCD_PID_Pic16F887_MPlab.c: 63:     {;Mach_encoder_4NN_LCD_PID_Pic16F88
      +                          7_MPlab.c: 64:         xung++;
 10612  1EDF  3001               	movlw	1
 10613  1EE0  1683               	bsf	3,5	;RP0=1, select bank3
 10614  1EE1  1703               	bsf	3,6	;RP1=1, select bank3
 10615  1EE2  07D4               	addwf	_xung^(0+384),f
 10616  1EE3  3000               	movlw	0
 10617  1EE4  1803               	skipnc
 10618  1EE5  3001               	movlw	1
 10619  1EE6  07D5               	addwf	(_xung+1)^(0+384),f
 10620  1EE7  3000               	movlw	0
 10621  1EE8  1803               	skipnc
 10622  1EE9  3001               	movlw	1
 10623  1EEA  07D6               	addwf	(_xung+2)^(0+384),f
 10624  1EEB  3000               	movlw	0
 10625  1EEC  1803               	skipnc
 10626  1EED  3001               	movlw	1
 10627  1EEE  07D7               	addwf	(_xung+3)^(0+384),f
 10628  1EEF                     i1l2952:
 10629                           
 10630                           ;Mach_encoder_4NN_LCD_PID_Pic16F887_MPlab.c: 65:         INTCONbits.INTF = 0;
 10631  1EEF  108B               	bcf	11,1	;volatile
 10632  1EF0                     i1l194:
 10633  1EF0  0871               	movf	??_ISR+1,w
 10634  1EF1  008A               	movwf	10
 10635  1EF2  0E70               	swapf	??_ISR,w
 10636  1EF3  0083               	movwf	3
 10637  1EF4  0EFE               	swapf	btemp,f
 10638  1EF5  0E7E               	swapf	btemp,w
 10639  1EF6  0009               	retfie
 10640  1EF7                     __end_of_ISR:
 10641  007E                     btemp	set	126	;btemp
 10642  007E                     wtemp0	set	126
 10643                           
 10644                           	psect	intentry
 10645  0004                     __pintentry:	
 10646                           ;incstack = 0
 10647                           ; Regs used in _ISR: [wreg+status,2+status,0]
 10648                           
 10649  0004                     interrupt_function:
 10650  007E                     saved_w	set	btemp
 10651  0004  00FE               	movwf	btemp
 10652  0005  0E03               	swapf	3,w
 10653  0006  00F0               	movwf	??_ISR
 10654  0007  080A               	movf	10,w
 10655  0008  00F1               	movwf	??_ISR+1
 10656  0009  160A  158A  2E7E   	ljmp	_ISR
 10657                           
 10658                           	psect	config
 10659                           
 10660                           ;Config register CONFIG1 @ 0x2007
 10661                           ;	Oscillator Selection bits
 10662                           ;	FOSC = HS, HS oscillator: High-speed crystal/resonator on RA6/OSC2/CLKOUT and RA7/OSC1
      +                          /CLKIN
 10663                           ;	Watchdog Timer Enable bit
 10664                           ;	WDTE = OFF, WDT disabled and can be enabled by SWDTEN bit of the WDTCON register
 10665                           ;	Power-up Timer Enable bit
 10666                           ;	PWRTE = OFF, PWRT disabled
 10667                           ;	RE3/MCLR pin function select bit
 10668                           ;	MCLRE = ON, RE3/MCLR pin function is MCLR
 10669                           ;	Code Protection bit
 10670                           ;	CP = OFF, Program memory code protection is disabled
 10671                           ;	Data Code Protection bit
 10672                           ;	CPD = OFF, Data memory code protection is disabled
 10673                           ;	Brown Out Reset Selection bits
 10674                           ;	BOREN = ON, BOR enabled
 10675                           ;	Internal External Switchover bit
 10676                           ;	IESO = ON, Internal/External Switchover mode is enabled
 10677                           ;	Fail-Safe Clock Monitor Enabled bit
 10678                           ;	FCMEN = ON, Fail-Safe Clock Monitor is enabled
 10679                           ;	Low Voltage Programming Enable bit
 10680                           ;	LVP = OFF, RB3 pin has digital I/O, HV on MCLR must be used for programming
 10681                           ;	In-Circuit Debugger Mode bit
 10682                           ;	DEBUG = 0x1, unprogrammed default
 10683  2007                     	org	8199
 10684  2007  2FF2               	dw	12274
 10685                           
 10686                           ;Config register CONFIG2 @ 0x2008
 10687                           ;	Brown-out Reset Selection bit
 10688                           ;	BOR4V = BOR40V, Brown-out Reset set to 4.0V
 10689                           ;	Flash Program Memory Self Write Enable bits
 10690                           ;	WRT = OFF, Write protection off
 10691  2008                     	org	8200
 10692  2008  3FFF               	dw	16383

Data Sizes:
    Strings     36
    Constant    0
    Data        0
    BSS         94
    Persistent  4
    Stack       0

Auto Spaces:
    Space          Size  Autos    Used
    COMMON           14     10      12
    BANK0            80     80      80
    BANK1            80     52      62
    BANK3            96      0      86
    BANK2            96     20      20

Pointer List with Targets:

    Lcd_Write_String@a	PTR unsigned char  size(1) Largest target is 8
		 -> STR_8(CODE[3]), STR_7(CODE[3]), STR_6(CODE[4]), STR_5(CODE[4]), 
		 -> STR_4(CODE[8]), STR_3(CODE[5]), STR_2(CODE[7]), STR_1(CODE[5]), 


Critical Paths under _main in COMMON

    _main->_Lcd_Write_String
    _tinh_pid->___flge
    _tinh_pid->___lmul
    ___aldiv->___lmul
    _Lcd_Write_String->_Lcd_Write_Char
    _Lcd_Write_Char->_Lcd_Port
    _Lcd_Set_Cursor->_Lcd_Cmd
    _Lcd_Init->_Lcd_Cmd
    _Lcd_Cmd->_Lcd_Port

Critical Paths under _ISR in COMMON

    None.

Critical Paths under _main in BANK0

    _tinh_pid->___fltol
    ___flsub->___fladd
    ___fladd->___flmul
    _PWM2_Duty->___fltol
    _PWM1_Duty->___fltol
    ___xxtofl->_PWM_Max_Duty
    ___flmul->___xxtofl
    ___fldiv->___fladd
    _PWM_Max_Duty->___aldiv
    ___almod->___aldiv
    _PWM1_Init->___aldiv
    ___aldiv->___lmul

Critical Paths under _ISR in BANK0

    None.

Critical Paths under _main in BANK1

    _main->_tinh_pid
    _tinh_pid->_PWM1_Duty
    _tinh_pid->_PWM2_Duty
    ___flsub->___fladd
    _nn_ss->_PWM1_Duty
    _nn_ss->_PWM2_Duty
    _nn_inv->_PWM1_Duty
    _nn_inv->_PWM2_Duty
    _PWM2_Duty->___fltol
    _PWM1_Duty->___fltol
    ___fltol->___fldiv
    ___fldiv->___fladd

Critical Paths under _ISR in BANK1

    None.

Critical Paths under _main in BANK3

    None.

Critical Paths under _ISR in BANK3

    None.

Critical Paths under _main in BANK2

    _main->_tinh_pid

Critical Paths under _ISR in BANK2

    None.

Call Graph Tables:

 ---------------------------------------------------------------------------------
 (Depth) Function   	        Calls       Base Space   Used Autos Params    Refs
 ---------------------------------------------------------------------------------
 (0) _main                                                 1     1      0  131499
                                             51 BANK1      1     1      0
                           _Lcd_Init
                     _Lcd_Set_Cursor
                     _Lcd_Write_Char
                   _Lcd_Write_String
                          _PWM1_Duty
                          _PWM1_Init
                         _PWM1_Start
                          _PWM1_Stop
                          _PWM2_Duty
                         _PWM2_Start
                          _PWM2_Stop
                            ___aldiv
                            ___almod
                              _nn_dw
                             _nn_inv
                              _nn_ss
                              _nn_up
                           _tinh_pid
 ---------------------------------------------------------------------------------
 (1) _tinh_pid                                            24    24      0   47483
                                             47 BANK1      4     4      0
                                              0 BANK2     20    20      0
                          _PWM1_Duty
                          _PWM2_Duty
                            ___aldiv
                            ___fladd
                            ___fldiv
                             ___flge
                            ___flmul
                            ___flsub
                            ___fltol
                             ___lmul
                           ___xxtofl
 ---------------------------------------------------------------------------------
 (2) ___lmul                                              13     5      8     316
                                              2 COMMON     8     0      8
                                              0 BANK0      5     5      0
 ---------------------------------------------------------------------------------
 (2) ___flsub                                              8     0      8    4447
                                              8 BANK1      8     0      8
                            ___fladd
                            ___flmul (ARG)
 ---------------------------------------------------------------------------------
 (3) ___fladd                                             20    12      8    4022
                                             66 BANK0     12     4      8
                                              0 BANK1      8     8      0
                            ___flmul (ARG)
 ---------------------------------------------------------------------------------
 (2) ___flge                                              12     4      8     626
                                              2 COMMON     8     0      8
                                              0 BANK0      4     4      0
 ---------------------------------------------------------------------------------
 (1) _nn_up                                                4     4      0       0
                                              2 COMMON     4     4      0
 ---------------------------------------------------------------------------------
 (1) _nn_ss                                                2     2      0   25532
                                             47 BANK1      2     2      0
                          _PWM1_Duty
                         _PWM1_Start
                          _PWM1_Stop
                          _PWM2_Duty
                         _PWM2_Start
                          _PWM2_Stop
 ---------------------------------------------------------------------------------
 (1) _nn_inv                                               2     2      0   25532
                                             47 BANK1      2     2      0
                          _PWM1_Duty
                         _PWM1_Start
                          _PWM1_Stop
                          _PWM2_Duty
                         _PWM2_Start
                          _PWM2_Stop
 ---------------------------------------------------------------------------------
 (2) _PWM2_Stop                                            0     0      0       0
 ---------------------------------------------------------------------------------
 (2) _PWM2_Start                                           0     0      0       0
 ---------------------------------------------------------------------------------
 (2) _PWM2_Duty                                            4     2      2   12811
                                             43 BANK1      4     2      2
                       _PWM_Max_Duty
                            ___fldiv
                            ___flmul
                            ___fltol
                           ___xxtofl
 ---------------------------------------------------------------------------------
 (2) _PWM1_Stop                                            0     0      0       0
 ---------------------------------------------------------------------------------
 (2) _PWM1_Start                                           0     0      0       0
 ---------------------------------------------------------------------------------
 (2) _PWM1_Duty                                            4     2      2   12721
                                             43 BANK1      4     2      2
                       _PWM_Max_Duty
                            ___fldiv
                            ___flmul
                            ___fltol
                           ___xxtofl
 ---------------------------------------------------------------------------------
 (2) ___xxtofl                                            14    10      4     926
                                             26 BANK0     14    10      4
                       _PWM_Max_Duty (ARG)
 ---------------------------------------------------------------------------------
 (2) ___fltol                                             11     7      4     607
                                             78 BANK0      2     2      0
                                             34 BANK1      9     5      4
                       _PWM_Max_Duty (ARG)
                            ___fldiv (ARG)
                            ___flmul (ARG)
                           ___xxtofl (ARG)
 ---------------------------------------------------------------------------------
 (2) ___flmul                                             26    18      8    6593
                                             40 BANK0     26    18      8
                       _PWM_Max_Duty (ARG)
                          __Umul8_16
                           ___xxtofl (ARG)
 ---------------------------------------------------------------------------------
 (3) __Umul8_16                                            9     7      2     980
                                              2 COMMON     4     2      2
                                              0 BANK0      5     5      0
 ---------------------------------------------------------------------------------
 (2) ___fldiv                                             26    18      8    2223
                                              8 BANK1     26    18      8
                            ___fladd (ARG)
                            ___flmul (ARG)
                           ___xxtofl (ARG)
 ---------------------------------------------------------------------------------
 (3) _PWM_Max_Duty                                         6     4      2    1885
                                             20 BANK0      6     4      2
                            ___aldiv
 ---------------------------------------------------------------------------------
 (1) _nn_dw                                                4     4      0       0
                                              2 COMMON     4     4      0
 ---------------------------------------------------------------------------------
 (1) ___almod                                             11     3      8    1208
                                             20 BANK0     11     3      8
                            ___aldiv (ARG)
 ---------------------------------------------------------------------------------
 (1) _PWM1_Init                                            8     4      4    2037
                                             20 BANK0      8     4      4
                            ___aldiv
 ---------------------------------------------------------------------------------
 (2) ___aldiv                                             15     7      8    1885
                                              5 BANK0     15     7      8
                             ___lmul (ARG)
 ---------------------------------------------------------------------------------
 (1) _Lcd_Write_String                                     3     3      0     672
                                              7 COMMON     3     3      0
                     _Lcd_Write_Char
 ---------------------------------------------------------------------------------
 (2) _Lcd_Write_Char                                       4     4      0     254
                                              3 COMMON     4     4      0
                           _Lcd_Port
 ---------------------------------------------------------------------------------
 (1) _Lcd_Set_Cursor                                       7     6      1    1085
                                              5 COMMON     3     2      1
                                              0 BANK0      4     4      0
                            _Lcd_Cmd
 ---------------------------------------------------------------------------------
 (1) _Lcd_Init                                             2     2      0     279
                                              5 COMMON     2     2      0
                            _Lcd_Cmd
                           _Lcd_Port
 ---------------------------------------------------------------------------------
 (2) _Lcd_Cmd                                              2     2      0     155
                                              3 COMMON     2     2      0
                           _Lcd_Port
 ---------------------------------------------------------------------------------
 (3) _Lcd_Port                                             1     1      0     124
                                              2 COMMON     1     1      0
 ---------------------------------------------------------------------------------
 Estimated maximum stack depth 3
 ---------------------------------------------------------------------------------
 (Depth) Function   	        Calls       Base Space   Used Autos Params    Refs
 ---------------------------------------------------------------------------------
 (5) _ISR                                                  2     2      0       0
                                              0 COMMON     2     2      0
 ---------------------------------------------------------------------------------
 Estimated maximum stack depth 5
 ---------------------------------------------------------------------------------

 Call Graph Graphs:

 _main (ROOT)
   _Lcd_Init
     _Lcd_Cmd
       _Lcd_Port
     _Lcd_Port
   _Lcd_Set_Cursor
     _Lcd_Cmd
       _Lcd_Port
   _Lcd_Write_Char
     _Lcd_Port
   _Lcd_Write_String
     _Lcd_Write_Char
       _Lcd_Port
   _PWM1_Duty
     _PWM_Max_Duty
       ___aldiv
         ___lmul (ARG)
     ___fldiv
       ___fladd (ARG)
         ___flmul (ARG)
           _PWM_Max_Duty (ARG)
             ___aldiv
               ___lmul (ARG)
           __Umul8_16 (ARG)
           ___xxtofl (ARG)
             _PWM_Max_Duty (ARG)
               ___aldiv
                 ___lmul (ARG)
       ___flmul (ARG)
         _PWM_Max_Duty (ARG)
           ___aldiv
             ___lmul (ARG)
         __Umul8_16 (ARG)
         ___xxtofl (ARG)
           _PWM_Max_Duty (ARG)
             ___aldiv
               ___lmul (ARG)
       ___xxtofl (ARG)
         _PWM_Max_Duty (ARG)
           ___aldiv
             ___lmul (ARG)
     ___flmul
       _PWM_Max_Duty (ARG)
         ___aldiv
           ___lmul (ARG)
       __Umul8_16 (ARG)
       ___xxtofl (ARG)
         _PWM_Max_Duty (ARG)
           ___aldiv
             ___lmul (ARG)
     ___fltol
       _PWM_Max_Duty (ARG)
         ___aldiv
           ___lmul (ARG)
       ___fldiv (ARG)
         ___fladd (ARG)
           ___flmul (ARG)
             _PWM_Max_Duty (ARG)
               ___aldiv
                 ___lmul (ARG)
             __Umul8_16 (ARG)
             ___xxtofl (ARG)
               _PWM_Max_Duty (ARG)
                 ___aldiv
                   ___lmul (ARG)
         ___flmul (ARG)
           _PWM_Max_Duty (ARG)
             ___aldiv
               ___lmul (ARG)
           __Umul8_16 (ARG)
           ___xxtofl (ARG)
             _PWM_Max_Duty (ARG)
               ___aldiv
                 ___lmul (ARG)
         ___xxtofl (ARG)
           _PWM_Max_Duty (ARG)
             ___aldiv
               ___lmul (ARG)
       ___flmul (ARG)
         _PWM_Max_Duty (ARG)
           ___aldiv
             ___lmul (ARG)
         __Umul8_16 (ARG)
         ___xxtofl (ARG)
           _PWM_Max_Duty (ARG)
             ___aldiv
               ___lmul (ARG)
       ___xxtofl (ARG)
         _PWM_Max_Duty (ARG)
           ___aldiv
             ___lmul (ARG)
     ___xxtofl
       _PWM_Max_Duty (ARG)
         ___aldiv
           ___lmul (ARG)
   _PWM1_Init
     ___aldiv
       ___lmul (ARG)
   _PWM1_Start
   _PWM1_Stop
   _PWM2_Duty
     _PWM_Max_Duty
       ___aldiv
         ___lmul (ARG)
     ___fldiv
       ___fladd (ARG)
         ___flmul (ARG)
           _PWM_Max_Duty (ARG)
             ___aldiv
               ___lmul (ARG)
           __Umul8_16 (ARG)
           ___xxtofl (ARG)
             _PWM_Max_Duty (ARG)
               ___aldiv
                 ___lmul (ARG)
       ___flmul (ARG)
         _PWM_Max_Duty (ARG)
           ___aldiv
             ___lmul (ARG)
         __Umul8_16 (ARG)
         ___xxtofl (ARG)
           _PWM_Max_Duty (ARG)
             ___aldiv
               ___lmul (ARG)
       ___xxtofl (ARG)
         _PWM_Max_Duty (ARG)
           ___aldiv
             ___lmul (ARG)
     ___flmul
       _PWM_Max_Duty (ARG)
         ___aldiv
           ___lmul (ARG)
       __Umul8_16 (ARG)
       ___xxtofl (ARG)
         _PWM_Max_Duty (ARG)
           ___aldiv
             ___lmul (ARG)
     ___fltol
       _PWM_Max_Duty (ARG)
         ___aldiv
           ___lmul (ARG)
       ___fldiv (ARG)
         ___fladd (ARG)
           ___flmul (ARG)
             _PWM_Max_Duty (ARG)
               ___aldiv
                 ___lmul (ARG)
             __Umul8_16 (ARG)
             ___xxtofl (ARG)
               _PWM_Max_Duty (ARG)
                 ___aldiv
                   ___lmul (ARG)
         ___flmul (ARG)
           _PWM_Max_Duty (ARG)
             ___aldiv
               ___lmul (ARG)
           __Umul8_16 (ARG)
           ___xxtofl (ARG)
             _PWM_Max_Duty (ARG)
               ___aldiv
                 ___lmul (ARG)
         ___xxtofl (ARG)
           _PWM_Max_Duty (ARG)
             ___aldiv
               ___lmul (ARG)
       ___flmul (ARG)
         _PWM_Max_Duty (ARG)
           ___aldiv
             ___lmul (ARG)
         __Umul8_16 (ARG)
         ___xxtofl (ARG)
           _PWM_Max_Duty (ARG)
             ___aldiv
               ___lmul (ARG)
       ___xxtofl (ARG)
         _PWM_Max_Duty (ARG)
           ___aldiv
             ___lmul (ARG)
     ___xxtofl
       _PWM_Max_Duty (ARG)
         ___aldiv
           ___lmul (ARG)
   _PWM2_Start
   _PWM2_Stop
   ___aldiv
     ___lmul (ARG)
   ___almod
     ___aldiv (ARG)
       ___lmul (ARG)
   _nn_dw
   _nn_inv
     _PWM1_Duty
       _PWM_Max_Duty
         ___aldiv
           ___lmul (ARG)
       ___fldiv
         ___fladd (ARG)
           ___flmul (ARG)
             _PWM_Max_Duty (ARG)
               ___aldiv
                 ___lmul (ARG)
             __Umul8_16 (ARG)
             ___xxtofl (ARG)
               _PWM_Max_Duty (ARG)
                 ___aldiv
                   ___lmul (ARG)
         ___flmul (ARG)
           _PWM_Max_Duty (ARG)
             ___aldiv
               ___lmul (ARG)
           __Umul8_16 (ARG)
           ___xxtofl (ARG)
             _PWM_Max_Duty (ARG)
               ___aldiv
                 ___lmul (ARG)
         ___xxtofl (ARG)
           _PWM_Max_Duty (ARG)
             ___aldiv
               ___lmul (ARG)
       ___flmul
         _PWM_Max_Duty (ARG)
           ___aldiv
             ___lmul (ARG)
         __Umul8_16 (ARG)
         ___xxtofl (ARG)
           _PWM_Max_Duty (ARG)
             ___aldiv
               ___lmul (ARG)
       ___fltol
         _PWM_Max_Duty (ARG)
           ___aldiv
             ___lmul (ARG)
         ___fldiv (ARG)
           ___fladd (ARG)
             ___flmul (ARG)
               _PWM_Max_Duty (ARG)
                 ___aldiv
                   ___lmul (ARG)
               __Umul8_16 (ARG)
               ___xxtofl (ARG)
                 _PWM_Max_Duty (ARG)
                   ___aldiv
                     ___lmul (ARG)
           ___flmul (ARG)
             _PWM_Max_Duty (ARG)
               ___aldiv
                 ___lmul (ARG)
             __Umul8_16 (ARG)
             ___xxtofl (ARG)
               _PWM_Max_Duty (ARG)
                 ___aldiv
                   ___lmul (ARG)
           ___xxtofl (ARG)
             _PWM_Max_Duty (ARG)
               ___aldiv
                 ___lmul (ARG)
         ___flmul (ARG)
           _PWM_Max_Duty (ARG)
             ___aldiv
               ___lmul (ARG)
           __Umul8_16 (ARG)
           ___xxtofl (ARG)
             _PWM_Max_Duty (ARG)
               ___aldiv
                 ___lmul (ARG)
         ___xxtofl (ARG)
           _PWM_Max_Duty (ARG)
             ___aldiv
               ___lmul (ARG)
       ___xxtofl
         _PWM_Max_Duty (ARG)
           ___aldiv
             ___lmul (ARG)
     _PWM1_Start
     _PWM1_Stop
     _PWM2_Duty
       _PWM_Max_Duty
         ___aldiv
           ___lmul (ARG)
       ___fldiv
         ___fladd (ARG)
           ___flmul (ARG)
             _PWM_Max_Duty (ARG)
               ___aldiv
                 ___lmul (ARG)
             __Umul8_16 (ARG)
             ___xxtofl (ARG)
               _PWM_Max_Duty (ARG)
                 ___aldiv
                   ___lmul (ARG)
         ___flmul (ARG)
           _PWM_Max_Duty (ARG)
             ___aldiv
               ___lmul (ARG)
           __Umul8_16 (ARG)
           ___xxtofl (ARG)
             _PWM_Max_Duty (ARG)
               ___aldiv
                 ___lmul (ARG)
         ___xxtofl (ARG)
           _PWM_Max_Duty (ARG)
             ___aldiv
               ___lmul (ARG)
       ___flmul
         _PWM_Max_Duty (ARG)
           ___aldiv
             ___lmul (ARG)
         __Umul8_16 (ARG)
         ___xxtofl (ARG)
           _PWM_Max_Duty (ARG)
             ___aldiv
               ___lmul (ARG)
       ___fltol
         _PWM_Max_Duty (ARG)
           ___aldiv
             ___lmul (ARG)
         ___fldiv (ARG)
           ___fladd (ARG)
             ___flmul (ARG)
               _PWM_Max_Duty (ARG)
                 ___aldiv
                   ___lmul (ARG)
               __Umul8_16 (ARG)
               ___xxtofl (ARG)
                 _PWM_Max_Duty (ARG)
                   ___aldiv
                     ___lmul (ARG)
           ___flmul (ARG)
             _PWM_Max_Duty (ARG)
               ___aldiv
                 ___lmul (ARG)
             __Umul8_16 (ARG)
             ___xxtofl (ARG)
               _PWM_Max_Duty (ARG)
                 ___aldiv
                   ___lmul (ARG)
           ___xxtofl (ARG)
             _PWM_Max_Duty (ARG)
               ___aldiv
                 ___lmul (ARG)
         ___flmul (ARG)
           _PWM_Max_Duty (ARG)
             ___aldiv
               ___lmul (ARG)
           __Umul8_16 (ARG)
           ___xxtofl (ARG)
             _PWM_Max_Duty (ARG)
               ___aldiv
                 ___lmul (ARG)
         ___xxtofl (ARG)
           _PWM_Max_Duty (ARG)
             ___aldiv
               ___lmul (ARG)
       ___xxtofl
         _PWM_Max_Duty (ARG)
           ___aldiv
             ___lmul (ARG)
     _PWM2_Start
     _PWM2_Stop
   _nn_ss
     _PWM1_Duty
       _PWM_Max_Duty
         ___aldiv
           ___lmul (ARG)
       ___fldiv
         ___fladd (ARG)
           ___flmul (ARG)
             _PWM_Max_Duty (ARG)
               ___aldiv
                 ___lmul (ARG)
             __Umul8_16 (ARG)
             ___xxtofl (ARG)
               _PWM_Max_Duty (ARG)
                 ___aldiv
                   ___lmul (ARG)
         ___flmul (ARG)
           _PWM_Max_Duty (ARG)
             ___aldiv
               ___lmul (ARG)
           __Umul8_16 (ARG)
           ___xxtofl (ARG)
             _PWM_Max_Duty (ARG)
               ___aldiv
                 ___lmul (ARG)
         ___xxtofl (ARG)
           _PWM_Max_Duty (ARG)
             ___aldiv
               ___lmul (ARG)
       ___flmul
         _PWM_Max_Duty (ARG)
           ___aldiv
             ___lmul (ARG)
         __Umul8_16 (ARG)
         ___xxtofl (ARG)
           _PWM_Max_Duty (ARG)
             ___aldiv
               ___lmul (ARG)
       ___fltol
         _PWM_Max_Duty (ARG)
           ___aldiv
             ___lmul (ARG)
         ___fldiv (ARG)
           ___fladd (ARG)
             ___flmul (ARG)
               _PWM_Max_Duty (ARG)
                 ___aldiv
                   ___lmul (ARG)
               __Umul8_16 (ARG)
               ___xxtofl (ARG)
                 _PWM_Max_Duty (ARG)
                   ___aldiv
                     ___lmul (ARG)
           ___flmul (ARG)
             _PWM_Max_Duty (ARG)
               ___aldiv
                 ___lmul (ARG)
             __Umul8_16 (ARG)
             ___xxtofl (ARG)
               _PWM_Max_Duty (ARG)
                 ___aldiv
                   ___lmul (ARG)
           ___xxtofl (ARG)
             _PWM_Max_Duty (ARG)
               ___aldiv
                 ___lmul (ARG)
         ___flmul (ARG)
           _PWM_Max_Duty (ARG)
             ___aldiv
               ___lmul (ARG)
           __Umul8_16 (ARG)
           ___xxtofl (ARG)
             _PWM_Max_Duty (ARG)
               ___aldiv
                 ___lmul (ARG)
         ___xxtofl (ARG)
           _PWM_Max_Duty (ARG)
             ___aldiv
               ___lmul (ARG)
       ___xxtofl
         _PWM_Max_Duty (ARG)
           ___aldiv
             ___lmul (ARG)
     _PWM1_Start
     _PWM1_Stop
     _PWM2_Duty
       _PWM_Max_Duty
         ___aldiv
           ___lmul (ARG)
       ___fldiv
         ___fladd (ARG)
           ___flmul (ARG)
             _PWM_Max_Duty (ARG)
               ___aldiv
                 ___lmul (ARG)
             __Umul8_16 (ARG)
             ___xxtofl (ARG)
               _PWM_Max_Duty (ARG)
                 ___aldiv
                   ___lmul (ARG)
         ___flmul (ARG)
           _PWM_Max_Duty (ARG)
             ___aldiv
               ___lmul (ARG)
           __Umul8_16 (ARG)
           ___xxtofl (ARG)
             _PWM_Max_Duty (ARG)
               ___aldiv
                 ___lmul (ARG)
         ___xxtofl (ARG)
           _PWM_Max_Duty (ARG)
             ___aldiv
               ___lmul (ARG)
       ___flmul
         _PWM_Max_Duty (ARG)
           ___aldiv
             ___lmul (ARG)
         __Umul8_16 (ARG)
         ___xxtofl (ARG)
           _PWM_Max_Duty (ARG)
             ___aldiv
               ___lmul (ARG)
       ___fltol
         _PWM_Max_Duty (ARG)
           ___aldiv
             ___lmul (ARG)
         ___fldiv (ARG)
           ___fladd (ARG)
             ___flmul (ARG)
               _PWM_Max_Duty (ARG)
                 ___aldiv
                   ___lmul (ARG)
               __Umul8_16 (ARG)
               ___xxtofl (ARG)
                 _PWM_Max_Duty (ARG)
                   ___aldiv
                     ___lmul (ARG)
           ___flmul (ARG)
             _PWM_Max_Duty (ARG)
               ___aldiv
                 ___lmul (ARG)
             __Umul8_16 (ARG)
             ___xxtofl (ARG)
               _PWM_Max_Duty (ARG)
                 ___aldiv
                   ___lmul (ARG)
           ___xxtofl (ARG)
             _PWM_Max_Duty (ARG)
               ___aldiv
                 ___lmul (ARG)
         ___flmul (ARG)
           _PWM_Max_Duty (ARG)
             ___aldiv
               ___lmul (ARG)
           __Umul8_16 (ARG)
           ___xxtofl (ARG)
             _PWM_Max_Duty (ARG)
               ___aldiv
                 ___lmul (ARG)
         ___xxtofl (ARG)
           _PWM_Max_Duty (ARG)
             ___aldiv
               ___lmul (ARG)
       ___xxtofl
         _PWM_Max_Duty (ARG)
           ___aldiv
             ___lmul (ARG)
     _PWM2_Start
     _PWM2_Stop
   _nn_up
   _tinh_pid
     _PWM1_Duty
       _PWM_Max_Duty
         ___aldiv
           ___lmul (ARG)
       ___fldiv
         ___fladd (ARG)
           ___flmul (ARG)
             _PWM_Max_Duty (ARG)
               ___aldiv
                 ___lmul (ARG)
             __Umul8_16 (ARG)
             ___xxtofl (ARG)
               _PWM_Max_Duty (ARG)
                 ___aldiv
                   ___lmul (ARG)
         ___flmul (ARG)
           _PWM_Max_Duty (ARG)
             ___aldiv
               ___lmul (ARG)
           __Umul8_16 (ARG)
           ___xxtofl (ARG)
             _PWM_Max_Duty (ARG)
               ___aldiv
                 ___lmul (ARG)
         ___xxtofl (ARG)
           _PWM_Max_Duty (ARG)
             ___aldiv
               ___lmul (ARG)
       ___flmul
         _PWM_Max_Duty (ARG)
           ___aldiv
             ___lmul (ARG)
         __Umul8_16 (ARG)
         ___xxtofl (ARG)
           _PWM_Max_Duty (ARG)
             ___aldiv
               ___lmul (ARG)
       ___fltol
         _PWM_Max_Duty (ARG)
           ___aldiv
             ___lmul (ARG)
         ___fldiv (ARG)
           ___fladd (ARG)
             ___flmul (ARG)
               _PWM_Max_Duty (ARG)
                 ___aldiv
                   ___lmul (ARG)
               __Umul8_16 (ARG)
               ___xxtofl (ARG)
                 _PWM_Max_Duty (ARG)
                   ___aldiv
                     ___lmul (ARG)
           ___flmul (ARG)
             _PWM_Max_Duty (ARG)
               ___aldiv
                 ___lmul (ARG)
             __Umul8_16 (ARG)
             ___xxtofl (ARG)
               _PWM_Max_Duty (ARG)
                 ___aldiv
                   ___lmul (ARG)
           ___xxtofl (ARG)
             _PWM_Max_Duty (ARG)
               ___aldiv
                 ___lmul (ARG)
         ___flmul (ARG)
           _PWM_Max_Duty (ARG)
             ___aldiv
               ___lmul (ARG)
           __Umul8_16 (ARG)
           ___xxtofl (ARG)
             _PWM_Max_Duty (ARG)
               ___aldiv
                 ___lmul (ARG)
         ___xxtofl (ARG)
           _PWM_Max_Duty (ARG)
             ___aldiv
               ___lmul (ARG)
       ___xxtofl
         _PWM_Max_Duty (ARG)
           ___aldiv
             ___lmul (ARG)
     _PWM2_Duty
       _PWM_Max_Duty
         ___aldiv
           ___lmul (ARG)
       ___fldiv
         ___fladd (ARG)
           ___flmul (ARG)
             _PWM_Max_Duty (ARG)
               ___aldiv
                 ___lmul (ARG)
             __Umul8_16 (ARG)
             ___xxtofl (ARG)
               _PWM_Max_Duty (ARG)
                 ___aldiv
                   ___lmul (ARG)
         ___flmul (ARG)
           _PWM_Max_Duty (ARG)
             ___aldiv
               ___lmul (ARG)
           __Umul8_16 (ARG)
           ___xxtofl (ARG)
             _PWM_Max_Duty (ARG)
               ___aldiv
                 ___lmul (ARG)
         ___xxtofl (ARG)
           _PWM_Max_Duty (ARG)
             ___aldiv
               ___lmul (ARG)
       ___flmul
         _PWM_Max_Duty (ARG)
           ___aldiv
             ___lmul (ARG)
         __Umul8_16 (ARG)
         ___xxtofl (ARG)
           _PWM_Max_Duty (ARG)
             ___aldiv
               ___lmul (ARG)
       ___fltol
         _PWM_Max_Duty (ARG)
           ___aldiv
             ___lmul (ARG)
         ___fldiv (ARG)
           ___fladd (ARG)
             ___flmul (ARG)
               _PWM_Max_Duty (ARG)
                 ___aldiv
                   ___lmul (ARG)
               __Umul8_16 (ARG)
               ___xxtofl (ARG)
                 _PWM_Max_Duty (ARG)
                   ___aldiv
                     ___lmul (ARG)
           ___flmul (ARG)
             _PWM_Max_Duty (ARG)
               ___aldiv
                 ___lmul (ARG)
             __Umul8_16 (ARG)
             ___xxtofl (ARG)
               _PWM_Max_Duty (ARG)
                 ___aldiv
                   ___lmul (ARG)
           ___xxtofl (ARG)
             _PWM_Max_Duty (ARG)
               ___aldiv
                 ___lmul (ARG)
         ___flmul (ARG)
           _PWM_Max_Duty (ARG)
             ___aldiv
               ___lmul (ARG)
           __Umul8_16 (ARG)
           ___xxtofl (ARG)
             _PWM_Max_Duty (ARG)
               ___aldiv
                 ___lmul (ARG)
         ___xxtofl (ARG)
           _PWM_Max_Duty (ARG)
             ___aldiv
               ___lmul (ARG)
       ___xxtofl
         _PWM_Max_Duty (ARG)
           ___aldiv
             ___lmul (ARG)
     ___aldiv
       ___lmul (ARG)
     ___fladd
       ___flmul (ARG)
         _PWM_Max_Duty (ARG)
           ___aldiv
             ___lmul (ARG)
         __Umul8_16 (ARG)
         ___xxtofl (ARG)
           _PWM_Max_Duty (ARG)
             ___aldiv
               ___lmul (ARG)
     ___fldiv
       ___fladd (ARG)
         ___flmul (ARG)
           _PWM_Max_Duty (ARG)
             ___aldiv
               ___lmul (ARG)
           __Umul8_16 (ARG)
           ___xxtofl (ARG)
             _PWM_Max_Duty (ARG)
               ___aldiv
                 ___lmul (ARG)
       ___flmul (ARG)
         _PWM_Max_Duty (ARG)
           ___aldiv
             ___lmul (ARG)
         __Umul8_16 (ARG)
         ___xxtofl (ARG)
           _PWM_Max_Duty (ARG)
             ___aldiv
               ___lmul (ARG)
       ___xxtofl (ARG)
         _PWM_Max_Duty (ARG)
           ___aldiv
             ___lmul (ARG)
     ___flge
     ___flmul
       _PWM_Max_Duty (ARG)
         ___aldiv
           ___lmul (ARG)
       __Umul8_16 (ARG)
       ___xxtofl (ARG)
         _PWM_Max_Duty (ARG)
           ___aldiv
             ___lmul (ARG)
     ___flsub
       ___fladd
         ___flmul (ARG)
           _PWM_Max_Duty (ARG)
             ___aldiv
               ___lmul (ARG)
           __Umul8_16 (ARG)
           ___xxtofl (ARG)
             _PWM_Max_Duty (ARG)
               ___aldiv
                 ___lmul (ARG)
       ___flmul (ARG)
         _PWM_Max_Duty (ARG)
           ___aldiv
             ___lmul (ARG)
         __Umul8_16 (ARG)
         ___xxtofl (ARG)
           _PWM_Max_Duty (ARG)
             ___aldiv
               ___lmul (ARG)
     ___fltol
       _PWM_Max_Duty (ARG)
         ___aldiv
           ___lmul (ARG)
       ___fldiv (ARG)
         ___fladd (ARG)
           ___flmul (ARG)
             _PWM_Max_Duty (ARG)
               ___aldiv
                 ___lmul (ARG)
             __Umul8_16 (ARG)
             ___xxtofl (ARG)
               _PWM_Max_Duty (ARG)
                 ___aldiv
                   ___lmul (ARG)
         ___flmul (ARG)
           _PWM_Max_Duty (ARG)
             ___aldiv
               ___lmul (ARG)
           __Umul8_16 (ARG)
           ___xxtofl (ARG)
             _PWM_Max_Duty (ARG)
               ___aldiv
                 ___lmul (ARG)
         ___xxtofl (ARG)
           _PWM_Max_Duty (ARG)
             ___aldiv
               ___lmul (ARG)
       ___flmul (ARG)
         _PWM_Max_Duty (ARG)
           ___aldiv
             ___lmul (ARG)
         __Umul8_16 (ARG)
         ___xxtofl (ARG)
           _PWM_Max_Duty (ARG)
             ___aldiv
               ___lmul (ARG)
       ___xxtofl (ARG)
         _PWM_Max_Duty (ARG)
           ___aldiv
             ___lmul (ARG)
     ___lmul
     ___xxtofl
       _PWM_Max_Duty (ARG)
         ___aldiv
           ___lmul (ARG)

 _ISR (ROOT)

 Address spaces:
Name               Size   Autos  Total    Cost      Usage
BITCOMMON            E      0       0       0        0.0%
EEDATA             100      0       0       0        0.0%
NULL                 0      0       0       0        0.0%
CODE                 0      0       0       0        0.0%
COMMON               E      A       C       1       85.7%
BITSFR0              0      0       0       1        0.0%
SFR0                 0      0       0       1        0.0%
BITSFR1              0      0       0       2        0.0%
SFR1                 0      0       0       2        0.0%
STACK                0      0       0       2        0.0%
ABS                  0      0     104       3        0.0%
BITBANK0            50      0       0       4        0.0%
BITSFR3              0      0       0       4        0.0%
SFR3                 0      0       0       4        0.0%
BANK0               50     50      50       5      100.0%
BITSFR2              0      0       0       5        0.0%
SFR2                 0      0       0       5        0.0%
BITBANK1            50      0       0       6        0.0%
BANK1               50     34      3E       7       77.5%
BITBANK3            60      0       0       8        0.0%
BANK3               60      0      56       9       89.6%
BITBANK2            60      0       0      10        0.0%
BANK2               60     14      14      11       20.8%
DATA                 0      0     104      12        0.0%


Microchip Technology PIC Macro Assembler V2.30 build 20200825195618 
Symbol Table                                                                                   Sat Dec 04 20:19:27 2021

             ___fldiv@aexp 00C1               ___fldiv@bexp 00C0                          _a 01B4  
                        _b 01B0                          _e 01C0                          _t 00DA  
                        pc 0002               ___fldiv@sign 00B9                         l81 1BA7  
                       l73 1B8F                         l74 1B92                         l75 1B98  
                       l76 1B99                         l84 0815                         l77 1B9F  
                       l93 1DA7                         l78 1BA0                         l79 1BA6  
                       l96 0876                         l99 1C2E                         _e1 01BC  
                       _e2 01B8                         _ga 01AC                         _kd 01DE  
                       _ki 01A4                         _gt 01D8                         _kp 01A8  
                       _td 01CC                         _tt 01DC                         fsr 0004  
      __Umul8_16@word_mpld 0022                        l110 1C6B                        l120 0938  
                      l105 1BCC                        l113 1056                        l130 1B6F  
                      l124 07F7                        l204 1F72                        l133 1B85  
                      l127 1B7A                        l215 1E77                        l207 1F78  
                      l136 1005                        l224 1DFF                        l233 1CF9  
                      l218 1E7D                        l227 1E05                        l236 1CFF  
                      l244 0735                        l413 10FD                        l423 1185  
                      l426 1F8D                        l522 11A4                        l362 1CB3  
                      l436 1FFF                        l541 10D1                        l525 1210  
                      l534 10E8                        l526 1229                        l544 10E8  
                      l721 14B6                        l713 1434                        l641 0D0D  
                      l645 0E0E                        l662 0F1D                        l654 0FFF  
                      l719 14A6                        l743 0C05                        l647 0DD9  
                      l672 0F6B                        l737 0C99                        l666 0F49  
                      l683 0FEF                        l675 0FC9                        l756 1BE3  
                      l684 0FFF                        l749 0C8D                        l781 124E  
                      l758 1BF5                        l783 12E5                        l687 1D4F  
                      l697 1342                        l794 12AF                        l699 14C2  
                      l795 12BB                        l787 1293                        _RB2 0032  
                      _RB3 0033                        _RB4 0034                        _RD4 0044  
                      _RD5 0045                        _RD6 0046                        _RD7 0047  
                      _PR2 0092                        _ISR 1E7E                        _dat 0198  
                      _dem 01C8                        _ext 01C4                        _luu 01D0  
                      fsr0 0004                        _out 01A0                        indf 0000  
             ___flmul@aexp 0056               ___flmul@bexp 005B               ___flmul@sign 0055  
             ___flmul@temp 0060               ___flmul@prod 005C                       ?_ISR 0070  
             ___fltol@exp1 006F                       l3100 1120                       l3110 114F  
                     l3102 1123                       l3120 1172                       l3112 115D  
                     l3104 1130                       l3200 0CB9                       l4000 14EB  
                     l3122 117D                       l3114 115E                       l3106 1134  
                     l3130 1BD9                       l3210 0CD1                       l3202 0CBE  
                     l4010 14F0                       l4002 14EC                       l3140 1B87  
                     l3116 1167                       l3108 113D                       l3132 1BDD  
                     l3300 0E3F                       l3220 0CEF                       l3212 0CDA  
                     l3204 0CC6                       l4100 17F2                       l4020 157A  
                     l4012 14F1                       l4004 14ED                       l3142 1B8B  
                     l3118 116D                       l3150 1C2F                       l3134 1BEC  
                     l3126 1BD0                       l3310 0E62                       l3302 0E4C  
                     l3230 0D03                       l3222 0CF0                       l3214 0CE0  
                     l3206 0CC7                       l4102 17F7                       l4030 159B  
                     l4022 1580                       l4014 14F2                       l4006 14EE  
                     l3144 1B96                       l3400 130B                       l3136 1BF1  
                     l3128 1BD2                       l3160 1071                       l3320 0F00  
                     l3304 0E4E                       l3312 0E69                       l3240 0D27  
                     l3224 0CF5                       l3232 0D05                       l3216 0CE1  
                     l3208 0CC9                       l4024 1588                       l4032 15A1  
                     l4040 15BA                       l4016 14F7                       l4008 14EF  
                     l3146 1B9D                       l3090 10F0                       l3410 1324  
                     l3402 130D                       l3170 109D                       l3162 108A  
                     l3154 1057                       l3330 0F33                       l3314 0E7F  
                     l3322 0F0F                       l3306 0E52                       l3250 0D4F  
                     l3242 0D2F                       l3234 0D13                       l3226 0CFA  
                     l3218 0CEB                       l4050 15EA                       l4042 15BF  
                     l4034 15A6                       l4026 158D                       l4018 1575  
                     l3148 1BA4                       l3092 1101                       l3500 1450  
                     l3420 1338                       l3412 1325                       l3404 1315  
                     l3164 108D                       l3156 1066                       l3340 0F52  
                     l3332 0F42                       l3324 0F25                       l3316 0EF1  
                     l3308 0E53                       l3260 0D77                       l3252 0D57  
                     l3244 0D37                       l3236 0D17                       l3228 0D02  
                     l4060 16B6                       l4052 15F2                       l4044 15C7  
                     l4036 15A9                       l4028 1590                       l3094 110C  
                     l3086 10E9                       l3510 1499                       l3502 1469  
                     l3414 132A                       l3422 133A                       l3406 131A  
                     l3166 1095                       l3350 0F62                       l3342 0F57  
                     l3334 0F48                       l3326 0F2A                       l3318 0EFB  
                     l3270 0D98                       l3262 0D7F                       l3254 0D5F  
                     l3246 0D3F                       l3238 0D1F                       l3190 0C9A  
                     l4070 1758                       l4062 16BC                       l4054 15F8  
                     l4038 15B4                       l4046 15CA                       l3096 1110  
                     l3088 10EC                       l3520 14B2                       l3512 149D  
                     l3504 146F                       l3440 1383                       l3424 134A  
                     l3432 1363                       l3416 132F                       l3408 1320  
                     l3600 0B26                       l3184 10C2                       l3176 10A5  
                     l3168 1099                       l3360 0F83                       l3352 0F68  
                     l3336 0F4D                       l3344 0F59                       l3280 0DF0  
                     l3272 0DB5                       l3264 0D87                       l3256 0D67  
                     l3248 0D47                       l3192 0CA5                       l4080 17A7  
                     l4072 1788                       l4064 16C4                       l4056 163F  
                     l4048 15E0                       l3098 1118                       l3514 14A5  
                     l3506 147C                       l3450 13A2                       l3442 138B  
                     l3434 1368                       l3426 1356                       l3418 1337  
                     l3610 0BBA                       l3602 0B36                       l3530 0946  
                     l3186 10D6                       l3178 10BB                       l2650 1B70  
                     l2810 1DA8                       l3370 0FDB                       l3362 0F87  
                     l3338 0F50                       l3346 0F5D                       l3290 0E17  
                     l3282 0DF1                       l3274 0DDD                       l3266 0D8F  
                     l3258 0D6F                       l3194 0CAF                       l4090 17D2  
                     l4082 17B3                       l4066 16CA                       l4058 1686  
                     l4074 178E                       l2900 1F9C                       l3516 14AC  
                     l3508 148A                       l3460 13D4                       l3452 13B4  
                     l3444 1393                       l3428 135A                       l3620 0BDF  
                     l3612 0BC8                       l3604 0B63                       l3540 095D  
                     l3532 094A                       l3188 10DB                       l3700 12D3  
                     l2652 1B6B                       l2820 1DF5                       l2812 1DAE  
                     l3380 0FFA                       l3372 0FE0                       l3364 0FC1  
                     l3356 0F70                       l3348 0F5E                       l3284 0E00  
                     l3276 0DEA                       l3268 0D97                       l3196 0CB3  
                     l4092 17DC                       l4084 17B9                       l4076 1794  
                     l4068 1711                       l3710 0801                       l2910 1FCA  
                     l2902 1FA4                       l2830 1CED                       l2822 1CB4  
                     l3518 14B0                       l3470 13F5                       l3462 13D5  
                     l3454 13B8                       l3446 139B                       l3438 1371  
                     l3390 12F7                       l3630 0C02                       l3614 0BD1  
                     l3622 0BE5                       l3606 0B89                       l3550 0976  
                     l3542 095F                       l3534 094B                       l3526 0939  
                     l3702 12D8                       l2654 1B7B                       l2814 1DB7  
                     l3382 0FFE                       l3374 0FE1                       l3366 0FCE  
                     l3358 0F75                       l3294 0E20                       l3278 0DEC  
                     l3286 0E06                       l3198 0CB4                       l4094 17E2  
                     l4086 17C1                       l4078 17A0                       l3712 0804  
                     l3800 1D53                       l3720 1BF7                       l2920 1FF7  
                     l2912 1FD8                       l2904 1FA7                       l2832 1CF1  
                     l2824 1CBA                       l3480 140E                       l3472 13F7  
                     l3464 13E3                       l3456 13B9                       l3448 139D  
                     l3392 12F8                       l3384 12E6                       l3640 0C21  
                     l3624 0BE9                       l3616 0BD5                       l3608 0BB1  
                     l3560 098B                       l3552 0977                       l3544 0967  
                     l3536 0950                       l3528 0940                       l3704 12DC  
                     l2656 1001                       l2816 1DBD                       l3376 0FE5  
                     l3368 0FD3                       l3296 0E37                       l3288 0E12  
                     l4096 17E7                       l4088 17CB                       l3714 080A  
                     l3802 1D58                       l3810 1D7D                       l3730 1C1A  
                     l3722 1C01                       l2914 1FE1                       l2906 1FB4  
                     l2826 1CC3                       l3490 1431                       l3474 1400  
                     l3482 1414                       l3458 13C2                       l3466 13E7  
                     l3394 12FD                       l3386 12ED                       l3650 0C67  
                     l3642 0C3A                       l3634 0C0A                       l3626 0BEA  
                     l3618 0BD6                       l3570 09A6                       l3562 0993  
                     l3554 097C                       l3546 096C                       l3538 0955  
                     l3706 12DD                       l2818 1DE1                       l3378 0FE7  
                     l3298 0E3B                       l4098 17ED                       l3716 080D  
                     l3820 0816                       l3812 1D83                       l3804 1D69  
                     l3732 1C1D                       l3724 1C04                       l2908 1FB8  
                     l2916 1FE7                       l2828 1CC9                       l3484 1418  
                     l3476 1404                       l3468 13ED                       l3396 1302  
                     l3388 12F3                       l3660 0C86                       l3652 0C71  
                     l3636 0C0F                       l3644 0C40                       l3628 0BEE  
                     l3580 0A28                       l3572 09B6                       l3564 0998  
                     l3556 0981                       l3548 0972                       l3740 0877  
                     l3900 1E45                       l3718 0812                       l3830 083D  
                     l3822 0819                       l3814 1D94                       l3806 1D6E  
                     l3734 1C23                       l3726 1C12                       l2918 1FEC  
                     l3494 1439                       l3486 1419                       l3478 1405  
                     l3398 130A                       l3662 0C91                       l3654 0C73  
                     l3646 0C4D                       l3638 0C1D                       l3590 0A96  
                     l3582 0A44                       l3574 09C3                       l3566 099D  
                     l3558 0989                       l3670 1236                       l3742 0882  
                     l3750 0736                       l3910 1E67                       l3902 1E50  
                     l3824 081F                       l3816 1D99                       l3808 1D74  
                     l3736 1C26                       l3728 1C15                       l3832 1BA9  
                     l3840 1006                       l3496 143E                       l3488 141D  
                     l3656 0C81                       l3648 0C58                       l3592 0AA6  
                     l3584 0A60                       l3576 09E0                       l3680 1264  
                     l3672 1246                       l3744 0919                       l3752 0741  
                     l3904 1E56                       l3760 1C6C                       l3920 0081  
                     l3912 0027                       l3826 0828                       l3818 1D9F  
                     l3738 1C2B                       l3834 1BAC                       l3842 103E  
                     l3498 144C                       l3658 0C85                       l3594 0AC3  
                     l3586 0A69                       l3578 09FC                       l3690 129A  
                     l3682 1271                       l3674 1256                       l3666 122D  
                     l3746 091C                       l3754 07D8                       l3906 1E5F  
                     l3850 1F0D                       l3770 1CAB                       l3762 1C76  
                     l3930 0280                       l3922 00F3                       l3914 002F  
                     l3828 0837                       l3836 1BB9                       l2892 1F79  
                     l3596 0ADC                       l3588 0A79                       l3692 12A5  
                     l3684 1278                       l3668 1232                       l3748 0928  
                     l3756 07DB                       l3908 1E64                       l3860 1F30  
                     l3852 1F13                       l3844 1EF7                       l3780 11C0  
                     l3764 1C7A                       l3940 0476                       l3932 02BF  
                     l3924 0140                       l3916 0031                       l3838 1BBF  
                     l2894 1F7C                       l3598 0AF9                       l3694 12A9  
                     l3686 127C                       l3678 125F                       l3758 07E7  
                     l3870 1F4E                       l3862 1F35                       l3854 1F20  
                     l3846 1EFD                       l3790 1228                       l3782 11C4  
                     l3774 1186                       l3766 1C91                       l3950 069C  
                     l3942 04B5                       l3934 030C                       l3926 017F  
                     l3918 0079                       l2896 1F80                       l3696 12B3  
                     l3688 128A                       l3880 1F6F                       l3872 1F51  
                     l3864 1F38                       l3856 1F22                       l3848 1F07  
                     l3784 11E8                       l3776 119C                       l3768 1C9A  
                     l3960 06EA                       l3952 06A4                       l3944 0550  
                     l3936 03B5                       l3928 021A                       l2898 1F91  
                     l3698 12BD                       l3890 1E24                       l3882 1E06  
                     l3874 1F5C                       l3866 1F43                       l3858 1F28  
                     l3786 11EC                       l3778 11B8                       l3794 1D00  
                     l3962 06F4                       l3954 06AC                       l3946 05C4  
                     l3938 0437                       l3892 1E31                       l3884 1E0C  
                     l3868 1F49                       l3876 1F62                       l3788 1226  
                     l3796 1D04                       l3956 06C5                       l3948 0694  
                     l3964 071B                       l3980 14C9                       l3894 1E35  
                     l3886 1E16                       l3878 1F67                       l3966 0722  
                     l3958 06CF                       l3990 14E1                       l3982 14CF  
                     l3896 1E3D                       l3888 1E1C                       l3968 072C  
                     l3992 14E2                       l3984 14DE                       l3976 14C3  
                     l3898 1E42                       l3994 14E6                       l3986 14DF  
                     l3978 14C7                       l3996 14E7                       l3988 14E0  
                     l3998 14EA                       STR_1 1815                       STR_2 180E  
                     STR_3 181A                       STR_4 1806                       STR_5 181F  
                     STR_6 1823                       STR_7 1827                       STR_8 1820  
                     u4200 1DCE                       u5000 0E3B                       u4201 1DCF  
                     u5001 0E3A                       u4210 1DF5                       u4202 1DD4  
                     u5010 0E3F                       u4211 1DF4                       u4203 1DD5  
                     u5011 0E3E                       u4220 1E05                       u5020 0E52  
                     u4221 1E04                       u4213 1DF1                       u5021 0E51  
                     u4230 1CBA                       u5110 0F48                       u4231 1CB9  
                     u5111 0F47                       u4400 1FE7                       u4240 1CC9  
                     u5200 0FA4                       u5120 0F4D                       u5040 0E7F  
                     u4401 1FE6                       u4241 1CC8                       u5121 0F4C  
                     u5105 0F37                       u5041 0E7E                       u4410 1FEC  
                     u4330 1F80                       u4250 1CDA                       u6010 12A9  
                     u5210 0FC1                       u5130 0F57                       u4411 1FEB  
                     u4331 1F7F                       u4251 1CDB                       u6011 12A8  
                     u5211 0FC0                       u5131 0F56                       u5051 0EAE  
                     u5043 0E7B                       u5035 0E57                       u4340 1F91  
                     u4260 1CF1                       u4252 1CE0                       u5300 1324  
                     u6020 12AF                       u4180 1DAE                       u5220 0FCE  
                     u5140 0F5D                       u5060 0ED0                       u5052 0EB1  
                     u4341 1F90                       u4261 1CF0                       u4253 1CE1  
                     u5301 1323                       u6021 12AE                       u6005 129E  
                     u4181 1DAD                       u5221 0FCD                       u5205 0F9F  
                     u5141 0F5C                       u5061 0ED1                       u5053 0EB8  
                     u4350 1FA4                       u4270 1CFF                       u5310 132A  
                     u6030 12B3                       u6110 0741                       u4190 1DBD  
                     u5230 0FD3                       u5150 0F62                       u5070 0F00  
                     u5062 0ED6                       u5054 0EBB                       u4351 1FA3  
                     u4271 1CFE                       u5311 1329                       u6031 12B2  
                     u6111 0740                       u4191 1DBC                       u5231 0FD2  
                     u5151 0F61                       u5071 0EFF                       u5063 0ED7  
                     u5055 0EC2                       u5400 13D4                       u5320 132F  
                     u6040 12C8                       u6104 0928                       u6120 07E4  
                     u6200 11B8                       u5240 0FE0                       u5160 0F68  
                     u5080 0F25                       u5056 0EC5                       u5401 13D3  
                     u5321 132E                       u6121 07E0                       u6201 11B7  
                     u5241 0FDF                       u5161 0F67                       u5081 0F24  
                     u4610 116D                       u4530 10F0                       u4370 1FB8  
                     u5410 13ED                       u5330 134A                       u6050 12D8  
                     u6210 11C4                       u5250 0FE5                       u5170 0F6F  
                     u5090 0F2A                       u4611 116C                       u4531 10EF  
                     u4371 1FB7                       u5411 13EC                       u5331 1349  
                     u6051 12D7                       u6211 11C3                       u5251 0FE4  
                     u5171 0F6E                       u5091 0F29                       u6300 1BCC  
                     u4620 1172                       u4540 1101                       u4380 1FCA  
                     u4700 1C4D                       u5500 143E                       u5420 13F5  
                     u5340 1368                       u6060 12DC                       u5260 0FFE  
                     u5180 0F75                       u6140 1C7A                       u6301 1BCB  
                     u4621 1171                       u4605 115F                       u4541 1100  
                     u4381 1FC9                       u4365 1FA9                       u5501 143D  
                     u5421 13F4                       u5405 13D0                       u5341 1367  
                     u6061 12DB                       u6045 12C3                       u6221 11D3  
                     u5261 0FFD                       u5181 0F74                       u6141 1C79  
                     u4550 1120                       u6310 1016                       u5510 1450  
                     u5350 13A2                       u5270 12F7                       u4630 1BDD  
                     u4710 1066                       u6134 07E7                       u6230 11EC  
                     u6222 11D4                       u5190 0F87                       u4551 111F  
                     u5511 144F                       u5351 13A1                       u5271 12F6  
                     u4631 1BDC                       u4711 1065                       u6231 11EB  
                     u6223 11D9                       u5191 0F86                       u6151 1C83  
                     u6320 101F                       u5520 145F                       u5440 1404  
                     u5280 12FD                       u5600 097C                       u4800 10DB  
                     u4720 1081                       u6080 0882                       u6400 1E1C  
                     u6224 11DA                       u6152 1C8A                       u4385 1FC6  
                     u4705 1C48                       u5441 1403                       u5281 12FC  
                     u5601 097B                       u4801 10DA                       u6081 0881  
                     u6401 1E1B                       u6241 11FB                       u6225 11DF  
                     u6153 1C91                       u4570 1134                       u5530 147C  
                     u5290 1302                       u4650 1BF1                       u5610 0981  
                     u4730 109D                       u6090 0925                       u6410 1E31  
                     u6330 1EFD                       u6250 1226                       u6242 11FC  
                     u6226 11E0                       u4810 0CB3                       u6075 1C07  
                     u4571 1133                       u6315 1011                       u4395 1FD9  
                     u5531 147B                       u5435 13F9                       u5291 1301  
                     u4651 1BF0                       u5611 0980                       u4731 109C  
                     u6091 0921                       u6411 1E30                       u6331 1EFC  
                     u6251 1225                       u6243 1201                       u4811 0CB2  
                     u4660 1B8B                       u6260 1D58                       u5540 1499  
                     u5460 1418                       u5380 13B8                       u5620 0998  
                     u4740 10A4                       u6420 1E3D                       u6340 1F0D  
                     u6244 1202                       u4900 0DB5                       u4820 0CB9  
                     u6180 1CAB                       u4661 1B8A                       u6261 1D57  
                     u4565 1125                       u6325 101A                       u5541 1498  
                     u5525 145A                       u5461 1417                       u5381 13B7  
                     u5365 13A4                       u4645 1BE4                       u5701 0AB5  
                     u5621 0997                       u4741 10A3                       u4725 107C  
                     u6421 1E3C                       u6341 1F0C                       u6245 1207  
                     u4901 0DB4                       u4821 0CB8                       u6181 1CAA  
                     u6165 1C93                       u4670 1B96                       u4590 114F  
                     u5550 14B0                       u5470 141D                       u5702 0ABC  
                     u5630 099D                       u6430 1E7D                       u6350 1F20  
                     u6246 1208                       u6190 119C                       u4910 0DC0  
                     u4830 0CBE                       u6510 1580                       u4671 1B95  
                     u4591 114E                       u5551 14AF                       u5535 1478  
                     u5471 141C                       u5455 1407                       u5375 13AD  
                     u5703 0AC3                       u5631 099C                       u6431 1E7C  
                     u6415 1E2D                       u6351 1F1F                       u6255 1222  
                     u6191 119B                       u4911 0DBE                       u4831 0CBD  
                     u6175 1C9B                       u6511 157F                       u4680 1B9D  
                     u6280 1D83                       u5480 1431                       u5560 094A  
                     u4760 10BA                       u6360 1F28                       u4920 0DC1  
                     u4840 0CE0                       u6440 002F                       u6520 1588  
                     u4681 1B9C                       u6281 1D82                       u4585 1136  
                     u5545 1495                       u5481 1430                       u5721 0AEB  
                     u5641 09EE                       u5561 0949                       u4761 10B9  
                     u6361 1F27                       u4905 0DB1                       u4841 0CDF  
                     u6441 002E                       u6521 1587               _PWM_Max_Duty 1C2F  
                     u4690 1BA4                       u5490 1438                       u5810 0BD5  
                     u5722 0AF2                       u5642 09F5                       u5570 0950  
                     u4770 10C1                       u6370 1F30                       u4930 0DDD  
                     u4850 0CEF                       u6530 15E0                       u4691 1BA3  
                     u6275 1D60                       u4595 114B                       u5491 1437  
                     u5395 13BB                       u5811 0BD4                       u5731 0B18  
                     u5723 0AF9                       u5715 0AC5                       u5651 0A0A  
                     u5643 09FC                       u5571 094F                       u4771 10C0  
                     u4755 10A6                       u6371 1F2F                       u6355 1F1C  
                     u4931 0DDC                       u4851 0CEE                       u6451 00A4  
                     u6531 15DF                       u5900 0C4D                       u5732 0B1F  
                     u5652 0A11                       u5580 0955                       u6380 1F78  
                     u4940 0DF0                       u4860 0CF5                       u6460 06C5  
                     u6452 00A7                       u6540 1794                       u5901 0C4C  
                     u5805 0BCA                       u5741 0B45                       u5733 0B26  
                     u5661 0A36                       u5653 0A18                       u5581 0954  
                     u6381 1F77                       u4941 0DEF                       u4861 0CF4  
                     u6461 06C4                       u6453 00AE                       u6541 1793  
                     u6533 15DC                       u5910 0C67                       u5830 0BE9  
                     u5750 0B6F                       u5742 0B4C                       u5662 0A3D  
                     u5590 0976                       u4790 10D6                       u6390 1E0C  
                     u4870 0CFA                       u6470 06EA                       u6454 00B1  
                     u6550 17C1                       u6295 1D8B                       u6607 1CBE  
                     u5911 0C66                       u5831 0BE8                       u5743 0B53  
                     u5671 0A52                       u5663 0A44                       u5591 0975  
                     u4791 10D5                       u6391 1E0B                       u4871 0CF9  
                     u6471 06E9                       u6455 00B8                       u6551 17C0  
                     u5920 0C85                       u5840 0BEE                       u5672 0A59  
                     u4960 0E0E                       u4880 0D13                       u6480 0722  
                     u6456 00BB                       u6560 17ED                       u6617 1C17  
                     u5921 0C84                       u5905 0C49                       u5841 0BED  
                     u5825 0BD8                       u5761 0B7B                       u5673 0A60  
                     u4785 10C6                       u4961 0E0D                       u4881 0D12  
                     u6481 0721                       u6561 17EC                       u5850 0C02  
                     u5770 0B97                       u5762 0B82                       u5930 1232  
                     u4970 0E12                       u4890 0D17                       u6627 1C28  
                     u5915 0C63                       u5851 0C01                       u5763 0B89  
                     u5755 0B6A                       u5691 0A88                       u5931 1231  
                     u4971 0E11                       u4955 0DF5                       u4891 0D16  
                     u5860 0C09                       u5692 0A8F                       u5940 1236  
                     u4980 0E17                       u6637 0823                       u5861 0C08  
                     u5781 0BA3                       u5693 0A96                       u5685 0A62  
                     u5941 1235                       u4981 0E16                       u5870 0C0F  
                     u5782 0BAA                       u5950 1256                       u6647 0832  
                     u5871 0C0E                       u5783 0BB1                       u5775 0B92  
                     u5951 1255                       u4991 0E29                       u5880 0C21  
                     u4992 0E30                       u6657 0841                       u5881 0C20  
                     u6577 1DB2                       u4993 0E37                       u5890 0C30  
                     u5970 1277                       u6667 080F                       u5795 0BB3  
                     u5971 1276                       u6587 1F03                       u5965 1269  
                     u6597 1E12                       u5990 1299                       u5895 0C2B  
                     u5991 1298                       u5985 128B                       _TMR0 0001  
        ?_Lcd_Write_String 0070                       _chay 0194                       _main 14C3  
                     _freq 01E2                       _duty 0190                       btemp 007E  
                     _xung 01D4                       start 000C         ??_Lcd_Write_String 0077  
          ___fldiv@new_exp 00BA            __end_of_Lcd_Cmd 0816                      ??_ISR 0070  
            ___fltol@sign1 006E            __end_of___aldiv 1186            __end_of___almod 2000  
          __end_of___fladd 1000                      ?_main 0070                      _CCP1X 00BD  
          __end_of___fldiv 14C3                      _CCP1Y 00BC                      _CCP2X 00ED  
                    _CCP2Y 00EC            __end_of___flmul 0C9A            __end_of___flsub 1D50  
          __end_of___fltol 10E9                      _ANSEL 0188                      i1l194 1EF0  
  __size_of_Lcd_Set_Cursor 0058                      _TRISA 0085                      _TRISB 0086  
                    _TRISC 0087                      _TRISD 0088        ___lmul@multiplicand 0076  
       __size_of_PWM1_Init 0051         __size_of_PWM1_Duty 00C2                ?_PWM1_Start 0070  
       __size_of_PWM2_Duty 00C2                ?_PWM2_Start 0070         __size_of_PWM1_Stop 0005  
       __size_of_PWM2_Stop 0005                      _nn_dw 1CB4                      _nn_ss 1EF7  
                    _nn_up 1DA8                      _tt_ss 007A                      pclath 000A  
                    status 0003                      wtemp0 007E           __end_of_Lcd_Init 0877  
         __end_of_Lcd_Port 1BA8            __initialization 000F               __end_of_main 1800  
                   ??_main 00D3                     _CCP1M2 00BA                     _CCP1M3 00BB  
                   _CCP2M2 00EA                     _CCP2M3 00EB                     ?_nn_dw 0070  
                   ?_nn_ss 0070                     ?_nn_up 0070                     _CCPR1L 0015  
                   _CCPR2L 001B                     _ANSELH 0189                     i1l2930 1E7E  
                   i1l2940 1EC3                     i1l2932 1E82                     i1l2950 1EDF  
                   i1l2942 1EC4                     i1l2934 1E83                     i1l2952 1EEF  
                   i1l2944 1ED5                     i1l2936 1EA5                     i1l2946 1ED6  
                   i1l2938 1EB9                     i1l2948 1EDB                     u444_20 1E82  
                   u444_21 1E81                     u445_20 1EB9                     u445_21 1EB8  
                   u445_23 1EB5                     u446_20 1EDF                     u446_21 1EDE  
                ??_Lcd_Cmd 0073                     _TMR2ON 0092    __size_of_Lcd_Write_Char 0039  
                   _TRISC1 0439                     _TRISC2 043A           __end_of___xxtofl 12E6  
                   ___flge 1186          __end_of_PWM1_Init 1057          __end_of_PWM1_Duty 0939  
        __end_of_PWM2_Duty 07F8                     ___lmul 1C6C                  ??___aldiv 002D  
        __end_of_PWM1_Stop 1B70                  ??___almod 003C                  ??___fladd 00A0  
        __end_of_PWM2_Stop 1006                  ??___fldiv 00B0        __size_of_PWM1_Start 000B  
                ??___flmul 0050                  ??___flsub 007A                  ??___fltol 00C6  
      __size_of_PWM2_Start 000B                     _nn_inv 1E06                     _tt_inv 00D8  
       __size_of__Umul8_16 0029                     saved_w 007E           __end_of_tinh_pid 0736  
          Lcd_Set_Cursor@a 0020            Lcd_Set_Cursor@b 0075            Lcd_Set_Cursor@y 0022  
          Lcd_Set_Cursor@z 0021                 ___flge@ff1 0072                 ___flge@ff2 0076  
             ___xxtofl@arg 0044               ___xxtofl@exp 0043               ___xxtofl@val 003A  
  __end_of__initialization 0023                 ___fltol@f1 00C2             __pcstackCOMMON 0070  
            __end_of_nn_dw 1D00              __end_of_nn_ss 1F79              __end_of_nn_up 1E06  
           _Lcd_Set_Cursor 1D50             _OPTION_REGbits 0081                  ?_Lcd_Init 0070  
                ?_Lcd_Port 0070                    ??_nn_dw 0072                    ??_nn_ss 00CF  
                  ??_nn_up 0072                 __pbssBANK1 00D4                 __pbssBANK3 0190  
        __end_of__Umul8_16 1BF6                 __pmaintext 14C3                    ?___flge 0072  
                  ?___lmul 0072                 __pintentry 0004             ___lmul@product 0021  
                  ?_nn_inv 0070  __size_of_Lcd_Write_String 0025     __end_of_Lcd_Set_Cursor 1DA8  
                  _T2CKPS0 0090                    _T2CKPS1 0091                  ?___xxtofl 003A  
             ??_PWM1_Start 0072               ??_PWM2_Start 0072                 ??_Lcd_Init 0075  
               ??_Lcd_Port 0072                 __stringtab 1800             _Lcd_Write_Char 1BF6  
                  _Lcd_Cmd 0800                  ?_tinh_pid 0070                    ___aldiv 10E9  
          __size_of___flge 00A4                    ___almod 1F79                    ___fladd 0C9A  
                  ___fldiv 12E6            __size_of___lmul 0048                    ___flmul 0939  
                  ___flsub 1D00                    ___fltol 1057         __end_of_PWM1_Start 1B7B  
       __end_of_PWM2_Start 1B86            __size_of_nn_inv 0078            ?_Lcd_Set_Cursor 0075  
                  __ptext1 0027                    __ptext2 1C6C                    __ptext3 1D00  
                  __ptext4 0C9A                    __ptext5 1186                    __ptext6 1DA8  
                  __ptext7 1EF7                    __ptext8 1E06                    __ptext9 1001  
             __size_of_ISR 0079                    _lastout 019C                 ??___xxtofl 003E  
         ___aldiv@dividend 0029                    _pwmduty 00D4                    clrloop0 07F9  
   __end_of_Lcd_Write_Char 1C2F       end_of_initialization 0023           ___aldiv@quotient 0030  
               ??_tinh_pid 00CF                  Lcd_Port@a 0072                  _PWM1_Init 1006  
                _PWM1_Duty 0877                  _PWM2_Duty 0736                  _PWM1_Stop 1B6B  
                _PORTAbits 0005                  _PWM2_Stop 1001                  _PORTCbits 0007  
              ___fladd@grs 006D              ___xxtofl@sign 0042                ___fldiv@grs 00BC  
              ___fldiv@rem 00B5            ?_Lcd_Write_Char 0070          Lcd_Write_String@a 0079  
        Lcd_Write_String@i 0077                ___flmul@grs 0057             __end_of___flge 122A  
           __end_of___lmul 1CB4           _Lcd_Write_String 1BA8                 ?_PWM1_Init 0034  
               ?_PWM1_Duty 00CB                 ?_PWM2_Duty 00CB                 ?_PWM1_Stop 0070  
               ?_PWM2_Stop 0070             __end_of_nn_inv 1E7E        start_initialization 000F  
              __end_of_ISR 1EF7              ?_PWM_Max_Duty 0034          __size_of_Lcd_Init 0061  
        __size_of_Lcd_Port 0022                   ??___flge 0020                   ??___lmul 0020  
                __Umul8_16 1BCD            Lcd_Write_Char@a 0076            Lcd_Write_Char@y 0075  
                 ??_nn_inv 00CF                  ___fladd@a 0066                  ___fladd@b 0062  
                ___fldiv@a 00A8                  ___fldiv@b 00AC                  ___flmul@a 004C  
                ___flmul@b 0048                __pbssCOMMON 007A                  ___flsub@a 00A8  
                ___flsub@b 00AC                  ___latbits 0002              __pcstackBANK0 0020  
            __pcstackBANK1 00A0              __pcstackBANK2 0110          __size_of___xxtofl 00BC  
           ??_PWM_Max_Duty 0036                   ?_Lcd_Cmd 0070                  __pnvBANK3 01E2  
         ??_Lcd_Set_Cursor 0076                   ?___aldiv 0025                   ?___almod 0034  
                 ?___fladd 0062                   ?___fldiv 00A8                   ?___flmul 0048  
                 ?___flsub 00A8                   ?___fltol 00C2                 ?__Umul8_16 0072  
        __size_of_tinh_pid 070F                ??_PWM1_Init 0038                ??_PWM1_Duty 00CD  
              ??_PWM2_Duty 00CD           ___almod@dividend 0038                ??_PWM1_Stop 0072  
                __pstrings 1800                ??_PWM2_Stop 0072             __size_of_nn_dw 004C  
           __size_of_nn_ss 0082             __size_of_nn_up 005E            ___aldiv@divisor 0025  
        interrupt_function 0004            ___aldiv@counter 002E                  clear_ram0 07F8  
                 Lcd_Cmd@a 0074              PWM1_Duty@duty 00CB              PWM2_Duty@duty 00CB  
              __stringbase 1805           ??_Lcd_Write_Char 0073                   _Lcd_Init 0816  
                 _Lcd_Port 1B86          ___lmul@multiplier 0072   __end_of_Lcd_Write_String 1BCD  
         __size_of_Lcd_Cmd 0016                ??__Umul8_16 0074           __size_of___aldiv 009D  
     __end_of_PWM_Max_Duty 1C6C           __size_of___almod 0087           __size_of___fladd 0366  
         __size_of___fldiv 01DD           __size_of___flmul 0361           __size_of___flsub 0050  
         __size_of___fltol 0092         __end_of__stringtab 1806                   ___xxtofl 122A  
                 __ptext10 1B7B                   __ptext11 0736                   __ptext20 1C2F  
                 __ptext12 1B6B                   __ptext21 1CB4                   __ptext13 1B70  
                 __ptext30 1B86                   __ptext22 1F79                   __ptext14 0877  
                 __ptext31 1E7E                   __ptext23 1006                   __ptext15 122A  
                 __ptext24 10E9                   __ptext16 1057                   __ptext25 1BA8  
                 __ptext17 0939                   __ptext26 1BF6                   __ptext18 1BCD  
                 __ptext27 1D50                   __ptext19 12E6                   __ptext28 0816  
                 __ptext29 0800            ___almod@divisor 0034            ___almod@counter 003D  
            __size_of_main 033D               PWM1_Init@fre 0034                   _tinh_pid 0027  
               _INTCONbits 000B         Lcd_Write_Char@temp 0074                   intlevel1 0000  
             _tinh_pid$920 0120               _tinh_pid$921 0118               _tinh_pid$922 011C  
             _tinh_pid$923 0110               _tinh_pid$924 0114                  stringcode 1800  
       Lcd_Set_Cursor@temp 0023     __Umul8_16@multiplicand 0072                   stringdir 1800  
                 stringtab 1800               ___aldiv@sign 002F                 _PWM1_Start 1B70  
               _PWM2_Start 1B7B              ___fladd@signs 006A               ___almod@sign 003E  
             ___fladd@aexp 006B               ___fladd@bexp 006C       __Umul8_16@multiplier 0024  
    __size_of_PWM_Max_Duty 003D          __Umul8_16@product 0020  
